TN:
SF:/usr/include/c++/11/bits/stl_algobase.h
FN:400,_ZNSt11__copy_moveILb1ELb0ESt26random_access_iterator_tagE8__copy_mIPSt10shared_ptrIN7hare_mq8consumerEES7_EET0_T_S9_S8_
FNDA:0,_ZNSt11__copy_moveILb1ELb0ESt26random_access_iterator_tagE8__copy_mIPSt10shared_ptrIN7hare_mq8consumerEES7_EET0_T_S9_S8_
DA:254,1
DA:259,1
DA:260,1
DA:328,0
DA:329,0
DA:400,0
DA:403,0
DA:405,0
DA:406,0
DA:407,0
DA:409,0
DA:486,0
DA:495,0
DA:521,0
DA:522,0
DA:527,0
DA:529,0
DA:644,0
DA:652,0
end_of_record
SF:/home/eric/2025MQ/MQproject/2025MQWorkSpace/src/server/consumer.cpp
FN:8,_ZN7hare_mq8consumerC2ERKNSt7__cxx1112basic_stringIcSt11char_traitsIcESaIcEEES8_bRKSt8functionIFvS8_PKNS_15BasicPropertiesES8_EE
FNDA:1,_ZN7hare_mq8consumerC2ERKNSt7__cxx1112basic_stringIcSt11char_traitsIcESaIcEEES8_bRKSt8functionIFvS8_PKNS_15BasicPropertiesES8_EE
FN:16,_ZN7hare_mq14queue_consumerC2ERKNSt7__cxx1112basic_stringIcSt11char_traitsIcESaIcEEE
FNDA:7,_ZN7hare_mq14queue_consumerC2ERKNSt7__cxx1112basic_stringIcSt11char_traitsIcESaIcEEE
FN:19,_ZN7hare_mq14queue_consumer6createERKNSt7__cxx1112basic_stringIcSt11char_traitsIcESaIcEEES8_bRKSt8functionIFvS8_PKNS_15BasicPropertiesES8_EE
FNDA:1,_ZN7hare_mq14queue_consumer6createERKNSt7__cxx1112basic_stringIcSt11char_traitsIcESaIcEEES8_bRKSt8functionIFvS8_PKNS_15BasicPropertiesES8_EE
FN:36,_ZN7hare_mq14queue_consumer6removeERKNSt7__cxx1112basic_stringIcSt11char_traitsIcESaIcEEE
FNDA:0,_ZN7hare_mq14queue_consumer6removeERKNSt7__cxx1112basic_stringIcSt11char_traitsIcESaIcEEE
FN:48,_ZN7hare_mq14queue_consumer9rr_chooseEv
FNDA:0,_ZN7hare_mq14queue_consumer9rr_chooseEv
FN:57,_ZN7hare_mq14queue_consumer5emptyEv
FNDA:0,_ZN7hare_mq14queue_consumer5emptyEv
FN:63,_ZN7hare_mq14queue_consumer6existsERKNSt7__cxx1112basic_stringIcSt11char_traitsIcESaIcEEE
FNDA:0,_ZN7hare_mq14queue_consumer6existsERKNSt7__cxx1112basic_stringIcSt11char_traitsIcESaIcEEE
FN:72,_ZN7hare_mq14queue_consumer5clearEv
FNDA:0,_ZN7hare_mq14queue_consumer5clearEv
FN:80,_ZN7hare_mq16consumer_manager19init_queue_consumerERKNSt7__cxx1112basic_stringIcSt11char_traitsIcESaIcEEE
FNDA:7,_ZN7hare_mq16consumer_manager19init_queue_consumerERKNSt7__cxx1112basic_stringIcSt11char_traitsIcESaIcEEE
FN:88,_ZN7hare_mq16consumer_manager22destroy_queue_consumerERKNSt7__cxx1112basic_stringIcSt11char_traitsIcESaIcEEE
FNDA:0,_ZN7hare_mq16consumer_manager22destroy_queue_consumerERKNSt7__cxx1112basic_stringIcSt11char_traitsIcESaIcEEE
FN:94,_ZN7hare_mq16consumer_manager6createERKNSt7__cxx1112basic_stringIcSt11char_traitsIcESaIcEEES8_bRKSt8functionIFvS8_PKNS_15BasicPropertiesES8_EE
FNDA:1,_ZN7hare_mq16consumer_manager6createERKNSt7__cxx1112basic_stringIcSt11char_traitsIcESaIcEEES8_bRKSt8functionIFvS8_PKNS_15BasicPropertiesES8_EE
FN:112,_ZN7hare_mq16consumer_manager6removeERKNSt7__cxx1112basic_stringIcSt11char_traitsIcESaIcEEES8_
FNDA:0,_ZN7hare_mq16consumer_manager6removeERKNSt7__cxx1112basic_stringIcSt11char_traitsIcESaIcEEES8_
FN:127,_ZN7hare_mq16consumer_manager6chooseERKNSt7__cxx1112basic_stringIcSt11char_traitsIcESaIcEEE
FNDA:0,_ZN7hare_mq16consumer_manager6chooseERKNSt7__cxx1112basic_stringIcSt11char_traitsIcESaIcEEE
DA:8,1
DA:9,1
DA:10,1
DA:11,1
DA:12,1
DA:13,1
DA:16,7
DA:17,7
DA:19,1
DA:24,1
DA:25,1
DA:26,0
DA:27,0
DA:28,0
DA:31,1
DA:32,1
DA:33,1
DA:34,1
DA:36,0
DA:38,0
DA:39,0
DA:40,0
DA:41,0
DA:42,0
DA:45,0
DA:46,0
DA:48,0
DA:50,0
DA:51,0
DA:52,0
DA:53,0
DA:54,0
DA:55,0
DA:57,0
DA:59,0
DA:60,0
DA:61,0
DA:63,0
DA:65,0
DA:66,0
DA:67,0
DA:70,0
DA:72,0
DA:74,0
DA:75,0
DA:76,0
DA:77,0
DA:80,7
DA:82,7
DA:83,7
DA:84,7
DA:86,7
DA:88,0
DA:90,0
DA:91,0
DA:92,0
DA:94,1
DA:99,1
DA:100,1
DA:101,1
DA:102,1
DA:103,1
DA:104,0
DA:105,0
DA:107,1
DA:108,0
DA:109,1
DA:110,1
DA:112,0
DA:114,0
DA:115,0
DA:116,0
DA:117,0
DA:118,0
DA:119,0
DA:120,0
DA:122,0
DA:123,0
DA:124,0
DA:125,0
DA:127,0
DA:129,0
DA:130,0
DA:131,0
DA:132,0
DA:133,0
DA:135,0
DA:136,0
end_of_record
SF:/usr/include/c++/11/bits/shared_ptr_base.h
FN:140,_ZNSt16_Sp_counted_baseILN9__gnu_cxx12_Lock_policyE2EE10_M_destroyEv
FNDA:0,_ZNSt16_Sp_counted_baseILN9__gnu_cxx12_Lock_policyE2EE10_M_destroyEv
FN:147,_ZNSt16_Sp_counted_baseILN9__gnu_cxx12_Lock_policyE2EE15_M_add_ref_copyEv
FNDA:2,_ZNSt16_Sp_counted_baseILN9__gnu_cxx12_Lock_policyE2EE15_M_add_ref_copyEv
FN:161,_ZNSt16_Sp_counted_baseILN9__gnu_cxx12_Lock_policyE2EE10_M_releaseEv
FNDA:2,_ZNSt16_Sp_counted_baseILN9__gnu_cxx12_Lock_policyE2EE10_M_releaseEv
FN:375,_ZNSt15_Sp_counted_ptrIDnLN9__gnu_cxx12_Lock_policyE2EE10_M_disposeEv
FNDA:0,_ZNSt15_Sp_counted_ptrIDnLN9__gnu_cxx12_Lock_policyE2EE10_M_disposeEv
FN:523,_ZNSt23_Sp_counted_ptr_inplaceIN7hare_mq14queue_consumerESaIS1_ELN9__gnu_cxx12_Lock_policyE2EED2Ev
FNDA:0,_ZNSt23_Sp_counted_ptr_inplaceIN7hare_mq14queue_consumerESaIS1_ELN9__gnu_cxx12_Lock_policyE2EED2Ev
FN:523,_ZNSt23_Sp_counted_ptr_inplaceIN7hare_mq14queue_consumerESaIS1_ELN9__gnu_cxx12_Lock_policyE2EED0Ev
FNDA:0,_ZNSt23_Sp_counted_ptr_inplaceIN7hare_mq14queue_consumerESaIS1_ELN9__gnu_cxx12_Lock_policyE2EED0Ev
FN:523,_ZNSt23_Sp_counted_ptr_inplaceIN7hare_mq8consumerESaIS1_ELN9__gnu_cxx12_Lock_policyE2EED2Ev
FNDA:0,_ZNSt23_Sp_counted_ptr_inplaceIN7hare_mq8consumerESaIS1_ELN9__gnu_cxx12_Lock_policyE2EED2Ev
FN:523,_ZNSt23_Sp_counted_ptr_inplaceIN7hare_mq8consumerESaIS1_ELN9__gnu_cxx12_Lock_policyE2EED0Ev
FNDA:0,_ZNSt23_Sp_counted_ptr_inplaceIN7hare_mq8consumerESaIS1_ELN9__gnu_cxx12_Lock_policyE2EED0Ev
FN:526,_ZNSt23_Sp_counted_ptr_inplaceIN7hare_mq14queue_consumerESaIS1_ELN9__gnu_cxx12_Lock_policyE2EE10_M_disposeEv
FNDA:7,_ZNSt23_Sp_counted_ptr_inplaceIN7hare_mq14queue_consumerESaIS1_ELN9__gnu_cxx12_Lock_policyE2EE10_M_disposeEv
FN:526,_ZNSt23_Sp_counted_ptr_inplaceIN7hare_mq8consumerESaIS1_ELN9__gnu_cxx12_Lock_policyE2EE10_M_disposeEv
FNDA:1,_ZNSt23_Sp_counted_ptr_inplaceIN7hare_mq8consumerESaIS1_ELN9__gnu_cxx12_Lock_policyE2EE10_M_disposeEv
FN:533,_ZNSt23_Sp_counted_ptr_inplaceIN7hare_mq14queue_consumerESaIS1_ELN9__gnu_cxx12_Lock_policyE2EE10_M_destroyEv
FNDA:7,_ZNSt23_Sp_counted_ptr_inplaceIN7hare_mq14queue_consumerESaIS1_ELN9__gnu_cxx12_Lock_policyE2EE10_M_destroyEv
FN:533,_ZNSt23_Sp_counted_ptr_inplaceIN7hare_mq8consumerESaIS1_ELN9__gnu_cxx12_Lock_policyE2EE10_M_destroyEv
FNDA:1,_ZNSt23_Sp_counted_ptr_inplaceIN7hare_mq8consumerESaIS1_ELN9__gnu_cxx12_Lock_policyE2EE10_M_destroyEv
FN:546,_ZNSt23_Sp_counted_ptr_inplaceIN7hare_mq14queue_consumerESaIS1_ELN9__gnu_cxx12_Lock_policyE2EE14_M_get_deleterERKSt9type_info
FNDA:0,_ZNSt23_Sp_counted_ptr_inplaceIN7hare_mq14queue_consumerESaIS1_ELN9__gnu_cxx12_Lock_policyE2EE14_M_get_deleterERKSt9type_info
FN:546,_ZNSt23_Sp_counted_ptr_inplaceIN7hare_mq8consumerESaIS1_ELN9__gnu_cxx12_Lock_policyE2EE14_M_get_deleterERKSt9type_info
FNDA:0,_ZNSt23_Sp_counted_ptr_inplaceIN7hare_mq8consumerESaIS1_ELN9__gnu_cxx12_Lock_policyE2EE14_M_get_deleterERKSt9type_info
FN:643,_ZNSt14__shared_countILN9__gnu_cxx12_Lock_policyE2EEC2IN7hare_mq14queue_consumerESaIS5_EJRKNSt7__cxx1112basic_stringIcSt11char_traitsIcESaIcEEEEEERPT_St20_Sp_alloc_shared_tagIT0_EDpOT1_
FNDA:7,_ZNSt14__shared_countILN9__gnu_cxx12_Lock_policyE2EEC2IN7hare_mq14queue_consumerESaIS5_EJRKNSt7__cxx1112basic_stringIcSt11char_traitsIcESaIcEEEEEERPT_St20_Sp_alloc_shared_tagIT0_EDpOT1_
FN:643,_ZNSt14__shared_countILN9__gnu_cxx12_Lock_policyE2EEC2IN7hare_mq8consumerESaIS5_EJRKNSt7__cxx1112basic_stringIcSt11char_traitsIcESaIcEEESE_RbRKSt8functionIFvSE_PKNS4_15BasicPropertiesESE_EEEEERPT_St20_Sp_alloc_shared_tagIT0_EDpOT1_
FNDA:1,_ZNSt14__shared_countILN9__gnu_cxx12_Lock_policyE2EEC2IN7hare_mq8consumerESaIS5_EJRKNSt7__cxx1112basic_stringIcSt11char_traitsIcESaIcEEESE_RbRKSt8functionIFvSE_PKNS4_15BasicPropertiesESE_EEEEERPT_St20_Sp_alloc_shared_tagIT0_EDpOT1_
FN:716,_ZNSt14__shared_countILN9__gnu_cxx12_Lock_policyE2EEaSERKS2_
FNDA:1,_ZNSt14__shared_countILN9__gnu_cxx12_Lock_policyE2EEaSERKS2_
FN:1248,_ZNSt12__shared_ptrIN7hare_mq8consumerELN9__gnu_cxx12_Lock_policyE2EEaSEOS4_
FNDA:0,_ZNSt12__shared_ptrIN7hare_mq8consumerELN9__gnu_cxx12_Lock_policyE2EEaSEOS4_
FN:1248,_ZNSt12__shared_ptrIN7hare_mq14queue_consumerELN9__gnu_cxx12_Lock_policyE2EEaSEOS4_
FNDA:7,_ZNSt12__shared_ptrIN7hare_mq14queue_consumerELN9__gnu_cxx12_Lock_policyE2EEaSEOS4_
DA:126,8
DA:127,8
DA:130,0
DA:140,0
DA:141,0
DA:147,2
DA:148,2
DA:161,2
DA:165,4
DA:168,1
DA:180,2
DA:184,1
DA:187,2
DA:375,0
DA:383,8
DA:385,8
DA:479,0
DA:481,0
DA:482,0
DA:497,8
DA:502,8
DA:514,8
DA:515,8
DA:519,8
DA:521,8
DA:523,0
DA:523,0
DA:523,0
DA:523,0
DA:523,8
DA:526,1
DA:528,1
DA:529,1
DA:526,7
DA:528,7
DA:529,7
DA:533,1
DA:535,1
DA:536,1
DA:537,1
DA:538,1
DA:533,7
DA:535,7
DA:536,7
DA:537,7
DA:538,7
DA:546,0
DA:548,0
DA:554,0
DA:556,0
DA:561,0
DA:546,0
DA:548,0
DA:554,0
DA:556,0
DA:561,0
DA:565,16
DA:587,15
DA:643,7
DA:647,7
DA:648,7
DA:649,7
DA:650,14
DA:651,7
DA:652,7
DA:653,7
DA:654,7
DA:655,7
DA:643,1
DA:647,1
DA:648,1
DA:649,1
DA:650,2
DA:651,1
DA:652,1
DA:653,1
DA:654,1
DA:655,1
DA:702,17
DA:704,16
DA:705,2
DA:708,1
DA:709,1
DA:711,1
DA:712,1
DA:716,1
DA:718,1
DA:719,1
DA:721,1
DA:722,1
DA:723,1
DA:724,0
DA:725,1
DA:727,1
DA:731,8
DA:733,8
DA:734,7
DA:735,1
DA:984,1
DA:987,1
DA:992,1
DA:993,1
DA:1092,7
DA:1093,7
DA:1152,2
DA:1153,1
DA:1154,12
DA:1161,8
DA:1162,8
DA:1164,1
DA:1165,0
DA:1248,0
DA:1250,0
DA:1251,0
DA:1248,7
DA:1250,14
DA:1251,7
DA:1295,1
DA:1296,1
DA:1314,7
DA:1316,7
DA:1317,7
DA:1341,8
DA:1342,8
DA:1343,8
DA:1386,8
end_of_record
SF:/usr/include/c++/11/iostream
end_of_record
SF:/usr/include/c++/11/ext/aligned_buffer.h
DA:102,9
DA:104,23
DA:110,1
DA:114,9
DA:115,39
end_of_record
SF:/usr/include/c++/11/utility
DA:188,1
DA:189,1
DA:233,1
DA:234,1
end_of_record
SF:/usr/include/c++/11/bits/basic_string.h
FN:237,_ZNSt7__cxx1112basic_stringIcSt11char_traitsIcESaIcEE10_M_disposeEv
FNDA:9,_ZNSt7__cxx1112basic_stringIcSt11char_traitsIcESaIcEE10_M_disposeEv
FN:354,_ZNSt7__cxx1112basic_stringIcSt11char_traitsIcESaIcEE7_S_copyEPcPKcm
FNDA:0,_ZNSt7__cxx1112basic_stringIcSt11char_traitsIcESaIcEE7_S_copyEPcPKcm
FN:456,_ZNSt7__cxx1112basic_stringIcSt11char_traitsIcESaIcEEC2ERKS4_
FNDA:0,_ZNSt7__cxx1112basic_stringIcSt11char_traitsIcESaIcEEC2ERKS4_
FN:6234,_ZSteqIcEN9__gnu_cxx11__enable_ifIXsrSt9__is_charIT_E7__valueEbE6__typeERKNSt7__cxx1112basic_stringIS3_St11char_traitsIS3_ESaIS3_EEESE_
FNDA:1,_ZSteqIcEN9__gnu_cxx11__enable_ifIXsrSt9__is_charIT_E7__valueEbE6__typeERKNSt7__cxx1112basic_stringIS3_St11char_traitsIS3_ESaIS3_EEESE_
DA:158,7
DA:167,0
DA:168,0
DA:186,0
DA:187,0
DA:190,0
DA:191,0
DA:194,25
DA:195,0
DA:198,0
DA:201,0
DA:208,9
DA:211,9
DA:218,0
DA:219,0
DA:222,0
DA:224,0
DA:225,0
DA:229,9
DA:230,9
DA:237,9
DA:239,9
DA:240,9
DA:241,9
DA:244,0
DA:245,0
DA:251,0
DA:255,0
DA:271,0
DA:274,0
DA:294,0
DA:295,0
DA:298,0
DA:299,0
DA:354,0
DA:356,0
DA:357,0
DA:359,0
DA:360,0
DA:400,0
DA:401,0
DA:456,0
DA:457,0
DA:458,0
DA:459,0
DA:671,7
DA:672,7
DA:920,1
DA:921,1
DA:926,15
DA:927,0
DA:2320,0
DA:2321,0
DA:2332,16
DA:2333,16
DA:6234,1
DA:6236,1
DA:6237,1
DA:6238,1
DA:6875,15
DA:6876,15
end_of_record
SF:/usr/include/c++/11/bits/vector.tcc
FN:171,_ZNSt6vectorISt10shared_ptrIN7hare_mq8consumerEESaIS3_EE8_M_eraseEN9__gnu_cxx17__normal_iteratorIPS3_S5_EE
FNDA:0,_ZNSt6vectorISt10shared_ptrIN7hare_mq8consumerEESaIS3_EE8_M_eraseEN9__gnu_cxx17__normal_iteratorIPS3_S5_EE
FN:426,_ZNSt6vectorISt10shared_ptrIN7hare_mq8consumerEESaIS3_EE17_M_realloc_insertIJRKS3_EEEvN9__gnu_cxx17__normal_iteratorIPS3_S5_EEDpOT_
FNDA:1,_ZNSt6vectorISt10shared_ptrIN7hare_mq8consumerEESaIS3_EE17_M_realloc_insertIJRKS3_EEEvN9__gnu_cxx17__normal_iteratorIPS3_S5_EEDpOT_
DA:171,0
DA:174,0
DA:175,0
DA:176,0
DA:177,0
DA:179,0
DA:426,1
DA:436,1
DA:437,1
DA:438,1
DA:439,1
DA:440,1
DA:441,1
DA:449,2
DA:450,1
DA:456,1
DA:461,1
DA:462,1
DA:464,1
DA:466,2
DA:467,1
DA:500,2
DA:501,1
DA:502,1
DA:503,1
DA:504,1
DA:505,1
end_of_record
SF:/home/eric/2025MQ/MQproject/2025MQWorkSpace/src/tools/muduo/_install/include/muduo/base/LogStream.h
FN:39,_ZN5muduo6detail11FixedBufferILi4000EE6appendEPKcm
FNDA:0,_ZN5muduo6detail11FixedBufferILi4000EE6appendEPKcm
FN:120,_ZN5muduo9LogStreamlsEPKc
FNDA:0,_ZN5muduo9LogStreamlsEPKc
DA:39,0
DA:42,0
DA:44,0
DA:45,0
DA:47,0
DA:54,0
DA:68,0
DA:120,0
DA:122,0
DA:124,0
DA:128,0
DA:130,0
DA:138,0
DA:140,0
DA:141,0
end_of_record
SF:/usr/include/c++/11/bits/stl_construct.h
FN:160,_ZNSt12_Destroy_auxILb0EE9__destroyIPSt10shared_ptrIN7hare_mq8consumerEEEEvT_S7_
FNDA:7,_ZNSt12_Destroy_auxILb0EE9__destroyIPSt10shared_ptrIN7hare_mq8consumerEEEEvT_S7_
DA:80,7
DA:88,1
DA:94,16
DA:97,17
DA:146,1
DA:149,1
DA:160,7
DA:162,8
DA:163,2
DA:164,7
DA:182,7
DA:196,7
end_of_record
SF:/usr/include/c++/11/bits/alloc_traits.h
DA:463,23
DA:464,16
DA:495,9
DA:496,9
DA:511,16
DA:518,25
DA:531,8
DA:537,0
DA:562,0
DA:563,0
DA:845,7
DA:848,7
end_of_record
SF:/usr/include/c++/11/ext/alloc_traits.h
DA:97,0
DA:98,0
end_of_record
SF:/usr/include/c++/11/new
DA:174,8
DA:175,8
end_of_record
SF:/usr/include/c++/11/tuple
DA:192,7
DA:193,7
DA:233,7
DA:424,7
DA:434,7
DA:435,7
DA:454,7
DA:456,7
DA:727,7
DA:729,7
DA:756,7
DA:1377,7
DA:1378,7
DA:1393,7
DA:1394,7
DA:1804,7
DA:1809,7
DA:1816,7
DA:1819,7
DA:1820,7
end_of_record
SF:/usr/include/c++/11/bits/unique_lock.h
FN:131,_ZNSt11unique_lockISt5mutexE4lockEv
FNDA:9,_ZNSt11unique_lockISt5mutexE4lockEv
FN:189,_ZNSt11unique_lockISt5mutexE6unlockEv
FNDA:9,_ZNSt11unique_lockISt5mutexE6unlockEv
DA:66,9
DA:67,9
DA:69,9
DA:70,9
DA:101,9
DA:104,9
DA:131,9
DA:133,9
DA:134,0
DA:135,9
DA:136,0
DA:139,9
DA:140,9
DA:142,9
DA:189,9
DA:191,9
DA:192,0
DA:193,9
DA:195,9
DA:196,9
DA:198,9
end_of_record
SF:/home/eric/2025MQ/MQproject/2025MQWorkSpace/src/server/consumer.hpp
DA:34,7
end_of_record
SF:/usr/include/c++/11/bits/allocated_ptr.h
FN:71,_ZNSt15__allocated_ptrISaISt23_Sp_counted_ptr_inplaceIN7hare_mq14queue_consumerESaIS2_ELN9__gnu_cxx12_Lock_policyE2EEEED2Ev
FNDA:14,_ZNSt15__allocated_ptrISaISt23_Sp_counted_ptr_inplaceIN7hare_mq14queue_consumerESaIS2_ELN9__gnu_cxx12_Lock_policyE2EEEED2Ev
FN:71,_ZNSt15__allocated_ptrISaISt23_Sp_counted_ptr_inplaceIN7hare_mq8consumerESaIS2_ELN9__gnu_cxx12_Lock_policyE2EEEED2Ev
FNDA:2,_ZNSt15__allocated_ptrISaISt23_Sp_counted_ptr_inplaceIN7hare_mq8consumerESaIS2_ELN9__gnu_cxx12_Lock_policyE2EEEED2Ev
DA:53,8
DA:54,16
DA:71,14
DA:73,14
DA:74,7
DA:75,14
DA:71,2
DA:73,2
DA:74,1
DA:75,2
DA:79,8
DA:81,8
DA:86,8
DA:96,8
DA:98,8
end_of_record
SF:/usr/include/c++/11/bits/hashtable.h
FN:308,_ZNSt10_HashtableINSt7__cxx1112basic_stringIcSt11char_traitsIcESaIcEEESt4pairIKS5_St10shared_ptrIN7hare_mq14queue_consumerEEESaISC_ENSt8__detail10_Select1stESt8equal_toIS5_ESt4hashIS5_ENSE_18_Mod_range_hashingENSE_20_Default_ranged_hashENSE_20_Prime_rehash_policyENSE_17_Hashtable_traitsILb1ELb0ELb1EEEE12_Scoped_nodeD2Ev
FNDA:7,_ZNSt10_HashtableINSt7__cxx1112basic_stringIcSt11char_traitsIcESaIcEEESt4pairIKS5_St10shared_ptrIN7hare_mq14queue_consumerEEESaISC_ENSt8__detail10_Select1stESt8equal_toIS5_ESt4hashIS5_ENSE_18_Mod_range_hashingENSE_20_Default_ranged_hashENSE_20_Prime_rehash_policyENSE_17_Hashtable_traitsILb1ELb0ELb1EEEE12_Scoped_nodeD2Ev
FN:453,_ZNSt10_HashtableINSt7__cxx1112basic_stringIcSt11char_traitsIcESaIcEEESt4pairIKS5_St10shared_ptrIN7hare_mq14queue_consumerEEESaISC_ENSt8__detail10_Select1stESt8equal_toIS5_ESt4hashIS5_ENSE_18_Mod_range_hashingENSE_20_Default_ranged_hashENSE_20_Prime_rehash_policyENSE_17_Hashtable_traitsILb1ELb0ELb1EEEE21_M_deallocate_bucketsEv
FNDA:7,_ZNSt10_HashtableINSt7__cxx1112basic_stringIcSt11char_traitsIcESaIcEEESt4pairIKS5_St10shared_ptrIN7hare_mq14queue_consumerEEESaISC_ENSt8__detail10_Select1stESt8equal_toIS5_ESt4hashIS5_ENSE_18_Mod_range_hashingENSE_20_Default_ranged_hashENSE_20_Prime_rehash_policyENSE_17_Hashtable_traitsILb1ELb0ELb1EEEE21_M_deallocate_bucketsEv
FN:1588,_ZNSt10_HashtableINSt7__cxx1112basic_stringIcSt11char_traitsIcESaIcEEESt4pairIKS5_St10shared_ptrIN7hare_mq14queue_consumerEEESaISC_ENSt8__detail10_Select1stESt8equal_toIS5_ESt4hashIS5_ENSE_18_Mod_range_hashingENSE_20_Default_ranged_hashENSE_20_Prime_rehash_policyENSE_17_Hashtable_traitsILb1ELb0ELb1EEEE4findERS7_
FNDA:8,_ZNSt10_HashtableINSt7__cxx1112basic_stringIcSt11char_traitsIcESaIcEEESt4pairIKS5_St10shared_ptrIN7hare_mq14queue_consumerEEESaISC_ENSt8__detail10_Select1stESt8equal_toIS5_ESt4hashIS5_ENSE_18_Mod_range_hashingENSE_20_Default_ranged_hashENSE_20_Prime_rehash_policyENSE_17_Hashtable_traitsILb1ELb0ELb1EEEE4findERS7_
FN:1827,_ZNKSt10_HashtableINSt7__cxx1112basic_stringIcSt11char_traitsIcESaIcEEESt4pairIKS5_St10shared_ptrIN7hare_mq14queue_consumerEEESaISC_ENSt8__detail10_Select1stESt8equal_toIS5_ESt4hashIS5_ENSE_18_Mod_range_hashingENSE_20_Default_ranged_hashENSE_20_Prime_rehash_policyENSE_17_Hashtable_traitsILb1ELb0ELb1EEEE19_M_find_before_nodeEmRS7_m
FNDA:15,_ZNKSt10_HashtableINSt7__cxx1112basic_stringIcSt11char_traitsIcESaIcEEESt4pairIKS5_St10shared_ptrIN7hare_mq14queue_consumerEEESaISC_ENSt8__detail10_Select1stESt8equal_toIS5_ESt4hashIS5_ENSE_18_Mod_range_hashingENSE_20_Default_ranged_hashENSE_20_Prime_rehash_policyENSE_17_Hashtable_traitsILb1ELb0ELb1EEEE19_M_find_before_nodeEmRS7_m
FN:1886,_ZNSt10_HashtableINSt7__cxx1112basic_stringIcSt11char_traitsIcESaIcEEESt4pairIKS5_St10shared_ptrIN7hare_mq14queue_consumerEEESaISC_ENSt8__detail10_Select1stESt8equal_toIS5_ESt4hashIS5_ENSE_18_Mod_range_hashingENSE_20_Default_ranged_hashENSE_20_Prime_rehash_policyENSE_17_Hashtable_traitsILb1ELb0ELb1EEEE22_M_insert_bucket_beginEmPNSE_10_Hash_nodeISC_Lb1EEE
FNDA:7,_ZNSt10_HashtableINSt7__cxx1112basic_stringIcSt11char_traitsIcESaIcEEESt4pairIKS5_St10shared_ptrIN7hare_mq14queue_consumerEEESaISC_ENSt8__detail10_Select1stESt8equal_toIS5_ESt4hashIS5_ENSE_18_Mod_range_hashingENSE_20_Default_ranged_hashENSE_20_Prime_rehash_policyENSE_17_Hashtable_traitsILb1ELb0ELb1EEEE22_M_insert_bucket_beginEmPNSE_10_Hash_nodeISC_Lb1EEE
FN:1919,_ZNSt10_HashtableINSt7__cxx1112basic_stringIcSt11char_traitsIcESaIcEEESt4pairIKS5_St10shared_ptrIN7hare_mq14queue_consumerEEESaISC_ENSt8__detail10_Select1stESt8equal_toIS5_ESt4hashIS5_ENSE_18_Mod_range_hashingENSE_20_Default_ranged_hashENSE_20_Prime_rehash_policyENSE_17_Hashtable_traitsILb1ELb0ELb1EEEE22_M_remove_bucket_beginEmPNSE_10_Hash_nodeISC_Lb1EEEm
FNDA:0,_ZNSt10_HashtableINSt7__cxx1112basic_stringIcSt11char_traitsIcESaIcEEESt4pairIKS5_St10shared_ptrIN7hare_mq14queue_consumerEEESaISC_ENSt8__detail10_Select1stESt8equal_toIS5_ESt4hashIS5_ENSE_18_Mod_range_hashingENSE_20_Default_ranged_hashENSE_20_Prime_rehash_policyENSE_17_Hashtable_traitsILb1ELb0ELb1EEEE22_M_remove_bucket_beginEmPNSE_10_Hash_nodeISC_Lb1EEEm
FN:2008,_ZNSt10_HashtableINSt7__cxx1112basic_stringIcSt11char_traitsIcESaIcEEESt4pairIKS5_St10shared_ptrIN7hare_mq14queue_consumerEEESaISC_ENSt8__detail10_Select1stESt8equal_toIS5_ESt4hashIS5_ENSE_18_Mod_range_hashingENSE_20_Default_ranged_hashENSE_20_Prime_rehash_policyENSE_17_Hashtable_traitsILb1ELb0ELb1EEEE21_M_insert_unique_nodeEmmPNSE_10_Hash_nodeISC_Lb1EEEm
FNDA:7,_ZNSt10_HashtableINSt7__cxx1112basic_stringIcSt11char_traitsIcESaIcEEESt4pairIKS5_St10shared_ptrIN7hare_mq14queue_consumerEEESaISC_ENSt8__detail10_Select1stESt8equal_toIS5_ESt4hashIS5_ENSE_18_Mod_range_hashingENSE_20_Default_ranged_hashENSE_20_Prime_rehash_policyENSE_17_Hashtable_traitsILb1ELb0ELb1EEEE21_M_insert_unique_nodeEmmPNSE_10_Hash_nodeISC_Lb1EEEm
FN:2166,_ZNSt10_HashtableINSt7__cxx1112basic_stringIcSt11char_traitsIcESaIcEEESt4pairIKS5_St10shared_ptrIN7hare_mq14queue_consumerEEESaISC_ENSt8__detail10_Select1stESt8equal_toIS5_ESt4hashIS5_ENSE_18_Mod_range_hashingENSE_20_Default_ranged_hashENSE_20_Prime_rehash_policyENSE_17_Hashtable_traitsILb1ELb0ELb1EEEE8_M_eraseEmPNSE_15_Hash_node_baseEPNSE_10_Hash_nodeISC_Lb1EEE
FNDA:0,_ZNSt10_HashtableINSt7__cxx1112basic_stringIcSt11char_traitsIcESaIcEEESt4pairIKS5_St10shared_ptrIN7hare_mq14queue_consumerEEESaISC_ENSt8__detail10_Select1stESt8equal_toIS5_ESt4hashIS5_ENSE_18_Mod_range_hashingENSE_20_Default_ranged_hashENSE_20_Prime_rehash_policyENSE_17_Hashtable_traitsILb1ELb0ELb1EEEE8_M_eraseEmPNSE_15_Hash_node_baseEPNSE_10_Hash_nodeISC_Lb1EEE
FN:2194,_ZNSt10_HashtableINSt7__cxx1112basic_stringIcSt11char_traitsIcESaIcEEESt4pairIKS5_St10shared_ptrIN7hare_mq14queue_consumerEEESaISC_ENSt8__detail10_Select1stESt8equal_toIS5_ESt4hashIS5_ENSE_18_Mod_range_hashingENSE_20_Default_ranged_hashENSE_20_Prime_rehash_policyENSE_17_Hashtable_traitsILb1ELb0ELb1EEEE8_M_eraseESt17integral_constantIbLb1EERS7_
FNDA:0,_ZNSt10_HashtableINSt7__cxx1112basic_stringIcSt11char_traitsIcESaIcEEESt4pairIKS5_St10shared_ptrIN7hare_mq14queue_consumerEEESaISC_ENSt8__detail10_Select1stESt8equal_toIS5_ESt4hashIS5_ENSE_18_Mod_range_hashingENSE_20_Default_ranged_hashENSE_20_Prime_rehash_policyENSE_17_Hashtable_traitsILb1ELb0ELb1EEEE8_M_eraseESt17integral_constantIbLb1EERS7_
FN:2355,_ZNSt10_HashtableINSt7__cxx1112basic_stringIcSt11char_traitsIcESaIcEEESt4pairIKS5_St10shared_ptrIN7hare_mq14queue_consumerEEESaISC_ENSt8__detail10_Select1stESt8equal_toIS5_ESt4hashIS5_ENSE_18_Mod_range_hashingENSE_20_Default_ranged_hashENSE_20_Prime_rehash_policyENSE_17_Hashtable_traitsILb1ELb0ELb1EEEE9_M_rehashEmRKm
FNDA:7,_ZNSt10_HashtableINSt7__cxx1112basic_stringIcSt11char_traitsIcESaIcEEESt4pairIKS5_St10shared_ptrIN7hare_mq14queue_consumerEEESaISC_ENSt8__detail10_Select1stESt8equal_toIS5_ESt4hashIS5_ENSE_18_Mod_range_hashingENSE_20_Default_ranged_hashENSE_20_Prime_rehash_policyENSE_17_Hashtable_traitsILb1ELb0ELb1EEEE9_M_rehashEmRKm
FN:2378,_ZNSt10_HashtableINSt7__cxx1112basic_stringIcSt11char_traitsIcESaIcEEESt4pairIKS5_St10shared_ptrIN7hare_mq14queue_consumerEEESaISC_ENSt8__detail10_Select1stESt8equal_toIS5_ESt4hashIS5_ENSE_18_Mod_range_hashingENSE_20_Default_ranged_hashENSE_20_Prime_rehash_policyENSE_17_Hashtable_traitsILb1ELb0ELb1EEEE13_M_rehash_auxEmSt17integral_constantIbLb1EE
FNDA:7,_ZNSt10_HashtableINSt7__cxx1112basic_stringIcSt11char_traitsIcESaIcEEESt4pairIKS5_St10shared_ptrIN7hare_mq14queue_consumerEEESaISC_ENSt8__detail10_Select1stESt8equal_toIS5_ESt4hashIS5_ENSE_18_Mod_range_hashingENSE_20_Default_ranged_hashENSE_20_Prime_rehash_policyENSE_17_Hashtable_traitsILb1ELb0ELb1EEEE13_M_rehash_auxEmSt17integral_constantIbLb1EE
DA:302,7
DA:303,7
DA:304,7
DA:308,7
DA:421,7
DA:422,7
DA:432,7
DA:434,7
DA:436,0
DA:437,0
DA:440,7
DA:444,7
DA:446,7
DA:449,7
DA:453,7
DA:454,7
DA:462,7
DA:463,7
DA:629,8
DA:630,8
DA:790,0
DA:791,0
DA:794,22
DA:795,14
DA:807,15
DA:810,15
DA:811,7
DA:812,1
DA:937,0
DA:938,0
DA:1588,8
DA:1593,8
DA:1594,8
DA:1595,8
DA:1827,15
DA:1833,15
DA:1834,15
DA:1837,1
DA:1840,1
DA:1841,1
DA:1843,0
DA:1886,7
DA:1890,7
DA:1894,0
DA:1895,0
DA:1902,7
DA:1903,7
DA:1905,7
DA:1908,0
DA:1910,7
DA:1912,7
DA:1919,0
DA:1924,0
DA:1928,0
DA:1929,0
DA:1932,0
DA:1933,0
DA:1934,0
DA:1936,0
DA:2008,7
DA:2014,7
DA:2016,7
DA:2019,7
DA:2021,7
DA:2022,7
DA:2025,7
DA:2028,7
DA:2029,7
DA:2030,7
DA:2166,0
DA:2171,0
DA:2172,0
DA:2173,0
DA:2174,0
DA:2176,0
DA:2177,0
DA:2178,0
DA:2181,0
DA:2182,0
DA:2183,0
DA:2184,0
DA:2186,0
DA:2194,0
DA:2199,0
DA:2200,0
DA:2203,0
DA:2204,0
DA:2208,0
DA:2209,0
DA:2210,0
DA:2355,7
DA:2361,7
DA:2363,0
DA:2367,0
DA:2368,0
DA:2370,7
DA:2378,7
DA:2382,7
DA:2383,7
DA:2384,7
DA:2385,7
DA:2386,7
DA:2388,0
DA:2390,0
DA:2391,0
DA:2393,0
DA:2394,0
DA:2395,0
DA:2396,0
DA:2397,0
DA:2402,0
DA:2403,0
DA:2409,7
DA:2410,7
DA:2411,7
DA:2412,7
end_of_record
SF:/usr/include/x86_64-linux-gnu/bits/string_fortified.h
DA:26,0
DA:29,0
end_of_record
SF:/home/eric/2025MQ/MQproject/2025MQWorkSpace/src/tools/muduo/_install/include/muduo/base/Logging.h
FN:36,_ZN5muduo6Logger10SourceFileC2ILi24EEERAT__Kc
FNDA:0,_ZN5muduo6Logger10SourceFileC2ILi24EEERAT__Kc
DA:36,0
DA:37,0
DA:38,0
DA:40,0
DA:41,0
DA:43,0
DA:44,0
DA:46,0
DA:69,0
end_of_record
SF:/usr/include/c++/11/bits/allocator.h
DA:156,8
DA:159,8
DA:160,8
DA:169,23
DA:174,32
DA:179,23
DA:185,23
DA:190,9
DA:199,9
end_of_record
SF:/usr/include/c++/11/bits/stl_iterator_base_funcs.h
DA:98,0
DA:104,0
DA:138,0
DA:141,0
end_of_record
SF:/usr/include/c++/11/bits/stl_function.h
DA:369,1
DA:370,1
end_of_record
SF:/usr/include/c++/11/bits/stl_pair.h
end_of_record
SF:/usr/include/c++/11/ext/atomicity.h
DA:47,5
DA:52,5
DA:65,3
DA:66,3
DA:70,2
DA:71,2
DA:82,0
DA:84,0
DA:85,0
DA:86,0
DA:91,0
DA:92,0
DA:96,3
DA:98,3
DA:99,0
DA:101,3
DA:106,2
DA:108,2
DA:109,0
DA:111,2
end_of_record
SF:/usr/include/c++/11/bits/shared_ptr.h
FN:408,_ZNSt10shared_ptrIN7hare_mq14queue_consumerEEC2ISaIS1_EJRKNSt7__cxx1112basic_stringIcSt11char_traitsIcESaIcEEEEEESt20_Sp_alloc_shared_tagIT_EDpOT0_
FNDA:7,_ZNSt10shared_ptrIN7hare_mq14queue_consumerEEC2ISaIS1_EJRKNSt7__cxx1112basic_stringIcSt11char_traitsIcESaIcEEEEEESt20_Sp_alloc_shared_tagIT_EDpOT0_
FN:408,_ZNSt10shared_ptrIN7hare_mq8consumerEEC2ISaIS1_EJRKNSt7__cxx1112basic_stringIcSt11char_traitsIcESaIcEEESC_RbRKSt8functionIFvSC_PKNS0_15BasicPropertiesESC_EEEEESt20_Sp_alloc_shared_tagIT_EDpOT0_
FNDA:1,_ZNSt10shared_ptrIN7hare_mq8consumerEEC2ISaIS1_EJRKNSt7__cxx1112basic_stringIcSt11char_traitsIcESaIcEEESC_RbRKSt8functionIFvSC_PKNS0_15BasicPropertiesESC_EEEEESt20_Sp_alloc_shared_tagIT_EDpOT0_
DA:122,12
DA:148,7
DA:150,2
DA:304,1
DA:305,1
DA:359,1
DA:383,7
DA:385,7
DA:408,7
DA:409,7
DA:410,7
DA:408,1
DA:409,1
DA:410,1
DA:858,8
DA:863,8
DA:875,8
DA:878,8
DA:879,8
end_of_record
SF:/usr/include/string.h
DA:266,0
DA:268,0
end_of_record
SF:/usr/include/c++/11/bits/functional_hash.h
DA:196,15
DA:198,15
end_of_record
SF:/usr/include/c++/11/bits/std_mutex.h
FN:98,_ZNSt5mutex4lockEv
FNDA:9,_ZNSt5mutex4lockEv
DA:65,7
DA:91,7
DA:98,9
DA:100,9
DA:103,9
DA:104,0
DA:105,9
DA:115,9
DA:118,9
end_of_record
SF:/usr/include/c++/11/ext/new_allocator.h
FN:103,_ZN9__gnu_cxx13new_allocatorIPNSt8__detail15_Hash_node_baseEE8allocateEmPKv
FNDA:7,_ZN9__gnu_cxx13new_allocatorIPNSt8__detail15_Hash_node_baseEE8allocateEmPKv
FN:103,_ZN9__gnu_cxx13new_allocatorISt23_Sp_counted_ptr_inplaceIN7hare_mq14queue_consumerESaIS3_ELNS_12_Lock_policyE2EEE8allocateEmPKv
FNDA:7,_ZN9__gnu_cxx13new_allocatorISt23_Sp_counted_ptr_inplaceIN7hare_mq14queue_consumerESaIS3_ELNS_12_Lock_policyE2EEE8allocateEmPKv
FN:103,_ZN9__gnu_cxx13new_allocatorISt23_Sp_counted_ptr_inplaceIN7hare_mq8consumerESaIS3_ELNS_12_Lock_policyE2EEE8allocateEmPKv
FNDA:1,_ZN9__gnu_cxx13new_allocatorISt23_Sp_counted_ptr_inplaceIN7hare_mq8consumerESaIS3_ELNS_12_Lock_policyE2EEE8allocateEmPKv
FN:103,_ZN9__gnu_cxx13new_allocatorINSt8__detail10_Hash_nodeISt4pairIKNSt7__cxx1112basic_stringIcSt11char_traitsIcESaIcEEESt10shared_ptrIN7hare_mq14queue_consumerEEELb1EEEE8allocateEmPKv
FNDA:7,_ZN9__gnu_cxx13new_allocatorINSt8__detail10_Hash_nodeISt4pairIKNSt7__cxx1112basic_stringIcSt11char_traitsIcESaIcEEESt10shared_ptrIN7hare_mq14queue_consumerEEELb1EEEE8allocateEmPKv
FN:103,_ZN9__gnu_cxx13new_allocatorISt10shared_ptrIN7hare_mq8consumerEEE8allocateEmPKv
FNDA:1,_ZN9__gnu_cxx13new_allocatorISt10shared_ptrIN7hare_mq8consumerEEE8allocateEmPKv
FN:103,_ZN9__gnu_cxx13new_allocatorIcE8allocateEmPKv
FNDA:0,_ZN9__gnu_cxx13new_allocatorIcE8allocateEmPKv
FN:132,_ZN9__gnu_cxx13new_allocatorIPNSt8__detail15_Hash_node_baseEE10deallocateEPS3_m
FNDA:0,_ZN9__gnu_cxx13new_allocatorIPNSt8__detail15_Hash_node_baseEE10deallocateEPS3_m
FN:132,_ZN9__gnu_cxx13new_allocatorISt23_Sp_counted_ptr_inplaceIN7hare_mq14queue_consumerESaIS3_ELNS_12_Lock_policyE2EEE10deallocateEPS6_m
FNDA:7,_ZN9__gnu_cxx13new_allocatorISt23_Sp_counted_ptr_inplaceIN7hare_mq14queue_consumerESaIS3_ELNS_12_Lock_policyE2EEE10deallocateEPS6_m
FN:132,_ZN9__gnu_cxx13new_allocatorISt23_Sp_counted_ptr_inplaceIN7hare_mq8consumerESaIS3_ELNS_12_Lock_policyE2EEE10deallocateEPS6_m
FNDA:1,_ZN9__gnu_cxx13new_allocatorISt23_Sp_counted_ptr_inplaceIN7hare_mq8consumerESaIS3_ELNS_12_Lock_policyE2EEE10deallocateEPS6_m
FN:132,_ZN9__gnu_cxx13new_allocatorINSt8__detail10_Hash_nodeISt4pairIKNSt7__cxx1112basic_stringIcSt11char_traitsIcESaIcEEESt10shared_ptrIN7hare_mq14queue_consumerEEELb1EEEE10deallocateEPSG_m
FNDA:0,_ZN9__gnu_cxx13new_allocatorINSt8__detail10_Hash_nodeISt4pairIKNSt7__cxx1112basic_stringIcSt11char_traitsIcESaIcEEESt10shared_ptrIN7hare_mq14queue_consumerEEELb1EEEE10deallocateEPSG_m
FN:132,_ZN9__gnu_cxx13new_allocatorISt10shared_ptrIN7hare_mq8consumerEEE10deallocateEPS4_m
FNDA:1,_ZN9__gnu_cxx13new_allocatorISt10shared_ptrIN7hare_mq8consumerEEE10deallocateEPS4_m
FN:132,_ZN9__gnu_cxx13new_allocatorIcE10deallocateEPcm
FNDA:0,_ZN9__gnu_cxx13new_allocatorIcE10deallocateEPcm
DA:79,31
DA:82,8
DA:103,7
DA:111,7
DA:115,0
DA:116,0
DA:117,0
DA:127,7
DA:103,7
DA:111,7
DA:115,0
DA:116,0
DA:117,0
DA:127,7
DA:103,1
DA:111,1
DA:115,0
DA:116,0
DA:117,0
DA:127,1
DA:103,7
DA:111,7
DA:115,0
DA:116,0
DA:117,0
DA:127,7
DA:103,1
DA:111,1
DA:115,0
DA:116,0
DA:117,0
DA:127,1
DA:103,0
DA:111,0
DA:117,0
DA:127,0
DA:132,0
DA:145,0
DA:132,7
DA:145,7
DA:132,1
DA:145,1
DA:132,0
DA:145,0
DA:132,1
DA:145,1
DA:132,0
DA:145,0
end_of_record
SF:/usr/include/c++/11/bits/std_function.h
FN:241,_ZNSt14_Function_baseD2Ev
FNDA:1,_ZNSt14_Function_baseD2Ev
FN:386,_ZNSt8functionIFvRKNSt7__cxx1112basic_stringIcSt11char_traitsIcESaIcEEEPKN7hare_mq15BasicPropertiesES7_EEC2ERKSD_
FNDA:1,_ZNSt8functionIFvRKNSt7__cxx1112basic_stringIcSt11char_traitsIcESaIcEEEPKN7hare_mq15BasicPropertiesES7_EEC2ERKSD_
DA:239,1
DA:241,1
DA:243,1
DA:244,1
DA:245,1
DA:247,1
DA:386,1
DA:387,1
DA:389,1
DA:391,1
DA:392,1
DA:393,1
DA:395,1
DA:572,1
DA:573,1
end_of_record
SF:/usr/include/c++/11/bits/move.h
DA:49,25
DA:77,30
DA:104,1
DA:196,7
DA:204,7
DA:206,7
end_of_record
SF:/usr/include/c++/11/bits/stl_uninitialized.h
DA:986,0
DA:994,0
DA:995,0
DA:1031,2
DA:1032,0
end_of_record
SF:/usr/include/c++/11/bits/hashtable_policy.h
FN:696,_ZNSt8__detail9_Map_baseINSt7__cxx1112basic_stringIcSt11char_traitsIcESaIcEEESt4pairIKS6_St10shared_ptrIN7hare_mq14queue_consumerEEESaISD_ENS_10_Select1stESt8equal_toIS6_ESt4hashIS6_ENS_18_Mod_range_hashingENS_20_Default_ranged_hashENS_20_Prime_rehash_policyENS_17_Hashtable_traitsILb1ELb0ELb1EEELb1EEixERS8_
FNDA:7,_ZNSt8__detail9_Map_baseINSt7__cxx1112basic_stringIcSt11char_traitsIcESaIcEEESt4pairIKS6_St10shared_ptrIN7hare_mq14queue_consumerEEESaISD_ENS_10_Select1stESt8equal_toIS6_ESt4hashIS6_ENS_18_Mod_range_hashingENS_20_Default_ranged_hashENS_20_Prime_rehash_policyENS_17_Hashtable_traitsILb1ELb0ELb1EEELb1EEixERS8_
FN:1870,_ZNSt8__detail16_Hashtable_allocISaINS_10_Hash_nodeISt4pairIKNSt7__cxx1112basic_stringIcSt11char_traitsIcESaIcEEESt10shared_ptrIN7hare_mq14queue_consumerEEELb1EEEEE16_M_allocate_nodeIJRKSt21piecewise_construct_tSt5tupleIJRS9_EESM_IJEEEEEPSF_DpOT_
FNDA:7,_ZNSt8__detail16_Hashtable_allocISaINS_10_Hash_nodeISt4pairIKNSt7__cxx1112basic_stringIcSt11char_traitsIcESaIcEEESt10shared_ptrIN7hare_mq14queue_consumerEEELb1EEEEE16_M_allocate_nodeIJRKSt21piecewise_construct_tSt5tupleIJRS9_EESM_IJEEEEEPSF_DpOT_
FN:1892,_ZNSt8__detail16_Hashtable_allocISaINS_10_Hash_nodeISt4pairIKNSt7__cxx1112basic_stringIcSt11char_traitsIcESaIcEEESt10shared_ptrIN7hare_mq14queue_consumerEEELb1EEEEE18_M_deallocate_nodeEPSF_
FNDA:0,_ZNSt8__detail16_Hashtable_allocISaINS_10_Hash_nodeISt4pairIKNSt7__cxx1112basic_stringIcSt11char_traitsIcESaIcEEESt10shared_ptrIN7hare_mq14queue_consumerEEELb1EEEEE18_M_deallocate_nodeEPSF_
FN:1922,_ZNSt8__detail16_Hashtable_allocISaINS_10_Hash_nodeISt4pairIKNSt7__cxx1112basic_stringIcSt11char_traitsIcESaIcEEESt10shared_ptrIN7hare_mq14queue_consumerEEELb1EEEEE19_M_allocate_bucketsEm
FNDA:7,_ZNSt8__detail16_Hashtable_allocISaINS_10_Hash_nodeISt4pairIKNSt7__cxx1112basic_stringIcSt11char_traitsIcESaIcEEESt10shared_ptrIN7hare_mq14queue_consumerEEELb1EEEEE19_M_allocate_bucketsEm
DA:93,1
DA:95,1
DA:219,7
DA:237,0
DA:238,15
DA:242,1
DA:246,0
DA:277,7
DA:282,0
DA:283,0
DA:295,23
DA:296,0
DA:338,23
DA:339,8
DA:346,7
DA:347,1
DA:428,22
DA:430,22
DA:473,7
DA:474,7
DA:481,0
DA:482,0
DA:696,7
DA:701,7
DA:702,7
DA:703,7
DA:704,0
DA:705,0
DA:707,7
DA:710,7
DA:711,7
DA:714,7
DA:715,7
DA:716,7
DA:717,7
DA:1215,15
DA:1219,15
DA:1232,22
DA:1233,22
DA:1247,0
DA:1251,0
DA:1263,7
DA:1264,7
DA:1595,1
DA:1596,1
DA:1611,1
DA:1617,1
DA:1870,7
DA:1873,7
DA:1874,7
DA:1877,7
DA:1878,7
DA:1881,7
DA:1883,0
DA:1885,0
DA:1886,0
DA:1892,0
DA:1894,0
DA:1895,0
DA:1896,0
DA:1900,0
DA:1903,0
DA:1904,0
DA:1905,0
DA:1922,7
DA:1925,7
DA:1927,7
DA:1928,7
DA:1929,7
DA:1930,7
DA:1935,0
DA:1940,0
DA:1941,0
DA:1942,0
DA:1943,0
end_of_record
SF:/usr/include/c++/11/bits/stl_vector.h
FN:333,_ZNSt12_Vector_baseISt10shared_ptrIN7hare_mq8consumerEESaIS3_EED2Ev
FNDA:7,_ZNSt12_Vector_baseISt10shared_ptrIN7hare_mq8consumerEESaIS3_EED2Ev
FN:678,_ZNSt6vectorISt10shared_ptrIN7hare_mq8consumerEESaIS3_EED2Ev
FNDA:7,_ZNSt6vectorISt10shared_ptrIN7hare_mq8consumerEESaIS3_EED2Ev
FN:1187,_ZNSt6vectorISt10shared_ptrIN7hare_mq8consumerEESaIS3_EE9push_backERKS3_
FNDA:1,_ZNSt6vectorISt10shared_ptrIN7hare_mq8consumerEESaIS3_EE9push_backERKS3_
FN:1498,_ZNSt6vectorISt10shared_ptrIN7hare_mq8consumerEESaIS3_EE5clearEv
FNDA:0,_ZNSt6vectorISt10shared_ptrIN7hare_mq8consumerEESaIS3_EE5clearEv
FN:1756,_ZNKSt6vectorISt10shared_ptrIN7hare_mq8consumerEESaIS3_EE12_M_check_lenEmPKc
FNDA:1,_ZNKSt6vectorISt10shared_ptrIN7hare_mq8consumerEESaIS3_EE12_M_check_lenEmPKc
DA:97,7
DA:98,7
DA:128,7
DA:131,7
DA:133,7
DA:276,8
DA:277,1
DA:288,7
DA:333,7
DA:335,14
DA:336,7
DA:337,7
DA:343,1
DA:346,1
DA:350,8
DA:353,8
DA:354,1
DA:465,2
DA:487,7
DA:678,7
DA:680,14
DA:681,7
DA:683,7
DA:811,2
DA:812,2
DA:820,0
DA:821,0
DA:829,2
DA:830,2
DA:838,0
DA:839,0
DA:884,0
DA:885,0
DA:918,1
DA:919,0
DA:924,1
DA:1007,0
DA:1008,0
DA:1043,0
DA:1046,0
DA:1187,1
DA:1189,1
DA:1192,0
DA:1194,0
DA:1198,1
DA:1199,1
DA:1430,0
DA:1431,0
DA:1498,0
DA:1499,0
DA:1756,1
DA:1758,1
DA:1759,0
DA:1761,1
DA:1762,1
DA:1792,0
DA:1794,0
DA:1796,0
DA:1797,0
DA:1798,0
end_of_record
SF:/usr/include/x86_64-linux-gnu/c++/11/bits/gthr-default.h
DA:746,9
DA:748,9
DA:749,9
DA:776,9
DA:778,9
DA:779,9
end_of_record
SF:/usr/include/c++/11/bits/char_traits.h
DA:356,0
DA:357,0
DA:372,1
DA:374,1
DA:377,1
DA:389,1
DA:429,0
DA:431,0
DA:434,0
DA:437,0
end_of_record
SF:/home/eric/2025MQ/MQproject/2025MQWorkSpace/src/tools/muduo/_install/include/muduo/base/Types.h
DA:80,0
DA:82,0
end_of_record
SF:/usr/include/c++/11/bits/basic_string.tcc
FN:132,_ZNSt7__cxx1112basic_stringIcSt11char_traitsIcESaIcEE9_M_createERmm
FNDA:0,_ZNSt7__cxx1112basic_stringIcSt11char_traitsIcESaIcEE9_M_createERmm
FN:206,_ZNSt7__cxx1112basic_stringIcSt11char_traitsIcESaIcEE12_M_constructIPcEEvT_S7_St20forward_iterator_tag
FNDA:0,_ZNSt7__cxx1112basic_stringIcSt11char_traitsIcESaIcEE12_M_constructIPcEEvT_S7_St20forward_iterator_tag
DA:132,0
DA:137,0
DA:138,0
DA:143,0
DA:145,0
DA:147,0
DA:148,0
DA:153,0
DA:206,0
DA:211,0
DA:212,0
DA:215,0
DA:217,0
DA:219,0
DA:220,0
DA:225,0
DA:232,0
DA:233,0
end_of_record
SF:/usr/include/c++/11/bits/stl_iterator.h
DA:1027,2
DA:1028,1
DA:1033,0
DA:1037,0
DA:1052,0
DA:1054,0
DA:1055,0
DA:1090,0
DA:1091,0
DA:1105,0
DA:1136,0
DA:1142,0
DA:1268,1
DA:1271,1
end_of_record
SF:/usr/include/c++/11/bits/unordered_map.h
DA:347,8
DA:348,8
DA:762,0
DA:763,0
DA:868,8
DA:869,8
DA:979,7
DA:980,7
end_of_record
SF:/usr/include/c++/11/typeinfo
FN:120,_ZNKSt9type_infoeqERKS_
FNDA:0,_ZNKSt9type_infoeqERKS_
DA:120,0
DA:122,0
DA:123,0
DA:124,0
end_of_record
TN:
SF:/home/eric/2025MQ/MQproject/2025MQWorkSpace/src/common/queue.hpp
end_of_record
SF:/usr/include/c++/11/bits/shared_ptr_base.h
FN:140,_ZNSt16_Sp_counted_baseILN9__gnu_cxx12_Lock_policyE2EE10_M_destroyEv
FNDA:0,_ZNSt16_Sp_counted_baseILN9__gnu_cxx12_Lock_policyE2EE10_M_destroyEv
FN:147,_ZNSt16_Sp_counted_baseILN9__gnu_cxx12_Lock_policyE2EE15_M_add_ref_copyEv
FNDA:0,_ZNSt16_Sp_counted_baseILN9__gnu_cxx12_Lock_policyE2EE15_M_add_ref_copyEv
FN:161,_ZNSt16_Sp_counted_baseILN9__gnu_cxx12_Lock_policyE2EE10_M_releaseEv
FNDA:0,_ZNSt16_Sp_counted_baseILN9__gnu_cxx12_Lock_policyE2EE10_M_releaseEv
FN:347,_ZNSt15_Sp_counted_ptrIP9CallbackTIN7hare_mq11bindRequestEELN9__gnu_cxx12_Lock_policyE2EE10_M_disposeEv
FNDA:0,_ZNSt15_Sp_counted_ptrIP9CallbackTIN7hare_mq11bindRequestEELN9__gnu_cxx12_Lock_policyE2EE10_M_disposeEv
FN:347,_ZNSt15_Sp_counted_ptrIP9CallbackTIN7hare_mq18deleteQueueRequestEELN9__gnu_cxx12_Lock_policyE2EE10_M_disposeEv
FNDA:0,_ZNSt15_Sp_counted_ptrIP9CallbackTIN7hare_mq18deleteQueueRequestEELN9__gnu_cxx12_Lock_policyE2EE10_M_disposeEv
FN:347,_ZNSt15_Sp_counted_ptrIP9CallbackTIN7hare_mq13unbindRequestEELN9__gnu_cxx12_Lock_policyE2EE10_M_disposeEv
FNDA:0,_ZNSt15_Sp_counted_ptrIP9CallbackTIN7hare_mq13unbindRequestEELN9__gnu_cxx12_Lock_policyE2EE10_M_disposeEv
FN:347,_ZNSt15_Sp_counted_ptrIP9CallbackTIN7hare_mq19declareQueueRequestEELN9__gnu_cxx12_Lock_policyE2EE10_M_disposeEv
FNDA:0,_ZNSt15_Sp_counted_ptrIP9CallbackTIN7hare_mq19declareQueueRequestEELN9__gnu_cxx12_Lock_policyE2EE10_M_disposeEv
FN:347,_ZNSt15_Sp_counted_ptrIP9CallbackTIN7hare_mq19basicPublishRequestEELN9__gnu_cxx12_Lock_policyE2EE10_M_disposeEv
FNDA:0,_ZNSt15_Sp_counted_ptrIP9CallbackTIN7hare_mq19basicPublishRequestEELN9__gnu_cxx12_Lock_policyE2EE10_M_disposeEv
FN:347,_ZNSt15_Sp_counted_ptrIP9CallbackTIN7hare_mq18openChannelRequestEELN9__gnu_cxx12_Lock_policyE2EE10_M_disposeEv
FNDA:0,_ZNSt15_Sp_counted_ptrIP9CallbackTIN7hare_mq18openChannelRequestEELN9__gnu_cxx12_Lock_policyE2EE10_M_disposeEv
FN:347,_ZNSt15_Sp_counted_ptrIP9CallbackTIN7hare_mq15basicAckRequestEELN9__gnu_cxx12_Lock_policyE2EE10_M_disposeEv
FNDA:0,_ZNSt15_Sp_counted_ptrIP9CallbackTIN7hare_mq15basicAckRequestEELN9__gnu_cxx12_Lock_policyE2EE10_M_disposeEv
FN:347,_ZNSt15_Sp_counted_ptrIP9CallbackTIN7hare_mq19closeChannelRequestEELN9__gnu_cxx12_Lock_policyE2EE10_M_disposeEv
FNDA:0,_ZNSt15_Sp_counted_ptrIP9CallbackTIN7hare_mq19closeChannelRequestEELN9__gnu_cxx12_Lock_policyE2EE10_M_disposeEv
FN:347,_ZNSt15_Sp_counted_ptrIP9CallbackTIN7hare_mq19basicConsumeRequestEELN9__gnu_cxx12_Lock_policyE2EE10_M_disposeEv
FNDA:0,_ZNSt15_Sp_counted_ptrIP9CallbackTIN7hare_mq19basicConsumeRequestEELN9__gnu_cxx12_Lock_policyE2EE10_M_disposeEv
FN:347,_ZNSt15_Sp_counted_ptrIP9CallbackTIN7hare_mq22declareExchangeRequestEELN9__gnu_cxx12_Lock_policyE2EE10_M_disposeEv
FNDA:0,_ZNSt15_Sp_counted_ptrIP9CallbackTIN7hare_mq22declareExchangeRequestEELN9__gnu_cxx12_Lock_policyE2EE10_M_disposeEv
FN:347,_ZNSt15_Sp_counted_ptrIP9CallbackTIN7hare_mq18basicCancelRequestEELN9__gnu_cxx12_Lock_policyE2EE10_M_disposeEv
FNDA:0,_ZNSt15_Sp_counted_ptrIP9CallbackTIN7hare_mq18basicCancelRequestEELN9__gnu_cxx12_Lock_policyE2EE10_M_disposeEv
FN:347,_ZNSt15_Sp_counted_ptrIP9CallbackTIN7hare_mq21deleteExchangeRequestEELN9__gnu_cxx12_Lock_policyE2EE10_M_disposeEv
FNDA:0,_ZNSt15_Sp_counted_ptrIP9CallbackTIN7hare_mq21deleteExchangeRequestEELN9__gnu_cxx12_Lock_policyE2EE10_M_disposeEv
FN:347,_ZNSt15_Sp_counted_ptrIP9CallbackTIN7hare_mq17basicQueryRequestEELN9__gnu_cxx12_Lock_policyE2EE10_M_disposeEv
FNDA:0,_ZNSt15_Sp_counted_ptrIP9CallbackTIN7hare_mq17basicQueryRequestEELN9__gnu_cxx12_Lock_policyE2EE10_M_disposeEv
FN:351,_ZNSt15_Sp_counted_ptrIP9CallbackTIN7hare_mq19closeChannelRequestEELN9__gnu_cxx12_Lock_policyE2EE10_M_destroyEv
FNDA:0,_ZNSt15_Sp_counted_ptrIP9CallbackTIN7hare_mq19closeChannelRequestEELN9__gnu_cxx12_Lock_policyE2EE10_M_destroyEv
FN:351,_ZNSt15_Sp_counted_ptrIP9CallbackTIN7hare_mq22declareExchangeRequestEELN9__gnu_cxx12_Lock_policyE2EE10_M_destroyEv
FNDA:0,_ZNSt15_Sp_counted_ptrIP9CallbackTIN7hare_mq22declareExchangeRequestEELN9__gnu_cxx12_Lock_policyE2EE10_M_destroyEv
FN:351,_ZNSt15_Sp_counted_ptrIP9CallbackTIN7hare_mq18openChannelRequestEELN9__gnu_cxx12_Lock_policyE2EE10_M_destroyEv
FNDA:0,_ZNSt15_Sp_counted_ptrIP9CallbackTIN7hare_mq18openChannelRequestEELN9__gnu_cxx12_Lock_policyE2EE10_M_destroyEv
FN:351,_ZNSt15_Sp_counted_ptrIP9CallbackTIN7hare_mq21deleteExchangeRequestEELN9__gnu_cxx12_Lock_policyE2EE10_M_destroyEv
FNDA:0,_ZNSt15_Sp_counted_ptrIP9CallbackTIN7hare_mq21deleteExchangeRequestEELN9__gnu_cxx12_Lock_policyE2EE10_M_destroyEv
FN:351,_ZNSt15_Sp_counted_ptrIP9CallbackTIN7hare_mq18deleteQueueRequestEELN9__gnu_cxx12_Lock_policyE2EE10_M_destroyEv
FNDA:0,_ZNSt15_Sp_counted_ptrIP9CallbackTIN7hare_mq18deleteQueueRequestEELN9__gnu_cxx12_Lock_policyE2EE10_M_destroyEv
FN:351,_ZNSt15_Sp_counted_ptrIP9CallbackTIN7hare_mq11bindRequestEELN9__gnu_cxx12_Lock_policyE2EE10_M_destroyEv
FNDA:0,_ZNSt15_Sp_counted_ptrIP9CallbackTIN7hare_mq11bindRequestEELN9__gnu_cxx12_Lock_policyE2EE10_M_destroyEv
FN:351,_ZNSt15_Sp_counted_ptrIP9CallbackTIN7hare_mq19declareQueueRequestEELN9__gnu_cxx12_Lock_policyE2EE10_M_destroyEv
FNDA:0,_ZNSt15_Sp_counted_ptrIP9CallbackTIN7hare_mq19declareQueueRequestEELN9__gnu_cxx12_Lock_policyE2EE10_M_destroyEv
FN:351,_ZNSt15_Sp_counted_ptrIP9CallbackTIN7hare_mq13unbindRequestEELN9__gnu_cxx12_Lock_policyE2EE10_M_destroyEv
FNDA:0,_ZNSt15_Sp_counted_ptrIP9CallbackTIN7hare_mq13unbindRequestEELN9__gnu_cxx12_Lock_policyE2EE10_M_destroyEv
FN:351,_ZNSt15_Sp_counted_ptrIP9CallbackTIN7hare_mq17basicQueryRequestEELN9__gnu_cxx12_Lock_policyE2EE10_M_destroyEv
FNDA:0,_ZNSt15_Sp_counted_ptrIP9CallbackTIN7hare_mq17basicQueryRequestEELN9__gnu_cxx12_Lock_policyE2EE10_M_destroyEv
FN:351,_ZNSt15_Sp_counted_ptrIP9CallbackTIN7hare_mq19basicPublishRequestEELN9__gnu_cxx12_Lock_policyE2EE10_M_destroyEv
FNDA:0,_ZNSt15_Sp_counted_ptrIP9CallbackTIN7hare_mq19basicPublishRequestEELN9__gnu_cxx12_Lock_policyE2EE10_M_destroyEv
FN:351,_ZNSt15_Sp_counted_ptrIP9CallbackTIN7hare_mq18basicCancelRequestEELN9__gnu_cxx12_Lock_policyE2EE10_M_destroyEv
FNDA:0,_ZNSt15_Sp_counted_ptrIP9CallbackTIN7hare_mq18basicCancelRequestEELN9__gnu_cxx12_Lock_policyE2EE10_M_destroyEv
FN:351,_ZNSt15_Sp_counted_ptrIP9CallbackTIN7hare_mq15basicAckRequestEELN9__gnu_cxx12_Lock_policyE2EE10_M_destroyEv
FNDA:0,_ZNSt15_Sp_counted_ptrIP9CallbackTIN7hare_mq15basicAckRequestEELN9__gnu_cxx12_Lock_policyE2EE10_M_destroyEv
FN:351,_ZNSt15_Sp_counted_ptrIP9CallbackTIN7hare_mq19basicConsumeRequestEELN9__gnu_cxx12_Lock_policyE2EE10_M_destroyEv
FNDA:0,_ZNSt15_Sp_counted_ptrIP9CallbackTIN7hare_mq19basicConsumeRequestEELN9__gnu_cxx12_Lock_policyE2EE10_M_destroyEv
FN:355,_ZNSt15_Sp_counted_ptrIP9CallbackTIN7hare_mq11bindRequestEELN9__gnu_cxx12_Lock_policyE2EE14_M_get_deleterERKSt9type_info
FNDA:0,_ZNSt15_Sp_counted_ptrIP9CallbackTIN7hare_mq11bindRequestEELN9__gnu_cxx12_Lock_policyE2EE14_M_get_deleterERKSt9type_info
FN:355,_ZNSt15_Sp_counted_ptrIP9CallbackTIN7hare_mq19declareQueueRequestEELN9__gnu_cxx12_Lock_policyE2EE14_M_get_deleterERKSt9type_info
FNDA:0,_ZNSt15_Sp_counted_ptrIP9CallbackTIN7hare_mq19declareQueueRequestEELN9__gnu_cxx12_Lock_policyE2EE14_M_get_deleterERKSt9type_info
FN:355,_ZNSt15_Sp_counted_ptrIP9CallbackTIN7hare_mq17basicQueryRequestEELN9__gnu_cxx12_Lock_policyE2EE14_M_get_deleterERKSt9type_info
FNDA:0,_ZNSt15_Sp_counted_ptrIP9CallbackTIN7hare_mq17basicQueryRequestEELN9__gnu_cxx12_Lock_policyE2EE14_M_get_deleterERKSt9type_info
FN:355,_ZNSt15_Sp_counted_ptrIP9CallbackTIN7hare_mq21deleteExchangeRequestEELN9__gnu_cxx12_Lock_policyE2EE14_M_get_deleterERKSt9type_info
FNDA:0,_ZNSt15_Sp_counted_ptrIP9CallbackTIN7hare_mq21deleteExchangeRequestEELN9__gnu_cxx12_Lock_policyE2EE14_M_get_deleterERKSt9type_info
FN:355,_ZNSt15_Sp_counted_ptrIP9CallbackTIN7hare_mq18basicCancelRequestEELN9__gnu_cxx12_Lock_policyE2EE14_M_get_deleterERKSt9type_info
FNDA:0,_ZNSt15_Sp_counted_ptrIP9CallbackTIN7hare_mq18basicCancelRequestEELN9__gnu_cxx12_Lock_policyE2EE14_M_get_deleterERKSt9type_info
FN:355,_ZNSt15_Sp_counted_ptrIP9CallbackTIN7hare_mq22declareExchangeRequestEELN9__gnu_cxx12_Lock_policyE2EE14_M_get_deleterERKSt9type_info
FNDA:0,_ZNSt15_Sp_counted_ptrIP9CallbackTIN7hare_mq22declareExchangeRequestEELN9__gnu_cxx12_Lock_policyE2EE14_M_get_deleterERKSt9type_info
FN:355,_ZNSt15_Sp_counted_ptrIP9CallbackTIN7hare_mq19basicConsumeRequestEELN9__gnu_cxx12_Lock_policyE2EE14_M_get_deleterERKSt9type_info
FNDA:0,_ZNSt15_Sp_counted_ptrIP9CallbackTIN7hare_mq19basicConsumeRequestEELN9__gnu_cxx12_Lock_policyE2EE14_M_get_deleterERKSt9type_info
FN:355,_ZNSt15_Sp_counted_ptrIP9CallbackTIN7hare_mq19closeChannelRequestEELN9__gnu_cxx12_Lock_policyE2EE14_M_get_deleterERKSt9type_info
FNDA:0,_ZNSt15_Sp_counted_ptrIP9CallbackTIN7hare_mq19closeChannelRequestEELN9__gnu_cxx12_Lock_policyE2EE14_M_get_deleterERKSt9type_info
FN:355,_ZNSt15_Sp_counted_ptrIP9CallbackTIN7hare_mq15basicAckRequestEELN9__gnu_cxx12_Lock_policyE2EE14_M_get_deleterERKSt9type_info
FNDA:0,_ZNSt15_Sp_counted_ptrIP9CallbackTIN7hare_mq15basicAckRequestEELN9__gnu_cxx12_Lock_policyE2EE14_M_get_deleterERKSt9type_info
FN:355,_ZNSt15_Sp_counted_ptrIP9CallbackTIN7hare_mq18openChannelRequestEELN9__gnu_cxx12_Lock_policyE2EE14_M_get_deleterERKSt9type_info
FNDA:0,_ZNSt15_Sp_counted_ptrIP9CallbackTIN7hare_mq18openChannelRequestEELN9__gnu_cxx12_Lock_policyE2EE14_M_get_deleterERKSt9type_info
FN:355,_ZNSt15_Sp_counted_ptrIP9CallbackTIN7hare_mq18deleteQueueRequestEELN9__gnu_cxx12_Lock_policyE2EE14_M_get_deleterERKSt9type_info
FNDA:0,_ZNSt15_Sp_counted_ptrIP9CallbackTIN7hare_mq18deleteQueueRequestEELN9__gnu_cxx12_Lock_policyE2EE14_M_get_deleterERKSt9type_info
FN:355,_ZNSt15_Sp_counted_ptrIP9CallbackTIN7hare_mq19basicPublishRequestEELN9__gnu_cxx12_Lock_policyE2EE14_M_get_deleterERKSt9type_info
FNDA:0,_ZNSt15_Sp_counted_ptrIP9CallbackTIN7hare_mq19basicPublishRequestEELN9__gnu_cxx12_Lock_policyE2EE14_M_get_deleterERKSt9type_info
FN:355,_ZNSt15_Sp_counted_ptrIP9CallbackTIN7hare_mq13unbindRequestEELN9__gnu_cxx12_Lock_policyE2EE14_M_get_deleterERKSt9type_info
FNDA:0,_ZNSt15_Sp_counted_ptrIP9CallbackTIN7hare_mq13unbindRequestEELN9__gnu_cxx12_Lock_policyE2EE14_M_get_deleterERKSt9type_info
FN:375,_ZNSt15_Sp_counted_ptrIDnLN9__gnu_cxx12_Lock_policyE2EE10_M_disposeEv
FNDA:0,_ZNSt15_Sp_counted_ptrIDnLN9__gnu_cxx12_Lock_policyE2EE10_M_disposeEv
FN:523,_ZNSt23_Sp_counted_ptr_inplaceIN7hare_mq16consumer_managerESaIS1_ELN9__gnu_cxx12_Lock_policyE2EED2Ev
FNDA:0,_ZNSt23_Sp_counted_ptr_inplaceIN7hare_mq16consumer_managerESaIS1_ELN9__gnu_cxx12_Lock_policyE2EED2Ev
FN:523,_ZNSt23_Sp_counted_ptr_inplaceI13ProtobufCodecSaIS0_ELN9__gnu_cxx12_Lock_policyE2EED2Ev
FNDA:0,_ZNSt23_Sp_counted_ptr_inplaceI13ProtobufCodecSaIS0_ELN9__gnu_cxx12_Lock_policyE2EED2Ev
FN:523,_ZNSt23_Sp_counted_ptr_inplaceI13ProtobufCodecSaIS0_ELN9__gnu_cxx12_Lock_policyE2EED0Ev
FNDA:0,_ZNSt23_Sp_counted_ptr_inplaceI13ProtobufCodecSaIS0_ELN9__gnu_cxx12_Lock_policyE2EED0Ev
FN:523,_ZNSt23_Sp_counted_ptr_inplaceIN7hare_mq12virtual_hostESaIS1_ELN9__gnu_cxx12_Lock_policyE2EED0Ev
FNDA:0,_ZNSt23_Sp_counted_ptr_inplaceIN7hare_mq12virtual_hostESaIS1_ELN9__gnu_cxx12_Lock_policyE2EED0Ev
FN:523,_ZNSt23_Sp_counted_ptr_inplaceIN7hare_mq12virtual_hostESaIS1_ELN9__gnu_cxx12_Lock_policyE2EED2Ev
FNDA:0,_ZNSt23_Sp_counted_ptr_inplaceIN7hare_mq12virtual_hostESaIS1_ELN9__gnu_cxx12_Lock_policyE2EED2Ev
FN:523,_ZNSt23_Sp_counted_ptr_inplaceIN7hare_mq16consumer_managerESaIS1_ELN9__gnu_cxx12_Lock_policyE2EED0Ev
FNDA:0,_ZNSt23_Sp_counted_ptr_inplaceIN7hare_mq16consumer_managerESaIS1_ELN9__gnu_cxx12_Lock_policyE2EED0Ev
FN:523,_ZNSt23_Sp_counted_ptr_inplaceISt5mutexSaIS0_ELN9__gnu_cxx12_Lock_policyE2EED2Ev
FNDA:0,_ZNSt23_Sp_counted_ptr_inplaceISt5mutexSaIS0_ELN9__gnu_cxx12_Lock_policyE2EED2Ev
FN:523,_ZNSt23_Sp_counted_ptr_inplaceISt5mutexSaIS0_ELN9__gnu_cxx12_Lock_policyE2EED0Ev
FNDA:0,_ZNSt23_Sp_counted_ptr_inplaceISt5mutexSaIS0_ELN9__gnu_cxx12_Lock_policyE2EED0Ev
FN:523,_ZNSt23_Sp_counted_ptr_inplaceIN7hare_mq18connection_managerESaIS1_ELN9__gnu_cxx12_Lock_policyE2EED0Ev
FNDA:0,_ZNSt23_Sp_counted_ptr_inplaceIN7hare_mq18connection_managerESaIS1_ELN9__gnu_cxx12_Lock_policyE2EED0Ev
FN:523,_ZNSt23_Sp_counted_ptr_inplaceIN7hare_mq18connection_managerESaIS1_ELN9__gnu_cxx12_Lock_policyE2EED2Ev
FNDA:0,_ZNSt23_Sp_counted_ptr_inplaceIN7hare_mq18connection_managerESaIS1_ELN9__gnu_cxx12_Lock_policyE2EED2Ev
FN:523,_ZNSt23_Sp_counted_ptr_inplaceIN7hare_mq11thread_poolESaIS1_ELN9__gnu_cxx12_Lock_policyE2EED2Ev
FNDA:0,_ZNSt23_Sp_counted_ptr_inplaceIN7hare_mq11thread_poolESaIS1_ELN9__gnu_cxx12_Lock_policyE2EED2Ev
FN:523,_ZNSt23_Sp_counted_ptr_inplaceIN7hare_mq11thread_poolESaIS1_ELN9__gnu_cxx12_Lock_policyE2EED0Ev
FNDA:0,_ZNSt23_Sp_counted_ptr_inplaceIN7hare_mq11thread_poolESaIS1_ELN9__gnu_cxx12_Lock_policyE2EED0Ev
FN:526,_ZNSt23_Sp_counted_ptr_inplaceIN7hare_mq18connection_managerESaIS1_ELN9__gnu_cxx12_Lock_policyE2EE10_M_disposeEv
FNDA:0,_ZNSt23_Sp_counted_ptr_inplaceIN7hare_mq18connection_managerESaIS1_ELN9__gnu_cxx12_Lock_policyE2EE10_M_disposeEv
FN:526,_ZNSt23_Sp_counted_ptr_inplaceIN7hare_mq16consumer_managerESaIS1_ELN9__gnu_cxx12_Lock_policyE2EE10_M_disposeEv
FNDA:0,_ZNSt23_Sp_counted_ptr_inplaceIN7hare_mq16consumer_managerESaIS1_ELN9__gnu_cxx12_Lock_policyE2EE10_M_disposeEv
FN:526,_ZNSt23_Sp_counted_ptr_inplaceI13ProtobufCodecSaIS0_ELN9__gnu_cxx12_Lock_policyE2EE10_M_disposeEv
FNDA:0,_ZNSt23_Sp_counted_ptr_inplaceI13ProtobufCodecSaIS0_ELN9__gnu_cxx12_Lock_policyE2EE10_M_disposeEv
FN:526,_ZNSt23_Sp_counted_ptr_inplaceISt5mutexSaIS0_ELN9__gnu_cxx12_Lock_policyE2EE10_M_disposeEv
FNDA:0,_ZNSt23_Sp_counted_ptr_inplaceISt5mutexSaIS0_ELN9__gnu_cxx12_Lock_policyE2EE10_M_disposeEv
FN:526,_ZNSt23_Sp_counted_ptr_inplaceIN7hare_mq12virtual_hostESaIS1_ELN9__gnu_cxx12_Lock_policyE2EE10_M_disposeEv
FNDA:0,_ZNSt23_Sp_counted_ptr_inplaceIN7hare_mq12virtual_hostESaIS1_ELN9__gnu_cxx12_Lock_policyE2EE10_M_disposeEv
FN:526,_ZNSt23_Sp_counted_ptr_inplaceIN7hare_mq11thread_poolESaIS1_ELN9__gnu_cxx12_Lock_policyE2EE10_M_disposeEv
FNDA:0,_ZNSt23_Sp_counted_ptr_inplaceIN7hare_mq11thread_poolESaIS1_ELN9__gnu_cxx12_Lock_policyE2EE10_M_disposeEv
FN:533,_ZNSt23_Sp_counted_ptr_inplaceISt5mutexSaIS0_ELN9__gnu_cxx12_Lock_policyE2EE10_M_destroyEv
FNDA:0,_ZNSt23_Sp_counted_ptr_inplaceISt5mutexSaIS0_ELN9__gnu_cxx12_Lock_policyE2EE10_M_destroyEv
FN:533,_ZNSt23_Sp_counted_ptr_inplaceI13ProtobufCodecSaIS0_ELN9__gnu_cxx12_Lock_policyE2EE10_M_destroyEv
FNDA:0,_ZNSt23_Sp_counted_ptr_inplaceI13ProtobufCodecSaIS0_ELN9__gnu_cxx12_Lock_policyE2EE10_M_destroyEv
FN:533,_ZNSt23_Sp_counted_ptr_inplaceIN7hare_mq12virtual_hostESaIS1_ELN9__gnu_cxx12_Lock_policyE2EE10_M_destroyEv
FNDA:0,_ZNSt23_Sp_counted_ptr_inplaceIN7hare_mq12virtual_hostESaIS1_ELN9__gnu_cxx12_Lock_policyE2EE10_M_destroyEv
FN:533,_ZNSt23_Sp_counted_ptr_inplaceIN7hare_mq11thread_poolESaIS1_ELN9__gnu_cxx12_Lock_policyE2EE10_M_destroyEv
FNDA:0,_ZNSt23_Sp_counted_ptr_inplaceIN7hare_mq11thread_poolESaIS1_ELN9__gnu_cxx12_Lock_policyE2EE10_M_destroyEv
FN:533,_ZNSt23_Sp_counted_ptr_inplaceIN7hare_mq18connection_managerESaIS1_ELN9__gnu_cxx12_Lock_policyE2EE10_M_destroyEv
FNDA:0,_ZNSt23_Sp_counted_ptr_inplaceIN7hare_mq18connection_managerESaIS1_ELN9__gnu_cxx12_Lock_policyE2EE10_M_destroyEv
FN:533,_ZNSt23_Sp_counted_ptr_inplaceIN7hare_mq16consumer_managerESaIS1_ELN9__gnu_cxx12_Lock_policyE2EE10_M_destroyEv
FNDA:0,_ZNSt23_Sp_counted_ptr_inplaceIN7hare_mq16consumer_managerESaIS1_ELN9__gnu_cxx12_Lock_policyE2EE10_M_destroyEv
FN:546,_ZNSt23_Sp_counted_ptr_inplaceI13ProtobufCodecSaIS0_ELN9__gnu_cxx12_Lock_policyE2EE14_M_get_deleterERKSt9type_info
FNDA:0,_ZNSt23_Sp_counted_ptr_inplaceI13ProtobufCodecSaIS0_ELN9__gnu_cxx12_Lock_policyE2EE14_M_get_deleterERKSt9type_info
FN:546,_ZNSt23_Sp_counted_ptr_inplaceIN7hare_mq12virtual_hostESaIS1_ELN9__gnu_cxx12_Lock_policyE2EE14_M_get_deleterERKSt9type_info
FNDA:0,_ZNSt23_Sp_counted_ptr_inplaceIN7hare_mq12virtual_hostESaIS1_ELN9__gnu_cxx12_Lock_policyE2EE14_M_get_deleterERKSt9type_info
FN:546,_ZNSt23_Sp_counted_ptr_inplaceIN7hare_mq11thread_poolESaIS1_ELN9__gnu_cxx12_Lock_policyE2EE14_M_get_deleterERKSt9type_info
FNDA:0,_ZNSt23_Sp_counted_ptr_inplaceIN7hare_mq11thread_poolESaIS1_ELN9__gnu_cxx12_Lock_policyE2EE14_M_get_deleterERKSt9type_info
FN:546,_ZNSt23_Sp_counted_ptr_inplaceIN7hare_mq16consumer_managerESaIS1_ELN9__gnu_cxx12_Lock_policyE2EE14_M_get_deleterERKSt9type_info
FNDA:0,_ZNSt23_Sp_counted_ptr_inplaceIN7hare_mq16consumer_managerESaIS1_ELN9__gnu_cxx12_Lock_policyE2EE14_M_get_deleterERKSt9type_info
FN:546,_ZNSt23_Sp_counted_ptr_inplaceIN7hare_mq18connection_managerESaIS1_ELN9__gnu_cxx12_Lock_policyE2EE14_M_get_deleterERKSt9type_info
FNDA:0,_ZNSt23_Sp_counted_ptr_inplaceIN7hare_mq18connection_managerESaIS1_ELN9__gnu_cxx12_Lock_policyE2EE14_M_get_deleterERKSt9type_info
FN:592,_ZNSt14__shared_countILN9__gnu_cxx12_Lock_policyE2EEC2IP9CallbackTIN7hare_mq13unbindRequestEEEET_
FNDA:0,_ZNSt14__shared_countILN9__gnu_cxx12_Lock_policyE2EEC2IP9CallbackTIN7hare_mq13unbindRequestEEEET_
FN:592,_ZNSt14__shared_countILN9__gnu_cxx12_Lock_policyE2EEC2IP9CallbackTIN7hare_mq17basicQueryRequestEEEET_
FNDA:0,_ZNSt14__shared_countILN9__gnu_cxx12_Lock_policyE2EEC2IP9CallbackTIN7hare_mq17basicQueryRequestEEEET_
FN:592,_ZNSt14__shared_countILN9__gnu_cxx12_Lock_policyE2EEC2IP9CallbackTIN7hare_mq18basicCancelRequestEEEET_
FNDA:0,_ZNSt14__shared_countILN9__gnu_cxx12_Lock_policyE2EEC2IP9CallbackTIN7hare_mq18basicCancelRequestEEEET_
FN:592,_ZNSt14__shared_countILN9__gnu_cxx12_Lock_policyE2EEC2IP9CallbackTIN7hare_mq19basicConsumeRequestEEEET_
FNDA:0,_ZNSt14__shared_countILN9__gnu_cxx12_Lock_policyE2EEC2IP9CallbackTIN7hare_mq19basicConsumeRequestEEEET_
FN:592,_ZNSt14__shared_countILN9__gnu_cxx12_Lock_policyE2EEC2IP9CallbackTIN7hare_mq15basicAckRequestEEEET_
FNDA:0,_ZNSt14__shared_countILN9__gnu_cxx12_Lock_policyE2EEC2IP9CallbackTIN7hare_mq15basicAckRequestEEEET_
FN:592,_ZNSt14__shared_countILN9__gnu_cxx12_Lock_policyE2EEC2IP9CallbackTIN7hare_mq18openChannelRequestEEEET_
FNDA:0,_ZNSt14__shared_countILN9__gnu_cxx12_Lock_policyE2EEC2IP9CallbackTIN7hare_mq18openChannelRequestEEEET_
FN:592,_ZNSt14__shared_countILN9__gnu_cxx12_Lock_policyE2EEC2IP9CallbackTIN7hare_mq19closeChannelRequestEEEET_
FNDA:0,_ZNSt14__shared_countILN9__gnu_cxx12_Lock_policyE2EEC2IP9CallbackTIN7hare_mq19closeChannelRequestEEEET_
FN:592,_ZNSt14__shared_countILN9__gnu_cxx12_Lock_policyE2EEC2IP9CallbackTIN7hare_mq19declareQueueRequestEEEET_
FNDA:0,_ZNSt14__shared_countILN9__gnu_cxx12_Lock_policyE2EEC2IP9CallbackTIN7hare_mq19declareQueueRequestEEEET_
FN:592,_ZNSt14__shared_countILN9__gnu_cxx12_Lock_policyE2EEC2IP9CallbackTIN7hare_mq19basicPublishRequestEEEET_
FNDA:0,_ZNSt14__shared_countILN9__gnu_cxx12_Lock_policyE2EEC2IP9CallbackTIN7hare_mq19basicPublishRequestEEEET_
FN:592,_ZNSt14__shared_countILN9__gnu_cxx12_Lock_policyE2EEC2IP9CallbackTIN7hare_mq11bindRequestEEEET_
FNDA:0,_ZNSt14__shared_countILN9__gnu_cxx12_Lock_policyE2EEC2IP9CallbackTIN7hare_mq11bindRequestEEEET_
FN:592,_ZNSt14__shared_countILN9__gnu_cxx12_Lock_policyE2EEC2IP9CallbackTIN7hare_mq18deleteQueueRequestEEEET_
FNDA:0,_ZNSt14__shared_countILN9__gnu_cxx12_Lock_policyE2EEC2IP9CallbackTIN7hare_mq18deleteQueueRequestEEEET_
FN:592,_ZNSt14__shared_countILN9__gnu_cxx12_Lock_policyE2EEC2IP9CallbackTIN7hare_mq22declareExchangeRequestEEEET_
FNDA:0,_ZNSt14__shared_countILN9__gnu_cxx12_Lock_policyE2EEC2IP9CallbackTIN7hare_mq22declareExchangeRequestEEEET_
FN:592,_ZNSt14__shared_countILN9__gnu_cxx12_Lock_policyE2EEC2IP9CallbackTIN7hare_mq21deleteExchangeRequestEEEET_
FNDA:0,_ZNSt14__shared_countILN9__gnu_cxx12_Lock_policyE2EEC2IP9CallbackTIN7hare_mq21deleteExchangeRequestEEEET_
FN:643,_ZNSt14__shared_countILN9__gnu_cxx12_Lock_policyE2EEC2IN7hare_mq12virtual_hostESaIS5_EJRKPKcRKNSt7__cxx1112basic_stringIcSt11char_traitsIcESaIcEEERSG_EEERPT_St20_Sp_alloc_shared_tagIT0_EDpOT1_
FNDA:0,_ZNSt14__shared_countILN9__gnu_cxx12_Lock_policyE2EEC2IN7hare_mq12virtual_hostESaIS5_EJRKPKcRKNSt7__cxx1112basic_stringIcSt11char_traitsIcESaIcEEERSG_EEERPT_St20_Sp_alloc_shared_tagIT0_EDpOT1_
FN:643,_ZNSt14__shared_countILN9__gnu_cxx12_Lock_policyE2EEC2I13ProtobufCodecSaIS4_EJSt5_BindIFM18ProtobufDispatcherKFvRKSt10shared_ptrIN5muduo3net13TcpConnectionEERKS8_IN6google8protobuf7MessageEENS9_9TimestampEEPS7_St12_PlaceholderILi1EESP_ILi2EESP_ILi3EEEEEEERPT_St20_Sp_alloc_shared_tagIT0_EDpOT1_
FNDA:0,_ZNSt14__shared_countILN9__gnu_cxx12_Lock_policyE2EEC2I13ProtobufCodecSaIS4_EJSt5_BindIFM18ProtobufDispatcherKFvRKSt10shared_ptrIN5muduo3net13TcpConnectionEERKS8_IN6google8protobuf7MessageEENS9_9TimestampEEPS7_St12_PlaceholderILi1EESP_ILi2EESP_ILi3EEEEEEERPT_St20_Sp_alloc_shared_tagIT0_EDpOT1_
FN:643,_ZNSt14__shared_countILN9__gnu_cxx12_Lock_policyE2EEC2IN7hare_mq16consumer_managerESaIS5_EJEEERPT_St20_Sp_alloc_shared_tagIT0_EDpOT1_
FNDA:0,_ZNSt14__shared_countILN9__gnu_cxx12_Lock_policyE2EEC2IN7hare_mq16consumer_managerESaIS5_EJEEERPT_St20_Sp_alloc_shared_tagIT0_EDpOT1_
FN:643,_ZNSt14__shared_countILN9__gnu_cxx12_Lock_policyE2EEC2IN7hare_mq18connection_managerESaIS5_EJEEERPT_St20_Sp_alloc_shared_tagIT0_EDpOT1_
FNDA:0,_ZNSt14__shared_countILN9__gnu_cxx12_Lock_policyE2EEC2IN7hare_mq18connection_managerESaIS5_EJEEERPT_St20_Sp_alloc_shared_tagIT0_EDpOT1_
FN:643,_ZNSt14__shared_countILN9__gnu_cxx12_Lock_policyE2EEC2IN7hare_mq11thread_poolESaIS5_EJEEERPT_St20_Sp_alloc_shared_tagIT0_EDpOT1_
FNDA:0,_ZNSt14__shared_countILN9__gnu_cxx12_Lock_policyE2EEC2IN7hare_mq11thread_poolESaIS5_EJEEERPT_St20_Sp_alloc_shared_tagIT0_EDpOT1_
FN:716,_ZNSt14__shared_countILN9__gnu_cxx12_Lock_policyE2EEaSERKS2_
FNDA:0,_ZNSt14__shared_countILN9__gnu_cxx12_Lock_policyE2EEaSERKS2_
FN:1248,_ZNSt12__shared_ptrIN7hare_mq11thread_poolELN9__gnu_cxx12_Lock_policyE2EEaSEOS4_
FNDA:0,_ZNSt12__shared_ptrIN7hare_mq11thread_poolELN9__gnu_cxx12_Lock_policyE2EEaSEOS4_
FN:1248,_ZNSt12__shared_ptrIN7hare_mq18connection_managerELN9__gnu_cxx12_Lock_policyE2EEaSEOS4_
FNDA:0,_ZNSt12__shared_ptrIN7hare_mq18connection_managerELN9__gnu_cxx12_Lock_policyE2EEaSEOS4_
FN:1248,_ZNSt12__shared_ptrIN7hare_mq16consumer_managerELN9__gnu_cxx12_Lock_policyE2EEaSEOS4_
FNDA:0,_ZNSt12__shared_ptrIN7hare_mq16consumer_managerELN9__gnu_cxx12_Lock_policyE2EEaSEOS4_
FN:1248,_ZNSt12__shared_ptrIN7hare_mq12virtual_hostELN9__gnu_cxx12_Lock_policyE2EEaSEOS4_
FNDA:0,_ZNSt12__shared_ptrIN7hare_mq12virtual_hostELN9__gnu_cxx12_Lock_policyE2EEaSEOS4_
FN:1248,_ZNSt12__shared_ptrI13ProtobufCodecLN9__gnu_cxx12_Lock_policyE2EEaSEOS3_
FNDA:0,_ZNSt12__shared_ptrI13ProtobufCodecLN9__gnu_cxx12_Lock_policyE2EEaSEOS3_
DA:126,0
DA:127,0
DA:130,0
DA:140,0
DA:141,0
DA:147,0
DA:148,0
DA:161,0
DA:165,0
DA:168,0
DA:180,0
DA:184,0
DA:187,0
DA:339,0
DA:343,0
DA:344,0
DA:347,0
DA:348,0
DA:347,0
DA:348,0
DA:347,0
DA:348,0
DA:347,0
DA:348,0
DA:347,0
DA:348,0
DA:347,0
DA:348,0
DA:347,0
DA:348,0
DA:347,0
DA:348,0
DA:347,0
DA:348,0
DA:347,0
DA:348,0
DA:347,0
DA:348,0
DA:347,0
DA:348,0
DA:347,0
DA:348,0
DA:351,0
DA:352,0
DA:351,0
DA:352,0
DA:351,0
DA:352,0
DA:351,0
DA:352,0
DA:351,0
DA:352,0
DA:351,0
DA:352,0
DA:351,0
DA:352,0
DA:351,0
DA:352,0
DA:351,0
DA:352,0
DA:351,0
DA:352,0
DA:351,0
DA:352,0
DA:351,0
DA:352,0
DA:351,0
DA:352,0
DA:355,0
DA:356,0
DA:355,0
DA:356,0
DA:355,0
DA:356,0
DA:355,0
DA:356,0
DA:355,0
DA:356,0
DA:355,0
DA:356,0
DA:355,0
DA:356,0
DA:355,0
DA:356,0
DA:355,0
DA:356,0
DA:355,0
DA:356,0
DA:355,0
DA:356,0
DA:355,0
DA:356,0
DA:355,0
DA:356,0
DA:375,0
DA:383,0
DA:385,0
DA:479,0
DA:481,0
DA:482,0
DA:497,0
DA:502,0
DA:514,0
DA:515,0
DA:519,0
DA:521,0
DA:523,0
DA:523,0
DA:523,0
DA:523,0
DA:523,0
DA:523,0
DA:523,0
DA:523,0
DA:523,0
DA:523,0
DA:523,0
DA:523,0
DA:523,0
DA:526,0
DA:528,0
DA:529,0
DA:526,0
DA:528,0
DA:529,0
DA:526,0
DA:528,0
DA:529,0
DA:526,0
DA:528,0
DA:529,0
DA:526,0
DA:528,0
DA:529,0
DA:526,0
DA:528,0
DA:529,0
DA:533,0
DA:535,0
DA:536,0
DA:537,0
DA:538,0
DA:533,0
DA:535,0
DA:536,0
DA:537,0
DA:538,0
DA:533,0
DA:535,0
DA:536,0
DA:537,0
DA:538,0
DA:533,0
DA:535,0
DA:536,0
DA:537,0
DA:538,0
DA:533,0
DA:535,0
DA:536,0
DA:537,0
DA:538,0
DA:533,0
DA:535,0
DA:536,0
DA:537,0
DA:538,0
DA:546,0
DA:548,0
DA:554,0
DA:556,0
DA:561,0
DA:546,0
DA:548,0
DA:554,0
DA:556,0
DA:561,0
DA:546,0
DA:548,0
DA:554,0
DA:556,0
DA:561,0
DA:546,0
DA:548,0
DA:554,0
DA:556,0
DA:561,0
DA:546,0
DA:548,0
DA:554,0
DA:556,0
DA:561,0
DA:565,0
DA:587,0
DA:592,0
DA:596,0
DA:598,0
DA:600,0
DA:601,0
DA:603,0
DA:592,0
DA:596,0
DA:598,0
DA:600,0
DA:601,0
DA:603,0
DA:592,0
DA:596,0
DA:598,0
DA:600,0
DA:601,0
DA:603,0
DA:592,0
DA:596,0
DA:598,0
DA:600,0
DA:601,0
DA:603,0
DA:592,0
DA:596,0
DA:598,0
DA:600,0
DA:601,0
DA:603,0
DA:592,0
DA:596,0
DA:598,0
DA:600,0
DA:601,0
DA:603,0
DA:592,0
DA:596,0
DA:598,0
DA:600,0
DA:601,0
DA:603,0
DA:592,0
DA:596,0
DA:598,0
DA:600,0
DA:601,0
DA:603,0
DA:592,0
DA:596,0
DA:598,0
DA:600,0
DA:601,0
DA:603,0
DA:592,0
DA:596,0
DA:598,0
DA:600,0
DA:601,0
DA:603,0
DA:592,0
DA:596,0
DA:598,0
DA:600,0
DA:601,0
DA:603,0
DA:592,0
DA:596,0
DA:598,0
DA:600,0
DA:601,0
DA:603,0
DA:592,0
DA:596,0
DA:598,0
DA:600,0
DA:601,0
DA:603,0
DA:606,0
DA:607,0
DA:643,0
DA:647,0
DA:648,0
DA:649,0
DA:650,0
DA:652,0
DA:653,0
DA:654,0
DA:655,0
DA:643,0
DA:647,0
DA:648,0
DA:649,0
DA:650,0
DA:652,0
DA:653,0
DA:654,0
DA:655,0
DA:643,0
DA:647,0
DA:648,0
DA:649,0
DA:650,0
DA:652,0
DA:653,0
DA:654,0
DA:655,0
DA:643,0
DA:647,0
DA:648,0
DA:649,0
DA:650,0
DA:651,0
DA:652,0
DA:653,0
DA:654,0
DA:655,0
DA:643,0
DA:647,0
DA:648,0
DA:649,0
DA:650,0
DA:651,0
DA:652,0
DA:653,0
DA:654,0
DA:655,0
DA:702,0
DA:704,0
DA:705,0
DA:708,0
DA:709,0
DA:711,0
DA:712,0
DA:716,0
DA:718,0
DA:719,0
DA:721,0
DA:722,0
DA:723,0
DA:724,0
DA:725,0
DA:727,0
DA:731,0
DA:733,0
DA:734,0
DA:735,0
DA:977,0
DA:979,0
DA:980,0
DA:984,0
DA:987,0
DA:992,0
DA:993,0
DA:1092,0
DA:1093,0
DA:1098,0
DA:1099,0
DA:1103,0
DA:1137,0
DA:1139,0
DA:1152,0
DA:1154,0
DA:1161,0
DA:1162,0
DA:1164,0
DA:1165,0
DA:1227,0
DA:1229,0
DA:1230,0
DA:1248,0
DA:1250,0
DA:1251,0
DA:1248,0
DA:1250,0
DA:1251,0
DA:1248,0
DA:1250,0
DA:1251,0
DA:1248,0
DA:1250,0
DA:1251,0
DA:1248,0
DA:1250,0
DA:1251,0
DA:1295,0
DA:1296,0
DA:1299,0
DA:1300,0
DA:1314,0
DA:1316,0
DA:1317,0
DA:1341,0
DA:1342,0
DA:1343,0
DA:1386,0
end_of_record
SF:/usr/include/c++/11/bits/stl_tree.h
FN:609,_ZNSt8_Rb_treeIPKN6google8protobuf10DescriptorESt4pairIKS4_St10shared_ptrI8CallbackEESt10_Select1stISA_ESt4lessIS4_ESaISA_EE14_M_create_nodeIJRKSt21piecewise_construct_tSt5tupleIJOS4_EESL_IJEEEEEPSt13_Rb_tree_nodeISA_EDpOT_
FNDA:0,_ZNSt8_Rb_treeIPKN6google8protobuf10DescriptorESt4pairIKS4_St10shared_ptrI8CallbackEESt10_Select1stISA_ESt4lessIS4_ESaISA_EE14_M_create_nodeIJRKSt21piecewise_construct_tSt5tupleIJOS4_EESL_IJEEEEEPSt13_Rb_tree_nodeISA_EDpOT_
FN:629,_ZNSt8_Rb_treeIPKN6google8protobuf10DescriptorESt4pairIKS4_St10shared_ptrI8CallbackEESt10_Select1stISA_ESt4lessIS4_ESaISA_EE12_M_drop_nodeEPSt13_Rb_tree_nodeISA_E
FNDA:0,_ZNSt8_Rb_treeIPKN6google8protobuf10DescriptorESt4pairIKS4_St10shared_ptrI8CallbackEESt10_Select1stISA_ESt4lessIS4_ESaISA_EE12_M_drop_nodeEPSt13_Rb_tree_nodeISA_E
FN:1883,_ZNSt8_Rb_treeIPKN6google8protobuf10DescriptorESt4pairIKS4_St10shared_ptrI8CallbackEESt10_Select1stISA_ESt4lessIS4_ESaISA_EE8_M_eraseEPSt13_Rb_tree_nodeISA_E
FNDA:0,_ZNSt8_Rb_treeIPKN6google8protobuf10DescriptorESt4pairIKS4_St10shared_ptrI8CallbackEESt10_Select1stISA_ESt4lessIS4_ESaISA_EE8_M_eraseEPSt13_Rb_tree_nodeISA_E
FN:2061,_ZNSt8_Rb_treeIPKN6google8protobuf10DescriptorESt4pairIKS4_St10shared_ptrI8CallbackEESt10_Select1stISA_ESt4lessIS4_ESaISA_EE24_M_get_insert_unique_posERS6_
FNDA:0,_ZNSt8_Rb_treeIPKN6google8protobuf10DescriptorESt4pairIKS4_St10shared_ptrI8CallbackEESt10_Select1stISA_ESt4lessIS4_ESaISA_EE24_M_get_insert_unique_posERS6_
FN:2163,_ZNSt8_Rb_treeIPKN6google8protobuf10DescriptorESt4pairIKS4_St10shared_ptrI8CallbackEESt10_Select1stISA_ESt4lessIS4_ESaISA_EE29_M_get_insert_hint_unique_posESt23_Rb_tree_const_iteratorISA_ERS6_
FNDA:0,_ZNSt8_Rb_treeIPKN6google8protobuf10DescriptorESt4pairIKS4_St10shared_ptrI8CallbackEESt10_Select1stISA_ESt4lessIS4_ESaISA_EE29_M_get_insert_hint_unique_posESt23_Rb_tree_const_iteratorISA_ERS6_
FN:2330,_ZNSt8_Rb_treeIPKN6google8protobuf10DescriptorESt4pairIKS4_St10shared_ptrI8CallbackEESt10_Select1stISA_ESt4lessIS4_ESaISA_EE14_M_insert_nodeEPSt18_Rb_tree_node_baseSI_PSt13_Rb_tree_nodeISA_E
FNDA:0,_ZNSt8_Rb_treeIPKN6google8protobuf10DescriptorESt4pairIKS4_St10shared_ptrI8CallbackEESt10_Select1stISA_ESt4lessIS4_ESaISA_EE14_M_insert_nodeEPSt18_Rb_tree_node_baseSI_PSt13_Rb_tree_nodeISA_E
FN:2428,_ZNSt8_Rb_treeIPKN6google8protobuf10DescriptorESt4pairIKS4_St10shared_ptrI8CallbackEESt10_Select1stISA_ESt4lessIS4_ESaISA_EE22_M_emplace_hint_uniqueIJRKSt21piecewise_construct_tSt5tupleIJOS4_EESL_IJEEEEESt17_Rb_tree_iteratorISA_ESt23_Rb_tree_const_iteratorISA_EDpOT_
FNDA:0,_ZNSt8_Rb_treeIPKN6google8protobuf10DescriptorESt4pairIKS4_St10shared_ptrI8CallbackEESt10_Select1stISA_ESt4lessIS4_ESaISA_EE22_M_emplace_hint_uniqueIJRKSt21piecewise_construct_tSt5tupleIJOS4_EESL_IJEEEEESt17_Rb_tree_iteratorISA_ESt23_Rb_tree_const_iteratorISA_EDpOT_
FN:2533,_ZNKSt8_Rb_treeIPKN6google8protobuf10DescriptorESt4pairIKS4_St10shared_ptrI8CallbackEESt10_Select1stISA_ESt4lessIS4_ESaISA_EE4findERS6_
FNDA:0,_ZNKSt8_Rb_treeIPKN6google8protobuf10DescriptorESt4pairIKS4_St10shared_ptrI8CallbackEESt10_Select1stISA_ESt4lessIS4_ESaISA_EE4findERS6_
DA:146,0
DA:173,0
DA:174,0
DA:175,0
DA:176,0
DA:206,0
DA:208,0
DA:209,0
DA:210,0
DA:211,0
DA:235,0
DA:239,0
DA:273,0
DA:274,0
DA:278,0
DA:285,0
DA:287,0
DA:300,0
DA:302,0
DA:303,0
DA:315,0
DA:347,0
DA:350,0
DA:351,0
DA:354,0
DA:355,0
DA:363,0
DA:396,0
DA:547,0
DA:548,0
DA:560,0
DA:561,0
DA:564,0
DA:565,0
DA:590,0
DA:595,0
DA:609,0
DA:611,0
DA:612,0
DA:613,0
DA:618,0
DA:623,0
DA:624,0
DA:629,0
DA:631,0
DA:632,0
DA:633,0
DA:660,0
DA:667,0
DA:671,0
DA:719,0
DA:727,0
DA:734,0
DA:735,0
DA:738,0
DA:739,0
DA:742,0
DA:745,0
DA:749,0
DA:750,0
DA:753,0
DA:754,0
DA:757,0
DA:775,0
DA:779,0
DA:780,0
DA:783,0
DA:784,0
DA:787,0
DA:788,0
DA:791,0
DA:792,0
DA:796,0
DA:928,0
DA:983,0
DA:984,0
DA:995,0
DA:996,0
DA:1003,0
DA:1004,0
DA:1007,0
DA:1008,0
DA:1031,0
DA:1032,0
DA:1269,0
DA:1270,0
DA:1883,0
DA:1887,0
DA:1889,0
DA:1890,0
DA:1891,0
DA:1892,0
DA:1894,0
DA:1900,0
DA:1904,0
DA:1905,0
DA:1906,0
DA:1908,0
DA:1909,0
DA:1916,0
DA:1920,0
DA:1921,0
DA:1922,0
DA:1924,0
DA:1925,0
DA:2061,0
DA:2065,0
DA:2066,0
DA:2067,0
DA:2068,0
DA:2070,0
DA:2071,0
DA:2072,0
DA:2074,0
DA:2075,0
DA:2077,0
DA:2078,0
DA:2080,0
DA:2082,0
DA:2083,0
DA:2084,0
DA:2163,0
DA:2167,0
DA:2171,0
DA:2173,0
DA:2174,0
DA:2175,0
DA:2177,0
DA:2179,0
DA:2182,0
DA:2183,0
DA:2184,0
DA:2185,0
DA:2187,0
DA:2188,0
DA:2190,0
DA:2193,0
DA:2195,0
DA:2198,0
DA:2199,0
DA:2200,0
DA:2201,0
DA:2203,0
DA:2204,0
DA:2206,0
DA:2209,0
DA:2213,0
DA:2330,0
DA:2333,0
DA:2334,0
DA:2335,0
DA:2337,0
DA:2338,0
DA:2339,0
DA:2340,0
DA:2428,0
DA:2431,0
DA:2435,0
DA:2437,0
DA:2438,0
DA:2440,0
DA:2441,0
DA:2533,0
DA:2536,0
DA:2537,0
DA:2538,0
DA:2539,0
end_of_record
SF:/usr/include/c++/11/iostream
end_of_record
SF:/usr/include/c++/11/ext/aligned_buffer.h
DA:65,0
DA:69,0
DA:73,0
DA:77,0
DA:102,0
DA:104,0
DA:114,0
DA:115,0
end_of_record
SF:/home/eric/2025MQ/MQproject/2025MQWorkSpace/src/tools/muduo/_install/include/muduo/net/TcpConnection.h
DA:56,0
DA:57,0
DA:58,0
DA:59,0
end_of_record
SF:/home/eric/2025MQ/MQproject/2025MQWorkSpace/src/server/broker_server.cpp
FN:27,_ZN7hare_mq12BrokerServerC2EiRKNSt7__cxx1112basic_stringIcSt11char_traitsIcESaIcEEE
FNDA:0,_ZN7hare_mq12BrokerServerC2EiRKNSt7__cxx1112basic_stringIcSt11char_traitsIcESaIcEEE
FN:78,_ZN7hare_mq12BrokerServer5startEv
FNDA:0,_ZN7hare_mq12BrokerServer5startEv
FN:88,_ZN7hare_mq12BrokerServer15printServerInfoEv
FNDA:0,_ZN7hare_mq12BrokerServer15printServerInfoEv
FN:106,_ZN7hare_mq12BrokerServer19printConnectionInfoERKSt10shared_ptrIN5muduo3net13TcpConnectionEE
FNDA:0,_ZN7hare_mq12BrokerServer19printConnectionInfoERKSt10shared_ptrIN5muduo3net13TcpConnectionEE
FN:118,_ZN7hare_mq12BrokerServer12onConnectionERKSt10shared_ptrIN5muduo3net13TcpConnectionEE
FNDA:0,_ZN7hare_mq12BrokerServer12onConnectionERKSt10shared_ptrIN5muduo3net13TcpConnectionEE
FN:133,_ZN7hare_mq12BrokerServer16onUnknownMessageERKSt10shared_ptrIN5muduo3net13TcpConnectionEERKS1_IN6google8protobuf7MessageEENS2_9TimestampE
FNDA:0,_ZN7hare_mq12BrokerServer16onUnknownMessageERKSt10shared_ptrIN5muduo3net13TcpConnectionEERKS1_IN6google8protobuf7MessageEENS2_9TimestampE
FN:160,_ZN7hare_mq12BrokerServer14on_openChannelERKSt10shared_ptrIN5muduo3net13TcpConnectionEERKS1_INS_18openChannelRequestEENS2_9TimestampE
FNDA:0,_ZN7hare_mq12BrokerServer14on_openChannelERKSt10shared_ptrIN5muduo3net13TcpConnectionEERKS1_INS_18openChannelRequestEENS2_9TimestampE
FN:168,_ZN7hare_mq12BrokerServer15on_closeChannelERKSt10shared_ptrIN5muduo3net13TcpConnectionEERKS1_INS_19closeChannelRequestEENS2_9TimestampE
FNDA:0,_ZN7hare_mq12BrokerServer15on_closeChannelERKSt10shared_ptrIN5muduo3net13TcpConnectionEERKS1_INS_19closeChannelRequestEENS2_9TimestampE
FN:176,_ZN7hare_mq12BrokerServer18on_declareExchangeERKSt10shared_ptrIN5muduo3net13TcpConnectionEERKS1_INS_22declareExchangeRequestEENS2_9TimestampE
FNDA:0,_ZN7hare_mq12BrokerServer18on_declareExchangeERKSt10shared_ptrIN5muduo3net13TcpConnectionEERKS1_INS_22declareExchangeRequestEENS2_9TimestampE
FN:185,_ZN7hare_mq12BrokerServer17on_deleteExchangeERKSt10shared_ptrIN5muduo3net13TcpConnectionEERKS1_INS_21deleteExchangeRequestEENS2_9TimestampE
FNDA:0,_ZN7hare_mq12BrokerServer17on_deleteExchangeERKSt10shared_ptrIN5muduo3net13TcpConnectionEERKS1_INS_21deleteExchangeRequestEENS2_9TimestampE
FN:194,_ZN7hare_mq12BrokerServer15on_declareQueueERKSt10shared_ptrIN5muduo3net13TcpConnectionEERKS1_INS_19declareQueueRequestEENS2_9TimestampE
FNDA:0,_ZN7hare_mq12BrokerServer15on_declareQueueERKSt10shared_ptrIN5muduo3net13TcpConnectionEERKS1_INS_19declareQueueRequestEENS2_9TimestampE
FN:203,_ZN7hare_mq12BrokerServer14on_deleteQueueERKSt10shared_ptrIN5muduo3net13TcpConnectionEERKS1_INS_18deleteQueueRequestEENS2_9TimestampE
FNDA:0,_ZN7hare_mq12BrokerServer14on_deleteQueueERKSt10shared_ptrIN5muduo3net13TcpConnectionEERKS1_INS_18deleteQueueRequestEENS2_9TimestampE
FN:212,_ZN7hare_mq12BrokerServer7on_bindERKSt10shared_ptrIN5muduo3net13TcpConnectionEERKS1_INS_11bindRequestEENS2_9TimestampE
FNDA:0,_ZN7hare_mq12BrokerServer7on_bindERKSt10shared_ptrIN5muduo3net13TcpConnectionEERKS1_INS_11bindRequestEENS2_9TimestampE
FN:221,_ZN7hare_mq12BrokerServer9on_unbindERKSt10shared_ptrIN5muduo3net13TcpConnectionEERKS1_INS_13unbindRequestEENS2_9TimestampE
FNDA:0,_ZN7hare_mq12BrokerServer9on_unbindERKSt10shared_ptrIN5muduo3net13TcpConnectionEERKS1_INS_13unbindRequestEENS2_9TimestampE
FN:230,_ZN7hare_mq12BrokerServer15on_basicPublishERKSt10shared_ptrIN5muduo3net13TcpConnectionEERKS1_INS_19basicPublishRequestEENS2_9TimestampE
FNDA:0,_ZN7hare_mq12BrokerServer15on_basicPublishERKSt10shared_ptrIN5muduo3net13TcpConnectionEERKS1_INS_19basicPublishRequestEENS2_9TimestampE
FN:239,_ZN7hare_mq12BrokerServer11on_basicAckERKSt10shared_ptrIN5muduo3net13TcpConnectionEERKS1_INS_15basicAckRequestEENS2_9TimestampE
FNDA:0,_ZN7hare_mq12BrokerServer11on_basicAckERKSt10shared_ptrIN5muduo3net13TcpConnectionEERKS1_INS_15basicAckRequestEENS2_9TimestampE
FN:248,_ZN7hare_mq12BrokerServer15on_basicConsumeERKSt10shared_ptrIN5muduo3net13TcpConnectionEERKS1_INS_19basicConsumeRequestEENS2_9TimestampE
FNDA:0,_ZN7hare_mq12BrokerServer15on_basicConsumeERKSt10shared_ptrIN5muduo3net13TcpConnectionEERKS1_INS_19basicConsumeRequestEENS2_9TimestampE
FN:257,_ZN7hare_mq12BrokerServer14on_basicCancelERKSt10shared_ptrIN5muduo3net13TcpConnectionEERKS1_INS_18basicCancelRequestEENS2_9TimestampE
FNDA:0,_ZN7hare_mq12BrokerServer14on_basicCancelERKSt10shared_ptrIN5muduo3net13TcpConnectionEERKS1_INS_18basicCancelRequestEENS2_9TimestampE
FN:266,_ZN7hare_mq12BrokerServer13on_basicQueryERKSt10shared_ptrIN5muduo3net13TcpConnectionEERKS1_INS_17basicQueryRequestEENS2_9TimestampE
FNDA:0,_ZN7hare_mq12BrokerServer13on_basicQueryERKSt10shared_ptrIN5muduo3net13TcpConnectionEERKS1_INS_17basicQueryRequestEENS2_9TimestampE
DA:27,0
DA:30,0
DA:31,0
DA:32,0
DA:34,0
DA:35,0
DA:37,0
DA:38,0
DA:39,0
DA:42,0
DA:43,0
DA:44,0
DA:45,0
DA:46,0
DA:49,0
DA:50,0
DA:51,0
DA:57,0
DA:58,0
DA:59,0
DA:60,0
DA:61,0
DA:62,0
DA:63,0
DA:64,0
DA:65,0
DA:66,0
DA:67,0
DA:68,0
DA:69,0
DA:73,0
DA:74,0
DA:75,0
DA:78,0
DA:80,0
DA:81,0
DA:82,0
DA:83,0
DA:88,0
DA:90,0
DA:91,0
DA:92,0
DA:93,0
DA:94,0
DA:96,0
DA:98,0
DA:99,0
DA:100,0
DA:101,0
DA:102,0
DA:103,0
DA:104,0
DA:106,0
DA:108,0
DA:109,0
DA:110,0
DA:111,0
DA:112,0
DA:113,0
DA:118,0
DA:120,0
DA:121,0
DA:122,0
DA:123,0
DA:125,0
DA:126,0
DA:128,0
DA:133,0
DA:135,0
DA:136,0
DA:137,0
DA:160,0
DA:162,0
DA:163,0
DA:164,0
DA:165,0
DA:166,0
DA:168,0
DA:170,0
DA:171,0
DA:172,0
DA:173,0
DA:174,0
DA:176,0
DA:178,0
DA:179,0
DA:180,0
DA:181,0
DA:182,0
DA:183,0
DA:185,0
DA:187,0
DA:188,0
DA:189,0
DA:190,0
DA:191,0
DA:192,0
DA:194,0
DA:196,0
DA:197,0
DA:198,0
DA:199,0
DA:200,0
DA:201,0
DA:203,0
DA:205,0
DA:206,0
DA:207,0
DA:208,0
DA:209,0
DA:210,0
DA:212,0
DA:214,0
DA:215,0
DA:216,0
DA:217,0
DA:218,0
DA:219,0
DA:221,0
DA:223,0
DA:224,0
DA:225,0
DA:226,0
DA:227,0
DA:228,0
DA:230,0
DA:232,0
DA:233,0
DA:234,0
DA:235,0
DA:236,0
DA:237,0
DA:239,0
DA:241,0
DA:242,0
DA:243,0
DA:244,0
DA:245,0
DA:246,0
DA:248,0
DA:250,0
DA:251,0
DA:252,0
DA:253,0
DA:254,0
DA:255,0
DA:257,0
DA:259,0
DA:260,0
DA:261,0
DA:262,0
DA:263,0
DA:264,0
DA:266,0
DA:268,0
DA:269,0
DA:270,0
DA:271,0
DA:272,0
DA:273,0
end_of_record
SF:/usr/include/c++/11/bits/alloc_traits.h
DA:463,0
DA:464,0
DA:495,0
DA:496,0
DA:511,0
DA:518,0
DA:531,0
DA:537,0
DA:562,0
DA:563,0
end_of_record
SF:/usr/include/c++/11/bits/stl_construct.h
FN:94,_ZSt12construct_atIN7hare_mq12virtual_hostEJRKPKcRKNSt7__cxx1112basic_stringIcSt11char_traitsIcESaIcEEERSB_EEDTgsnwcvPvLi0E_T_pispcl7declvalIT0_EEEEPSG_DpOSH_
FNDA:0,_ZSt12construct_atIN7hare_mq12virtual_hostEJRKPKcRKNSt7__cxx1112basic_stringIcSt11char_traitsIcESaIcEEERSB_EEDTgsnwcvPvLi0E_T_pispcl7declvalIT0_EEEEPSG_DpOSH_
FN:94,_ZSt12construct_atI13ProtobufCodecJSt5_BindIFM18ProtobufDispatcherKFvRKSt10shared_ptrIN5muduo3net13TcpConnectionEERKS3_IN6google8protobuf7MessageEENS4_9TimestampEEPS2_St12_PlaceholderILi1EESK_ILi2EESK_ILi3EEEEEEDTgsnwcvPvLi0E_T_pispcl7declvalIT0_EEEEPSR_DpOSS_
FNDA:0,_ZSt12construct_atI13ProtobufCodecJSt5_BindIFM18ProtobufDispatcherKFvRKSt10shared_ptrIN5muduo3net13TcpConnectionEERKS3_IN6google8protobuf7MessageEENS4_9TimestampEEPS2_St12_PlaceholderILi1EESK_ILi2EESK_ILi3EEEEEEDTgsnwcvPvLi0E_T_pispcl7declvalIT0_EEEEPSR_DpOSS_
DA:80,0
DA:88,0
DA:94,0
DA:97,0
DA:94,0
DA:97,0
DA:94,0
DA:97,0
end_of_record
SF:/home/eric/2025MQ/MQproject/2025MQWorkSpace/src/tools/muduo/_install/include/muduo/base/LogStream.h
FN:39,_ZN5muduo6detail11FixedBufferILi4000EE6appendEPKcm
FNDA:0,_ZN5muduo6detail11FixedBufferILi4000EE6appendEPKcm
FN:120,_ZN5muduo9LogStreamlsEPKc
FNDA:0,_ZN5muduo9LogStreamlsEPKc
DA:39,0
DA:42,0
DA:44,0
DA:45,0
DA:47,0
DA:54,0
DA:68,0
DA:113,0
DA:114,0
DA:120,0
DA:122,0
DA:124,0
DA:128,0
DA:130,0
DA:138,0
DA:140,0
DA:141,0
end_of_record
SF:/usr/include/c++/11/new
DA:174,0
DA:175,0
end_of_record
SF:/usr/include/c++/11/tuple
DA:80,0
DA:83,0
DA:124,0
DA:187,0
DA:189,0
DA:190,0
DA:192,0
DA:193,0
DA:195,0
DA:196,0
DA:199,0
DA:200,0
DA:233,0
DA:258,0
DA:268,0
DA:271,0
DA:279,0
DA:280,0
DA:283,0
DA:284,0
DA:290,0
DA:292,0
DA:295,0
DA:301,0
DA:424,0
DA:430,0
DA:431,0
DA:434,0
DA:435,0
DA:440,0
DA:441,0
DA:454,0
DA:456,0
DA:609,0
DA:727,0
DA:729,0
DA:742,0
DA:744,0
DA:754,0
DA:756,0
DA:1049,0
DA:1051,0
DA:1077,0
DA:1079,0
DA:1090,0
DA:1377,0
DA:1378,0
DA:1393,0
DA:1394,0
DA:1400,0
DA:1405,0
DA:1408,0
DA:1617,0
DA:1618,0
DA:1804,0
DA:1809,0
DA:1816,0
DA:1819,0
DA:1820,0
end_of_record
SF:/usr/include/c++/11/bits/invoke.h
FN:71,_ZSt13__invoke_implIvRMN7hare_mq12BrokerServerEFvRKSt10shared_ptrIN5muduo3net13TcpConnectionEERKS2_INS0_19basicPublishRequestEENS3_9TimestampEERPS1_JS8_SC_SD_EET_St21__invoke_memfun_derefOT0_OT1_DpOT2_
FNDA:0,_ZSt13__invoke_implIvRMN7hare_mq12BrokerServerEFvRKSt10shared_ptrIN5muduo3net13TcpConnectionEERKS2_INS0_19basicPublishRequestEENS3_9TimestampEERPS1_JS8_SC_SD_EET_St21__invoke_memfun_derefOT0_OT1_DpOT2_
FN:71,_ZSt13__invoke_implIvRMN7hare_mq12BrokerServerEFvRKSt10shared_ptrIN5muduo3net13TcpConnectionEERKS2_INS0_18openChannelRequestEENS3_9TimestampEERPS1_JS8_SC_SD_EET_St21__invoke_memfun_derefOT0_OT1_DpOT2_
FNDA:0,_ZSt13__invoke_implIvRMN7hare_mq12BrokerServerEFvRKSt10shared_ptrIN5muduo3net13TcpConnectionEERKS2_INS0_18openChannelRequestEENS3_9TimestampEERPS1_JS8_SC_SD_EET_St21__invoke_memfun_derefOT0_OT1_DpOT2_
FN:71,_ZSt13__invoke_implIvRMN7hare_mq12BrokerServerEFvRKSt10shared_ptrIN5muduo3net13TcpConnectionEERKS2_INS0_19closeChannelRequestEENS3_9TimestampEERPS1_JS8_SC_SD_EET_St21__invoke_memfun_derefOT0_OT1_DpOT2_
FNDA:0,_ZSt13__invoke_implIvRMN7hare_mq12BrokerServerEFvRKSt10shared_ptrIN5muduo3net13TcpConnectionEERKS2_INS0_19closeChannelRequestEENS3_9TimestampEERPS1_JS8_SC_SD_EET_St21__invoke_memfun_derefOT0_OT1_DpOT2_
FN:71,_ZSt13__invoke_implIvRMN7hare_mq12BrokerServerEFvRKSt10shared_ptrIN5muduo3net13TcpConnectionEERKS2_INS0_22declareExchangeRequestEENS3_9TimestampEERPS1_JS8_SC_SD_EET_St21__invoke_memfun_derefOT0_OT1_DpOT2_
FNDA:0,_ZSt13__invoke_implIvRMN7hare_mq12BrokerServerEFvRKSt10shared_ptrIN5muduo3net13TcpConnectionEERKS2_INS0_22declareExchangeRequestEENS3_9TimestampEERPS1_JS8_SC_SD_EET_St21__invoke_memfun_derefOT0_OT1_DpOT2_
FN:71,_ZSt13__invoke_implIvRMN7hare_mq12BrokerServerEFvRKSt10shared_ptrIN5muduo3net13TcpConnectionEERKS2_INS0_21deleteExchangeRequestEENS3_9TimestampEERPS1_JS8_SC_SD_EET_St21__invoke_memfun_derefOT0_OT1_DpOT2_
FNDA:0,_ZSt13__invoke_implIvRMN7hare_mq12BrokerServerEFvRKSt10shared_ptrIN5muduo3net13TcpConnectionEERKS2_INS0_21deleteExchangeRequestEENS3_9TimestampEERPS1_JS8_SC_SD_EET_St21__invoke_memfun_derefOT0_OT1_DpOT2_
FN:71,_ZSt13__invoke_implIvRMN7hare_mq12BrokerServerEFvRKSt10shared_ptrIN5muduo3net13TcpConnectionEERKS2_INS0_19declareQueueRequestEENS3_9TimestampEERPS1_JS8_SC_SD_EET_St21__invoke_memfun_derefOT0_OT1_DpOT2_
FNDA:0,_ZSt13__invoke_implIvRMN7hare_mq12BrokerServerEFvRKSt10shared_ptrIN5muduo3net13TcpConnectionEERKS2_INS0_19declareQueueRequestEENS3_9TimestampEERPS1_JS8_SC_SD_EET_St21__invoke_memfun_derefOT0_OT1_DpOT2_
FN:71,_ZSt13__invoke_implIvRMN7hare_mq12BrokerServerEFvRKSt10shared_ptrIN5muduo3net13TcpConnectionEERKS2_INS0_18deleteQueueRequestEENS3_9TimestampEERPS1_JS8_SC_SD_EET_St21__invoke_memfun_derefOT0_OT1_DpOT2_
FNDA:0,_ZSt13__invoke_implIvRMN7hare_mq12BrokerServerEFvRKSt10shared_ptrIN5muduo3net13TcpConnectionEERKS2_INS0_18deleteQueueRequestEENS3_9TimestampEERPS1_JS8_SC_SD_EET_St21__invoke_memfun_derefOT0_OT1_DpOT2_
FN:71,_ZSt13__invoke_implIvRMN7hare_mq12BrokerServerEFvRKSt10shared_ptrIN5muduo3net13TcpConnectionEERKS2_INS0_11bindRequestEENS3_9TimestampEERPS1_JS8_SC_SD_EET_St21__invoke_memfun_derefOT0_OT1_DpOT2_
FNDA:0,_ZSt13__invoke_implIvRMN7hare_mq12BrokerServerEFvRKSt10shared_ptrIN5muduo3net13TcpConnectionEERKS2_INS0_11bindRequestEENS3_9TimestampEERPS1_JS8_SC_SD_EET_St21__invoke_memfun_derefOT0_OT1_DpOT2_
FN:71,_ZSt13__invoke_implIvRMN7hare_mq12BrokerServerEFvRKSt10shared_ptrIN5muduo3net13TcpConnectionEERKS2_INS0_13unbindRequestEENS3_9TimestampEERPS1_JS8_SC_SD_EET_St21__invoke_memfun_derefOT0_OT1_DpOT2_
FNDA:0,_ZSt13__invoke_implIvRMN7hare_mq12BrokerServerEFvRKSt10shared_ptrIN5muduo3net13TcpConnectionEERKS2_INS0_13unbindRequestEENS3_9TimestampEERPS1_JS8_SC_SD_EET_St21__invoke_memfun_derefOT0_OT1_DpOT2_
FN:71,_ZSt13__invoke_implIvRM18ProtobufDispatcherKFvRKSt10shared_ptrIN5muduo3net13TcpConnectionEERKS1_IN6google8protobuf7MessageEENS2_9TimestampEERPS0_JS7_SD_SE_EET_St21__invoke_memfun_derefOT0_OT1_DpOT2_
FNDA:0,_ZSt13__invoke_implIvRM18ProtobufDispatcherKFvRKSt10shared_ptrIN5muduo3net13TcpConnectionEERKS1_IN6google8protobuf7MessageEENS2_9TimestampEERPS0_JS7_SD_SE_EET_St21__invoke_memfun_derefOT0_OT1_DpOT2_
FN:71,_ZSt13__invoke_implIvRMN7hare_mq12BrokerServerEFvRKSt10shared_ptrIN5muduo3net13TcpConnectionEERKS2_INS0_15basicAckRequestEENS3_9TimestampEERPS1_JS8_SC_SD_EET_St21__invoke_memfun_derefOT0_OT1_DpOT2_
FNDA:0,_ZSt13__invoke_implIvRMN7hare_mq12BrokerServerEFvRKSt10shared_ptrIN5muduo3net13TcpConnectionEERKS2_INS0_15basicAckRequestEENS3_9TimestampEERPS1_JS8_SC_SD_EET_St21__invoke_memfun_derefOT0_OT1_DpOT2_
FN:71,_ZSt13__invoke_implIvRMN7hare_mq12BrokerServerEFvRKSt10shared_ptrIN5muduo3net13TcpConnectionEERKS2_INS0_19basicConsumeRequestEENS3_9TimestampEERPS1_JS8_SC_SD_EET_St21__invoke_memfun_derefOT0_OT1_DpOT2_
FNDA:0,_ZSt13__invoke_implIvRMN7hare_mq12BrokerServerEFvRKSt10shared_ptrIN5muduo3net13TcpConnectionEERKS2_INS0_19basicConsumeRequestEENS3_9TimestampEERPS1_JS8_SC_SD_EET_St21__invoke_memfun_derefOT0_OT1_DpOT2_
FN:71,_ZSt13__invoke_implIvRMN7hare_mq12BrokerServerEFvRKSt10shared_ptrIN5muduo3net13TcpConnectionEERKS2_INS0_18basicCancelRequestEENS3_9TimestampEERPS1_JS8_SC_SD_EET_St21__invoke_memfun_derefOT0_OT1_DpOT2_
FNDA:0,_ZSt13__invoke_implIvRMN7hare_mq12BrokerServerEFvRKSt10shared_ptrIN5muduo3net13TcpConnectionEERKS2_INS0_18basicCancelRequestEENS3_9TimestampEERPS1_JS8_SC_SD_EET_St21__invoke_memfun_derefOT0_OT1_DpOT2_
FN:71,_ZSt13__invoke_implIvRMN7hare_mq12BrokerServerEFvRKSt10shared_ptrIN5muduo3net13TcpConnectionEERKS2_INS0_17basicQueryRequestEENS3_9TimestampEERPS1_JS8_SC_SD_EET_St21__invoke_memfun_derefOT0_OT1_DpOT2_
FNDA:0,_ZSt13__invoke_implIvRMN7hare_mq12BrokerServerEFvRKSt10shared_ptrIN5muduo3net13TcpConnectionEERKS2_INS0_17basicQueryRequestEENS3_9TimestampEERPS1_JS8_SC_SD_EET_St21__invoke_memfun_derefOT0_OT1_DpOT2_
FN:71,_ZSt13__invoke_implIvRM13ProtobufCodecFvRKSt10shared_ptrIN5muduo3net13TcpConnectionEEPNS3_6BufferENS2_9TimestampEERS1_IS0_EJS7_S9_SA_EET_St21__invoke_memfun_derefOT0_OT1_DpOT2_
FNDA:0,_ZSt13__invoke_implIvRM13ProtobufCodecFvRKSt10shared_ptrIN5muduo3net13TcpConnectionEEPNS3_6BufferENS2_9TimestampEERS1_IS0_EJS7_S9_SA_EET_St21__invoke_memfun_derefOT0_OT1_DpOT2_
FN:71,_ZSt13__invoke_implIvRMN7hare_mq12BrokerServerEFvRKSt10shared_ptrIN5muduo3net13TcpConnectionEEERPS1_JS8_EET_St21__invoke_memfun_derefOT0_OT1_DpOT2_
FNDA:0,_ZSt13__invoke_implIvRMN7hare_mq12BrokerServerEFvRKSt10shared_ptrIN5muduo3net13TcpConnectionEEERPS1_JS8_EET_St21__invoke_memfun_derefOT0_OT1_DpOT2_
FN:71,_ZSt13__invoke_implIvRMN7hare_mq12BrokerServerEFvRKSt10shared_ptrIN5muduo3net13TcpConnectionEERKS2_IN6google8protobuf7MessageEENS3_9TimestampEERPS1_JS8_SE_SF_EET_St21__invoke_memfun_derefOT0_OT1_DpOT2_
FNDA:0,_ZSt13__invoke_implIvRMN7hare_mq12BrokerServerEFvRKSt10shared_ptrIN5muduo3net13TcpConnectionEERKS2_IN6google8protobuf7MessageEENS3_9TimestampEERPS1_JS8_SE_SF_EET_St21__invoke_memfun_derefOT0_OT1_DpOT2_
DA:60,0
DA:61,0
DA:71,0
DA:74,0
DA:71,0
DA:74,0
DA:71,0
DA:74,0
DA:71,0
DA:74,0
DA:71,0
DA:74,0
DA:71,0
DA:74,0
DA:71,0
DA:74,0
DA:71,0
DA:74,0
DA:71,0
DA:74,0
DA:71,0
DA:74,0
DA:71,0
DA:74,0
DA:71,0
DA:74,0
DA:71,0
DA:74,0
DA:71,0
DA:74,0
DA:71,0
DA:74,0
DA:71,0
DA:74,0
DA:71,0
DA:74,0
DA:90,0
DA:96,0
DA:104,0
DA:111,0
end_of_record
SF:/home/eric/2025MQ/MQproject/2025MQWorkSpace/src/tools/muduo/_install/include/muduo/base/Logging.h
FN:36,_ZN5muduo6Logger10SourceFileC2ILi29EEERAT__Kc
FNDA:0,_ZN5muduo6Logger10SourceFileC2ILi29EEERAT__Kc
DA:36,0
DA:37,0
DA:38,0
DA:40,0
DA:41,0
DA:43,0
DA:44,0
DA:46,0
DA:69,0
DA:103,0
DA:105,0
end_of_record
SF:/home/eric/2025MQ/MQproject/2025MQWorkSpace/src/server/connection.hpp
DA:59,0
DA:60,0
end_of_record
SF:/usr/include/c++/11/bits/stl_iterator_base_funcs.h
DA:98,0
DA:104,0
DA:138,0
DA:141,0
end_of_record
SF:/usr/include/c++/11/functional
FN:418,_ZNSt5_BindIFMN7hare_mq12BrokerServerEFvRKSt10shared_ptrIN5muduo3net13TcpConnectionEERKS2_IN6google8protobuf7MessageEENS3_9TimestampEEPS1_St12_PlaceholderILi1EESJ_ILi2EESJ_ILi3EEEE6__callIvJS8_SE_OSF_EJLm0ELm1ELm2ELm3EEEET_OSt5tupleIJDpT0_EESt12_Index_tupleIJXspT1_EEE
FNDA:0,_ZNSt5_BindIFMN7hare_mq12BrokerServerEFvRKSt10shared_ptrIN5muduo3net13TcpConnectionEERKS2_IN6google8protobuf7MessageEENS3_9TimestampEEPS1_St12_PlaceholderILi1EESJ_ILi2EESJ_ILi3EEEE6__callIvJS8_SE_OSF_EJLm0ELm1ELm2ELm3EEEET_OSt5tupleIJDpT0_EESt12_Index_tupleIJXspT1_EEE
FN:418,_ZNSt5_BindIFMN7hare_mq12BrokerServerEFvRKSt10shared_ptrIN5muduo3net13TcpConnectionEERKS2_INS0_18openChannelRequestEENS3_9TimestampEEPS1_St12_PlaceholderILi1EESH_ILi2EESH_ILi3EEEE6__callIvJS8_SC_OSD_EJLm0ELm1ELm2ELm3EEEET_OSt5tupleIJDpT0_EESt12_Index_tupleIJXspT1_EEE
FNDA:0,_ZNSt5_BindIFMN7hare_mq12BrokerServerEFvRKSt10shared_ptrIN5muduo3net13TcpConnectionEERKS2_INS0_18openChannelRequestEENS3_9TimestampEEPS1_St12_PlaceholderILi1EESH_ILi2EESH_ILi3EEEE6__callIvJS8_SC_OSD_EJLm0ELm1ELm2ELm3EEEET_OSt5tupleIJDpT0_EESt12_Index_tupleIJXspT1_EEE
FN:418,_ZNSt5_BindIFMN7hare_mq12BrokerServerEFvRKSt10shared_ptrIN5muduo3net13TcpConnectionEERKS2_INS0_19closeChannelRequestEENS3_9TimestampEEPS1_St12_PlaceholderILi1EESH_ILi2EESH_ILi3EEEE6__callIvJS8_SC_OSD_EJLm0ELm1ELm2ELm3EEEET_OSt5tupleIJDpT0_EESt12_Index_tupleIJXspT1_EEE
FNDA:0,_ZNSt5_BindIFMN7hare_mq12BrokerServerEFvRKSt10shared_ptrIN5muduo3net13TcpConnectionEERKS2_INS0_19closeChannelRequestEENS3_9TimestampEEPS1_St12_PlaceholderILi1EESH_ILi2EESH_ILi3EEEE6__callIvJS8_SC_OSD_EJLm0ELm1ELm2ELm3EEEET_OSt5tupleIJDpT0_EESt12_Index_tupleIJXspT1_EEE
FN:418,_ZNSt5_BindIFMN7hare_mq12BrokerServerEFvRKSt10shared_ptrIN5muduo3net13TcpConnectionEERKS2_INS0_22declareExchangeRequestEENS3_9TimestampEEPS1_St12_PlaceholderILi1EESH_ILi2EESH_ILi3EEEE6__callIvJS8_SC_OSD_EJLm0ELm1ELm2ELm3EEEET_OSt5tupleIJDpT0_EESt12_Index_tupleIJXspT1_EEE
FNDA:0,_ZNSt5_BindIFMN7hare_mq12BrokerServerEFvRKSt10shared_ptrIN5muduo3net13TcpConnectionEERKS2_INS0_22declareExchangeRequestEENS3_9TimestampEEPS1_St12_PlaceholderILi1EESH_ILi2EESH_ILi3EEEE6__callIvJS8_SC_OSD_EJLm0ELm1ELm2ELm3EEEET_OSt5tupleIJDpT0_EESt12_Index_tupleIJXspT1_EEE
FN:418,_ZNSt5_BindIFMN7hare_mq12BrokerServerEFvRKSt10shared_ptrIN5muduo3net13TcpConnectionEERKS2_INS0_21deleteExchangeRequestEENS3_9TimestampEEPS1_St12_PlaceholderILi1EESH_ILi2EESH_ILi3EEEE6__callIvJS8_SC_OSD_EJLm0ELm1ELm2ELm3EEEET_OSt5tupleIJDpT0_EESt12_Index_tupleIJXspT1_EEE
FNDA:0,_ZNSt5_BindIFMN7hare_mq12BrokerServerEFvRKSt10shared_ptrIN5muduo3net13TcpConnectionEERKS2_INS0_21deleteExchangeRequestEENS3_9TimestampEEPS1_St12_PlaceholderILi1EESH_ILi2EESH_ILi3EEEE6__callIvJS8_SC_OSD_EJLm0ELm1ELm2ELm3EEEET_OSt5tupleIJDpT0_EESt12_Index_tupleIJXspT1_EEE
FN:418,_ZNSt5_BindIFMN7hare_mq12BrokerServerEFvRKSt10shared_ptrIN5muduo3net13TcpConnectionEERKS2_INS0_19declareQueueRequestEENS3_9TimestampEEPS1_St12_PlaceholderILi1EESH_ILi2EESH_ILi3EEEE6__callIvJS8_SC_OSD_EJLm0ELm1ELm2ELm3EEEET_OSt5tupleIJDpT0_EESt12_Index_tupleIJXspT1_EEE
FNDA:0,_ZNSt5_BindIFMN7hare_mq12BrokerServerEFvRKSt10shared_ptrIN5muduo3net13TcpConnectionEERKS2_INS0_19declareQueueRequestEENS3_9TimestampEEPS1_St12_PlaceholderILi1EESH_ILi2EESH_ILi3EEEE6__callIvJS8_SC_OSD_EJLm0ELm1ELm2ELm3EEEET_OSt5tupleIJDpT0_EESt12_Index_tupleIJXspT1_EEE
FN:418,_ZNSt5_BindIFMN7hare_mq12BrokerServerEFvRKSt10shared_ptrIN5muduo3net13TcpConnectionEERKS2_INS0_18deleteQueueRequestEENS3_9TimestampEEPS1_St12_PlaceholderILi1EESH_ILi2EESH_ILi3EEEE6__callIvJS8_SC_OSD_EJLm0ELm1ELm2ELm3EEEET_OSt5tupleIJDpT0_EESt12_Index_tupleIJXspT1_EEE
FNDA:0,_ZNSt5_BindIFMN7hare_mq12BrokerServerEFvRKSt10shared_ptrIN5muduo3net13TcpConnectionEERKS2_INS0_18deleteQueueRequestEENS3_9TimestampEEPS1_St12_PlaceholderILi1EESH_ILi2EESH_ILi3EEEE6__callIvJS8_SC_OSD_EJLm0ELm1ELm2ELm3EEEET_OSt5tupleIJDpT0_EESt12_Index_tupleIJXspT1_EEE
FN:418,_ZNSt5_BindIFMN7hare_mq12BrokerServerEFvRKSt10shared_ptrIN5muduo3net13TcpConnectionEERKS2_INS0_11bindRequestEENS3_9TimestampEEPS1_St12_PlaceholderILi1EESH_ILi2EESH_ILi3EEEE6__callIvJS8_SC_OSD_EJLm0ELm1ELm2ELm3EEEET_OSt5tupleIJDpT0_EESt12_Index_tupleIJXspT1_EEE
FNDA:0,_ZNSt5_BindIFMN7hare_mq12BrokerServerEFvRKSt10shared_ptrIN5muduo3net13TcpConnectionEERKS2_INS0_11bindRequestEENS3_9TimestampEEPS1_St12_PlaceholderILi1EESH_ILi2EESH_ILi3EEEE6__callIvJS8_SC_OSD_EJLm0ELm1ELm2ELm3EEEET_OSt5tupleIJDpT0_EESt12_Index_tupleIJXspT1_EEE
FN:418,_ZNSt5_BindIFMN7hare_mq12BrokerServerEFvRKSt10shared_ptrIN5muduo3net13TcpConnectionEERKS2_INS0_13unbindRequestEENS3_9TimestampEEPS1_St12_PlaceholderILi1EESH_ILi2EESH_ILi3EEEE6__callIvJS8_SC_OSD_EJLm0ELm1ELm2ELm3EEEET_OSt5tupleIJDpT0_EESt12_Index_tupleIJXspT1_EEE
FNDA:0,_ZNSt5_BindIFMN7hare_mq12BrokerServerEFvRKSt10shared_ptrIN5muduo3net13TcpConnectionEERKS2_INS0_13unbindRequestEENS3_9TimestampEEPS1_St12_PlaceholderILi1EESH_ILi2EESH_ILi3EEEE6__callIvJS8_SC_OSD_EJLm0ELm1ELm2ELm3EEEET_OSt5tupleIJDpT0_EESt12_Index_tupleIJXspT1_EEE
FN:418,_ZNSt5_BindIFMN7hare_mq12BrokerServerEFvRKSt10shared_ptrIN5muduo3net13TcpConnectionEERKS2_INS0_19basicPublishRequestEENS3_9TimestampEEPS1_St12_PlaceholderILi1EESH_ILi2EESH_ILi3EEEE6__callIvJS8_SC_OSD_EJLm0ELm1ELm2ELm3EEEET_OSt5tupleIJDpT0_EESt12_Index_tupleIJXspT1_EEE
FNDA:0,_ZNSt5_BindIFMN7hare_mq12BrokerServerEFvRKSt10shared_ptrIN5muduo3net13TcpConnectionEERKS2_INS0_19basicPublishRequestEENS3_9TimestampEEPS1_St12_PlaceholderILi1EESH_ILi2EESH_ILi3EEEE6__callIvJS8_SC_OSD_EJLm0ELm1ELm2ELm3EEEET_OSt5tupleIJDpT0_EESt12_Index_tupleIJXspT1_EEE
FN:418,_ZNSt5_BindIFMN7hare_mq12BrokerServerEFvRKSt10shared_ptrIN5muduo3net13TcpConnectionEERKS2_INS0_15basicAckRequestEENS3_9TimestampEEPS1_St12_PlaceholderILi1EESH_ILi2EESH_ILi3EEEE6__callIvJS8_SC_OSD_EJLm0ELm1ELm2ELm3EEEET_OSt5tupleIJDpT0_EESt12_Index_tupleIJXspT1_EEE
FNDA:0,_ZNSt5_BindIFMN7hare_mq12BrokerServerEFvRKSt10shared_ptrIN5muduo3net13TcpConnectionEERKS2_INS0_15basicAckRequestEENS3_9TimestampEEPS1_St12_PlaceholderILi1EESH_ILi2EESH_ILi3EEEE6__callIvJS8_SC_OSD_EJLm0ELm1ELm2ELm3EEEET_OSt5tupleIJDpT0_EESt12_Index_tupleIJXspT1_EEE
FN:418,_ZNSt5_BindIFMN7hare_mq12BrokerServerEFvRKSt10shared_ptrIN5muduo3net13TcpConnectionEERKS2_INS0_19basicConsumeRequestEENS3_9TimestampEEPS1_St12_PlaceholderILi1EESH_ILi2EESH_ILi3EEEE6__callIvJS8_SC_OSD_EJLm0ELm1ELm2ELm3EEEET_OSt5tupleIJDpT0_EESt12_Index_tupleIJXspT1_EEE
FNDA:0,_ZNSt5_BindIFMN7hare_mq12BrokerServerEFvRKSt10shared_ptrIN5muduo3net13TcpConnectionEERKS2_INS0_19basicConsumeRequestEENS3_9TimestampEEPS1_St12_PlaceholderILi1EESH_ILi2EESH_ILi3EEEE6__callIvJS8_SC_OSD_EJLm0ELm1ELm2ELm3EEEET_OSt5tupleIJDpT0_EESt12_Index_tupleIJXspT1_EEE
FN:418,_ZNSt5_BindIFMN7hare_mq12BrokerServerEFvRKSt10shared_ptrIN5muduo3net13TcpConnectionEERKS2_INS0_18basicCancelRequestEENS3_9TimestampEEPS1_St12_PlaceholderILi1EESH_ILi2EESH_ILi3EEEE6__callIvJS8_SC_OSD_EJLm0ELm1ELm2ELm3EEEET_OSt5tupleIJDpT0_EESt12_Index_tupleIJXspT1_EEE
FNDA:0,_ZNSt5_BindIFMN7hare_mq12BrokerServerEFvRKSt10shared_ptrIN5muduo3net13TcpConnectionEERKS2_INS0_18basicCancelRequestEENS3_9TimestampEEPS1_St12_PlaceholderILi1EESH_ILi2EESH_ILi3EEEE6__callIvJS8_SC_OSD_EJLm0ELm1ELm2ELm3EEEET_OSt5tupleIJDpT0_EESt12_Index_tupleIJXspT1_EEE
FN:418,_ZNSt5_BindIFMN7hare_mq12BrokerServerEFvRKSt10shared_ptrIN5muduo3net13TcpConnectionEERKS2_INS0_17basicQueryRequestEENS3_9TimestampEEPS1_St12_PlaceholderILi1EESH_ILi2EESH_ILi3EEEE6__callIvJS8_SC_OSD_EJLm0ELm1ELm2ELm3EEEET_OSt5tupleIJDpT0_EESt12_Index_tupleIJXspT1_EEE
FNDA:0,_ZNSt5_BindIFMN7hare_mq12BrokerServerEFvRKSt10shared_ptrIN5muduo3net13TcpConnectionEERKS2_INS0_17basicQueryRequestEENS3_9TimestampEEPS1_St12_PlaceholderILi1EESH_ILi2EESH_ILi3EEEE6__callIvJS8_SC_OSD_EJLm0ELm1ELm2ELm3EEEET_OSt5tupleIJDpT0_EESt12_Index_tupleIJXspT1_EEE
FN:418,_ZNSt5_BindIFM13ProtobufCodecFvRKSt10shared_ptrIN5muduo3net13TcpConnectionEEPNS3_6BufferENS2_9TimestampEES1_IS0_ESt12_PlaceholderILi1EESE_ILi2EESE_ILi3EEEE6__callIvJS7_OS9_OSA_EJLm0ELm1ELm2ELm3EEEET_OSt5tupleIJDpT0_EESt12_Index_tupleIJXspT1_EEE
FNDA:0,_ZNSt5_BindIFM13ProtobufCodecFvRKSt10shared_ptrIN5muduo3net13TcpConnectionEEPNS3_6BufferENS2_9TimestampEES1_IS0_ESt12_PlaceholderILi1EESE_ILi2EESE_ILi3EEEE6__callIvJS7_OS9_OSA_EJLm0ELm1ELm2ELm3EEEET_OSt5tupleIJDpT0_EESt12_Index_tupleIJXspT1_EEE
FN:418,_ZNSt5_BindIFM18ProtobufDispatcherKFvRKSt10shared_ptrIN5muduo3net13TcpConnectionEERKS1_IN6google8protobuf7MessageEENS2_9TimestampEEPS0_St12_PlaceholderILi1EESI_ILi2EESI_ILi3EEEE6__callIvJS7_SD_OSE_EJLm0ELm1ELm2ELm3EEEET_OSt5tupleIJDpT0_EESt12_Index_tupleIJXspT1_EEE
FNDA:0,_ZNSt5_BindIFM18ProtobufDispatcherKFvRKSt10shared_ptrIN5muduo3net13TcpConnectionEERKS1_IN6google8protobuf7MessageEENS2_9TimestampEEPS0_St12_PlaceholderILi1EESI_ILi2EESI_ILi3EEEE6__callIvJS7_SD_OSE_EJLm0ELm1ELm2ELm3EEEET_OSt5tupleIJDpT0_EESt12_Index_tupleIJXspT1_EEE
FN:493,_ZNSt5_BindIFM13ProtobufCodecFvRKSt10shared_ptrIN5muduo3net13TcpConnectionEEPNS3_6BufferENS2_9TimestampEES1_IS0_ESt12_PlaceholderILi1EESE_ILi2EESE_ILi3EEEEC2ERKSJ_
FNDA:0,_ZNSt5_BindIFM13ProtobufCodecFvRKSt10shared_ptrIN5muduo3net13TcpConnectionEEPNS3_6BufferENS2_9TimestampEES1_IS0_ESt12_PlaceholderILi1EESE_ILi2EESE_ILi3EEEEC2ERKSJ_
DA:363,0
DA:366,0
DA:405,0
DA:418,0
DA:420,0
DA:421,0
DA:422,0
DA:418,0
DA:420,0
DA:421,0
DA:422,0
DA:418,0
DA:420,0
DA:421,0
DA:422,0
DA:418,0
DA:420,0
DA:421,0
DA:422,0
DA:418,0
DA:420,0
DA:421,0
DA:422,0
DA:418,0
DA:420,0
DA:421,0
DA:422,0
DA:418,0
DA:420,0
DA:421,0
DA:422,0
DA:418,0
DA:420,0
DA:421,0
DA:422,0
DA:418,0
DA:420,0
DA:421,0
DA:422,0
DA:418,0
DA:420,0
DA:421,0
DA:422,0
DA:418,0
DA:420,0
DA:421,0
DA:422,0
DA:418,0
DA:420,0
DA:421,0
DA:422,0
DA:418,0
DA:420,0
DA:421,0
DA:422,0
DA:418,0
DA:420,0
DA:421,0
DA:422,0
DA:418,0
DA:420,0
DA:421,0
DA:422,0
DA:418,0
DA:420,0
DA:421,0
DA:422,0
DA:418,0
DA:420,0
DA:421,0
DA:489,0
DA:490,0
DA:493,0
DA:494,0
DA:501,0
DA:503,0
DA:789,0
DA:793,0
end_of_record
SF:/usr/include/c++/11/bits/stl_pair.h
DA:211,0
DA:322,0
DA:323,0
DA:336,0
DA:337,0
DA:352,0
DA:353,0
end_of_record
SF:/home/eric/2025MQ/MQproject/2025MQWorkSpace/src/common/protocol.pb.h
DA:189,0
DA:190,0
DA:192,0
DA:193,0
DA:198,0
DA:199,0
DA:201,0
DA:202,0
DA:353,0
DA:354,0
DA:356,0
DA:357,0
DA:362,0
DA:363,0
DA:365,0
DA:366,0
DA:545,0
DA:546,0
DA:548,0
DA:549,0
DA:554,0
DA:555,0
DA:557,0
DA:558,0
DA:784,0
DA:785,0
DA:787,0
DA:788,0
DA:793,0
DA:794,0
DA:796,0
DA:797,0
DA:992,0
DA:993,0
DA:995,0
DA:996,0
DA:1001,0
DA:1002,0
DA:1004,0
DA:1005,0
DA:1231,0
DA:1232,0
DA:1234,0
DA:1235,0
DA:1240,0
DA:1241,0
DA:1243,0
DA:1244,0
DA:1411,0
DA:1412,0
DA:1414,0
DA:1415,0
DA:1420,0
DA:1421,0
DA:1423,0
DA:1424,0
DA:1623,0
DA:1624,0
DA:1626,0
DA:1627,0
DA:1632,0
DA:1633,0
DA:1635,0
DA:1636,0
DA:1819,0
DA:1820,0
DA:1822,0
DA:1823,0
DA:1828,0
DA:1829,0
DA:1831,0
DA:1832,0
DA:2035,0
DA:2036,0
DA:2038,0
DA:2039,0
DA:2044,0
DA:2045,0
DA:2047,0
DA:2048,0
DA:2231,0
DA:2232,0
DA:2234,0
DA:2235,0
DA:2240,0
DA:2241,0
DA:2243,0
DA:2244,0
DA:2438,0
DA:2439,0
DA:2441,0
DA:2442,0
DA:2447,0
DA:2448,0
DA:2450,0
DA:2451,0
DA:2634,0
DA:2635,0
DA:2637,0
DA:2638,0
DA:2643,0
DA:2644,0
DA:2646,0
DA:2647,0
DA:3595,0
DA:3597,0
DA:3611,0
DA:3612,0
DA:3838,0
DA:3840,0
DA:3854,0
DA:3855,0
DA:3994,0
DA:3996,0
DA:4010,0
DA:4011,0
DA:4237,0
DA:4239,0
DA:4253,0
DA:4254,0
DA:4391,0
DA:4393,0
DA:4407,0
DA:4408,0
DA:4645,0
DA:4647,0
DA:4661,0
DA:4662,0
DA:4849,0
DA:4851,0
DA:4865,0
DA:4866,0
DA:5138,0
DA:5140,0
DA:5154,0
DA:5155,0
DA:5342,0
DA:5344,0
DA:5358,0
DA:5359,0
DA:5566,0
DA:5568,0
DA:5582,0
DA:5583,0
DA:5770,0
DA:5772,0
DA:5786,0
DA:5787,0
end_of_record
SF:/usr/include/c++/11/ext/new_allocator.h
FN:103,_ZN9__gnu_cxx13new_allocatorIcE8allocateEmPKv
FNDA:0,_ZN9__gnu_cxx13new_allocatorIcE8allocateEmPKv
FN:103,_ZN9__gnu_cxx13new_allocatorISt23_Sp_counted_ptr_inplaceI13ProtobufCodecSaIS2_ELNS_12_Lock_policyE2EEE8allocateEmPKv
FNDA:0,_ZN9__gnu_cxx13new_allocatorISt23_Sp_counted_ptr_inplaceI13ProtobufCodecSaIS2_ELNS_12_Lock_policyE2EEE8allocateEmPKv
FN:103,_ZN9__gnu_cxx13new_allocatorISt23_Sp_counted_ptr_inplaceIN7hare_mq12virtual_hostESaIS3_ELNS_12_Lock_policyE2EEE8allocateEmPKv
FNDA:0,_ZN9__gnu_cxx13new_allocatorISt23_Sp_counted_ptr_inplaceIN7hare_mq12virtual_hostESaIS3_ELNS_12_Lock_policyE2EEE8allocateEmPKv
FN:103,_ZN9__gnu_cxx13new_allocatorISt23_Sp_counted_ptr_inplaceIN7hare_mq16consumer_managerESaIS3_ELNS_12_Lock_policyE2EEE8allocateEmPKv
FNDA:0,_ZN9__gnu_cxx13new_allocatorISt23_Sp_counted_ptr_inplaceIN7hare_mq16consumer_managerESaIS3_ELNS_12_Lock_policyE2EEE8allocateEmPKv
FN:103,_ZN9__gnu_cxx13new_allocatorISt23_Sp_counted_ptr_inplaceIN7hare_mq18connection_managerESaIS3_ELNS_12_Lock_policyE2EEE8allocateEmPKv
FNDA:0,_ZN9__gnu_cxx13new_allocatorISt23_Sp_counted_ptr_inplaceIN7hare_mq18connection_managerESaIS3_ELNS_12_Lock_policyE2EEE8allocateEmPKv
FN:103,_ZN9__gnu_cxx13new_allocatorISt23_Sp_counted_ptr_inplaceIN7hare_mq11thread_poolESaIS3_ELNS_12_Lock_policyE2EEE8allocateEmPKv
FNDA:0,_ZN9__gnu_cxx13new_allocatorISt23_Sp_counted_ptr_inplaceIN7hare_mq11thread_poolESaIS3_ELNS_12_Lock_policyE2EEE8allocateEmPKv
FN:103,_ZN9__gnu_cxx13new_allocatorISt13_Rb_tree_nodeISt4pairIKPKN6google8protobuf10DescriptorESt10shared_ptrI8CallbackEEEE8allocateEmPKv
FNDA:0,_ZN9__gnu_cxx13new_allocatorISt13_Rb_tree_nodeISt4pairIKPKN6google8protobuf10DescriptorESt10shared_ptrI8CallbackEEEE8allocateEmPKv
FN:132,_ZN9__gnu_cxx13new_allocatorISt23_Sp_counted_ptr_inplaceISt5mutexSaIS2_ELNS_12_Lock_policyE2EEE10deallocateEPS5_m
FNDA:0,_ZN9__gnu_cxx13new_allocatorISt23_Sp_counted_ptr_inplaceISt5mutexSaIS2_ELNS_12_Lock_policyE2EEE10deallocateEPS5_m
FN:132,_ZN9__gnu_cxx13new_allocatorIcE10deallocateEPcm
FNDA:0,_ZN9__gnu_cxx13new_allocatorIcE10deallocateEPcm
FN:132,_ZN9__gnu_cxx13new_allocatorISt13_Rb_tree_nodeISt4pairIKPKN6google8protobuf10DescriptorESt10shared_ptrI8CallbackEEEE10deallocateEPSD_m
FNDA:0,_ZN9__gnu_cxx13new_allocatorISt13_Rb_tree_nodeISt4pairIKPKN6google8protobuf10DescriptorESt10shared_ptrI8CallbackEEEE10deallocateEPSD_m
FN:132,_ZN9__gnu_cxx13new_allocatorIPNSt8__detail15_Hash_node_baseEE10deallocateEPS3_m
FNDA:0,_ZN9__gnu_cxx13new_allocatorIPNSt8__detail15_Hash_node_baseEE10deallocateEPS3_m
FN:132,_ZN9__gnu_cxx13new_allocatorINSt8__detail10_Hash_nodeISt4pairIKNSt7__cxx1112basic_stringIcSt11char_traitsIcESaIcEEESt10shared_ptrIN7hare_mq9msg_queueEEELb1EEEE10deallocateEPSG_m
FNDA:0,_ZN9__gnu_cxx13new_allocatorINSt8__detail10_Hash_nodeISt4pairIKNSt7__cxx1112basic_stringIcSt11char_traitsIcESaIcEEESt10shared_ptrIN7hare_mq9msg_queueEEELb1EEEE10deallocateEPSG_m
FN:132,_ZN9__gnu_cxx13new_allocatorINSt8__detail10_Hash_nodeISt4pairIKNSt7__cxx1112basic_stringIcSt11char_traitsIcESaIcEEESt10shared_ptrIN7hare_mq7bindingEEELb1EEEE10deallocateEPSG_m
FNDA:0,_ZN9__gnu_cxx13new_allocatorINSt8__detail10_Hash_nodeISt4pairIKNSt7__cxx1112basic_stringIcSt11char_traitsIcESaIcEEESt10shared_ptrIN7hare_mq7bindingEEELb1EEEE10deallocateEPSG_m
FN:132,_ZN9__gnu_cxx13new_allocatorISt23_Sp_counted_ptr_inplaceI13ProtobufCodecSaIS2_ELNS_12_Lock_policyE2EEE10deallocateEPS5_m
FNDA:0,_ZN9__gnu_cxx13new_allocatorISt23_Sp_counted_ptr_inplaceI13ProtobufCodecSaIS2_ELNS_12_Lock_policyE2EEE10deallocateEPS5_m
FN:132,_ZN9__gnu_cxx13new_allocatorISt23_Sp_counted_ptr_inplaceIN7hare_mq12virtual_hostESaIS3_ELNS_12_Lock_policyE2EEE10deallocateEPS6_m
FNDA:0,_ZN9__gnu_cxx13new_allocatorISt23_Sp_counted_ptr_inplaceIN7hare_mq12virtual_hostESaIS3_ELNS_12_Lock_policyE2EEE10deallocateEPS6_m
FN:132,_ZN9__gnu_cxx13new_allocatorISt23_Sp_counted_ptr_inplaceIN7hare_mq16consumer_managerESaIS3_ELNS_12_Lock_policyE2EEE10deallocateEPS6_m
FNDA:0,_ZN9__gnu_cxx13new_allocatorISt23_Sp_counted_ptr_inplaceIN7hare_mq16consumer_managerESaIS3_ELNS_12_Lock_policyE2EEE10deallocateEPS6_m
FN:132,_ZN9__gnu_cxx13new_allocatorISt23_Sp_counted_ptr_inplaceIN7hare_mq18connection_managerESaIS3_ELNS_12_Lock_policyE2EEE10deallocateEPS6_m
FNDA:0,_ZN9__gnu_cxx13new_allocatorISt23_Sp_counted_ptr_inplaceIN7hare_mq18connection_managerESaIS3_ELNS_12_Lock_policyE2EEE10deallocateEPS6_m
FN:132,_ZN9__gnu_cxx13new_allocatorISt23_Sp_counted_ptr_inplaceIN7hare_mq11thread_poolESaIS3_ELNS_12_Lock_policyE2EEE10deallocateEPS6_m
FNDA:0,_ZN9__gnu_cxx13new_allocatorISt23_Sp_counted_ptr_inplaceIN7hare_mq11thread_poolESaIS3_ELNS_12_Lock_policyE2EEE10deallocateEPS6_m
FN:132,_ZN9__gnu_cxx13new_allocatorINSt8__detail10_Hash_nodeISt4pairIKNSt7__cxx1112basic_stringIcSt11char_traitsIcESaIcEEESt10shared_ptrIN7hare_mq14queue_consumerEEELb1EEEE10deallocateEPSG_m
FNDA:0,_ZN9__gnu_cxx13new_allocatorINSt8__detail10_Hash_nodeISt4pairIKNSt7__cxx1112basic_stringIcSt11char_traitsIcESaIcEEESt10shared_ptrIN7hare_mq14queue_consumerEEELb1EEEE10deallocateEPSG_m
FN:132,_ZN9__gnu_cxx13new_allocatorINSt8__detail10_Hash_nodeISt4pairIKSt10shared_ptrIN5muduo3net13TcpConnectionEES4_IN7hare_mq10connectionEEELb0EEEE10deallocateEPSE_m
FNDA:0,_ZN9__gnu_cxx13new_allocatorINSt8__detail10_Hash_nodeISt4pairIKSt10shared_ptrIN5muduo3net13TcpConnectionEES4_IN7hare_mq10connectionEEELb0EEEE10deallocateEPSE_m
FN:132,_ZN9__gnu_cxx13new_allocatorINSt8__detail10_Hash_nodeISt4pairIKNSt7__cxx1112basic_stringIcSt11char_traitsIcESaIcEEESt10shared_ptrIN7hare_mq8exchangeEEELb1EEEE10deallocateEPSG_m
FNDA:0,_ZN9__gnu_cxx13new_allocatorINSt8__detail10_Hash_nodeISt4pairIKNSt7__cxx1112basic_stringIcSt11char_traitsIcESaIcEEESt10shared_ptrIN7hare_mq8exchangeEEELb1EEEE10deallocateEPSG_m
FN:132,_ZN9__gnu_cxx13new_allocatorINSt8__detail10_Hash_nodeISt4pairIKNSt7__cxx1112basic_stringIcSt11char_traitsIcESaIcEEESt13unordered_mapIS9_St10shared_ptrIN7hare_mq7bindingEESt4hashIS9_ESt8equal_toIS9_ESaIS3_ISA_SF_EEEELb1EEEE10deallocateEPSO_m
FNDA:0,_ZN9__gnu_cxx13new_allocatorINSt8__detail10_Hash_nodeISt4pairIKNSt7__cxx1112basic_stringIcSt11char_traitsIcESaIcEEESt13unordered_mapIS9_St10shared_ptrIN7hare_mq7bindingEESt4hashIS9_ESt8equal_toIS9_ESaIS3_ISA_SF_EEEELb1EEEE10deallocateEPSO_m
FN:132,_ZN9__gnu_cxx13new_allocatorINSt8__detail10_Hash_nodeISt4pairIKNSt7__cxx1112basic_stringIcSt11char_traitsIcESaIcEEESt10shared_ptrIN7hare_mq13queue_messageEEELb1EEEE10deallocateEPSG_m
FNDA:0,_ZN9__gnu_cxx13new_allocatorINSt8__detail10_Hash_nodeISt4pairIKNSt7__cxx1112basic_stringIcSt11char_traitsIcESaIcEEESt10shared_ptrIN7hare_mq13queue_messageEEELb1EEEE10deallocateEPSG_m
DA:79,0
DA:82,0
DA:103,0
DA:111,0
DA:115,0
DA:116,0
DA:117,0
DA:127,0
DA:103,0
DA:111,0
DA:115,0
DA:116,0
DA:117,0
DA:127,0
DA:103,0
DA:111,0
DA:115,0
DA:116,0
DA:117,0
DA:127,0
DA:103,0
DA:111,0
DA:115,0
DA:116,0
DA:117,0
DA:127,0
DA:103,0
DA:111,0
DA:115,0
DA:116,0
DA:117,0
DA:127,0
DA:103,0
DA:111,0
DA:115,0
DA:116,0
DA:117,0
DA:127,0
DA:103,0
DA:111,0
DA:117,0
DA:127,0
DA:132,0
DA:145,0
DA:132,0
DA:145,0
DA:132,0
DA:145,0
DA:132,0
DA:145,0
DA:132,0
DA:145,0
DA:132,0
DA:145,0
DA:132,0
DA:145,0
DA:132,0
DA:145,0
DA:132,0
DA:145,0
DA:132,0
DA:145,0
DA:132,0
DA:145,0
DA:132,0
DA:145,0
DA:132,0
DA:145,0
DA:132,0
DA:145,0
DA:132,0
DA:145,0
DA:132,0
DA:145,0
end_of_record
SF:/home/eric/2025MQ/MQproject/2025MQWorkSpace/src/tools/muduo/_install/include/muduo/protoc/codec.h
FN:54,_ZN13ProtobufCodecC2ERKSt8functionIFvRKSt10shared_ptrIN5muduo3net13TcpConnectionEERKS1_IN6google8protobuf7MessageEENS2_9TimestampEEE
FNDA:0,_ZN13ProtobufCodecC2ERKSt8functionIFvRKSt10shared_ptrIN5muduo3net13TcpConnectionEERKS1_IN6google8protobuf7MessageEENS2_9TimestampEEE
DA:31,0
DA:54,0
DA:55,0
DA:56,0
DA:58,0
end_of_record
SF:/home/eric/2025MQ/MQproject/2025MQWorkSpace/src/tools/muduo/_install/include/muduo/base/Types.h
DA:80,0
DA:82,0
end_of_record
SF:/usr/include/c++/11/bits/unordered_map.h
DA:102,0
DA:141,0
DA:325,0
DA:326,0
DA:347,0
DA:348,0
end_of_record
SF:/usr/include/c++/11/utility
DA:188,0
DA:189,0
DA:213,0
DA:233,0
DA:234,0
end_of_record
SF:/home/eric/2025MQ/MQproject/2025MQWorkSpace/src/tools/muduo/_install/include/muduo/protoc/dispatcher.h
FN:47,_ZNK9CallbackTIN7hare_mq19closeChannelRequestEE9onMessageERKSt10shared_ptrIN5muduo3net13TcpConnectionEERKS3_IN6google8protobuf7MessageEENS4_9TimestampE
FNDA:0,_ZNK9CallbackTIN7hare_mq19closeChannelRequestEE9onMessageERKSt10shared_ptrIN5muduo3net13TcpConnectionEERKS3_IN6google8protobuf7MessageEENS4_9TimestampE
FN:47,_ZNK9CallbackTIN7hare_mq22declareExchangeRequestEE9onMessageERKSt10shared_ptrIN5muduo3net13TcpConnectionEERKS3_IN6google8protobuf7MessageEENS4_9TimestampE
FNDA:0,_ZNK9CallbackTIN7hare_mq22declareExchangeRequestEE9onMessageERKSt10shared_ptrIN5muduo3net13TcpConnectionEERKS3_IN6google8protobuf7MessageEENS4_9TimestampE
FN:47,_ZNK9CallbackTIN7hare_mq21deleteExchangeRequestEE9onMessageERKSt10shared_ptrIN5muduo3net13TcpConnectionEERKS3_IN6google8protobuf7MessageEENS4_9TimestampE
FNDA:0,_ZNK9CallbackTIN7hare_mq21deleteExchangeRequestEE9onMessageERKSt10shared_ptrIN5muduo3net13TcpConnectionEERKS3_IN6google8protobuf7MessageEENS4_9TimestampE
FN:47,_ZNK9CallbackTIN7hare_mq19declareQueueRequestEE9onMessageERKSt10shared_ptrIN5muduo3net13TcpConnectionEERKS3_IN6google8protobuf7MessageEENS4_9TimestampE
FNDA:0,_ZNK9CallbackTIN7hare_mq19declareQueueRequestEE9onMessageERKSt10shared_ptrIN5muduo3net13TcpConnectionEERKS3_IN6google8protobuf7MessageEENS4_9TimestampE
FN:47,_ZNK9CallbackTIN7hare_mq18deleteQueueRequestEE9onMessageERKSt10shared_ptrIN5muduo3net13TcpConnectionEERKS3_IN6google8protobuf7MessageEENS4_9TimestampE
FNDA:0,_ZNK9CallbackTIN7hare_mq18deleteQueueRequestEE9onMessageERKSt10shared_ptrIN5muduo3net13TcpConnectionEERKS3_IN6google8protobuf7MessageEENS4_9TimestampE
FN:47,_ZNK9CallbackTIN7hare_mq11bindRequestEE9onMessageERKSt10shared_ptrIN5muduo3net13TcpConnectionEERKS3_IN6google8protobuf7MessageEENS4_9TimestampE
FNDA:0,_ZNK9CallbackTIN7hare_mq11bindRequestEE9onMessageERKSt10shared_ptrIN5muduo3net13TcpConnectionEERKS3_IN6google8protobuf7MessageEENS4_9TimestampE
FN:47,_ZNK9CallbackTIN7hare_mq13unbindRequestEE9onMessageERKSt10shared_ptrIN5muduo3net13TcpConnectionEERKS3_IN6google8protobuf7MessageEENS4_9TimestampE
FNDA:0,_ZNK9CallbackTIN7hare_mq13unbindRequestEE9onMessageERKSt10shared_ptrIN5muduo3net13TcpConnectionEERKS3_IN6google8protobuf7MessageEENS4_9TimestampE
FN:47,_ZNK9CallbackTIN7hare_mq19basicPublishRequestEE9onMessageERKSt10shared_ptrIN5muduo3net13TcpConnectionEERKS3_IN6google8protobuf7MessageEENS4_9TimestampE
FNDA:0,_ZNK9CallbackTIN7hare_mq19basicPublishRequestEE9onMessageERKSt10shared_ptrIN5muduo3net13TcpConnectionEERKS3_IN6google8protobuf7MessageEENS4_9TimestampE
FN:47,_ZNK9CallbackTIN7hare_mq15basicAckRequestEE9onMessageERKSt10shared_ptrIN5muduo3net13TcpConnectionEERKS3_IN6google8protobuf7MessageEENS4_9TimestampE
FNDA:0,_ZNK9CallbackTIN7hare_mq15basicAckRequestEE9onMessageERKSt10shared_ptrIN5muduo3net13TcpConnectionEERKS3_IN6google8protobuf7MessageEENS4_9TimestampE
FN:47,_ZNK9CallbackTIN7hare_mq19basicConsumeRequestEE9onMessageERKSt10shared_ptrIN5muduo3net13TcpConnectionEERKS3_IN6google8protobuf7MessageEENS4_9TimestampE
FNDA:0,_ZNK9CallbackTIN7hare_mq19basicConsumeRequestEE9onMessageERKSt10shared_ptrIN5muduo3net13TcpConnectionEERKS3_IN6google8protobuf7MessageEENS4_9TimestampE
FN:47,_ZNK9CallbackTIN7hare_mq18basicCancelRequestEE9onMessageERKSt10shared_ptrIN5muduo3net13TcpConnectionEERKS3_IN6google8protobuf7MessageEENS4_9TimestampE
FNDA:0,_ZNK9CallbackTIN7hare_mq18basicCancelRequestEE9onMessageERKSt10shared_ptrIN5muduo3net13TcpConnectionEERKS3_IN6google8protobuf7MessageEENS4_9TimestampE
FN:47,_ZNK9CallbackTIN7hare_mq17basicQueryRequestEE9onMessageERKSt10shared_ptrIN5muduo3net13TcpConnectionEERKS3_IN6google8protobuf7MessageEENS4_9TimestampE
FNDA:0,_ZNK9CallbackTIN7hare_mq17basicQueryRequestEE9onMessageERKSt10shared_ptrIN5muduo3net13TcpConnectionEERKS3_IN6google8protobuf7MessageEENS4_9TimestampE
FN:47,_ZNK9CallbackTIN7hare_mq18openChannelRequestEE9onMessageERKSt10shared_ptrIN5muduo3net13TcpConnectionEERKS3_IN6google8protobuf7MessageEENS4_9TimestampE
FNDA:0,_ZNK9CallbackTIN7hare_mq18openChannelRequestEE9onMessageERKSt10shared_ptrIN5muduo3net13TcpConnectionEERKS3_IN6google8protobuf7MessageEENS4_9TimestampE
FN:67,_ZN18ProtobufDispatcherC2ERKSt8functionIFvRKSt10shared_ptrIN5muduo3net13TcpConnectionEERKS1_IN6google8protobuf7MessageEENS2_9TimestampEEE
FNDA:0,_ZN18ProtobufDispatcherC2ERKSt8functionIFvRKSt10shared_ptrIN5muduo3net13TcpConnectionEERKS1_IN6google8protobuf7MessageEENS2_9TimestampEEE
FN:72,_ZNK18ProtobufDispatcher17onProtobufMessageERKSt10shared_ptrIN5muduo3net13TcpConnectionEERKS0_IN6google8protobuf7MessageEENS1_9TimestampE
FNDA:0,_ZNK18ProtobufDispatcher17onProtobufMessageERKSt10shared_ptrIN5muduo3net13TcpConnectionEERKS0_IN6google8protobuf7MessageEENS1_9TimestampE
FN:88,_ZN18ProtobufDispatcher23registerMessageCallbackIN7hare_mq18basicCancelRequestEEEvRKN9CallbackTIT_E24ProtobufMessageTCallbackE
FNDA:0,_ZN18ProtobufDispatcher23registerMessageCallbackIN7hare_mq18basicCancelRequestEEEvRKN9CallbackTIT_E24ProtobufMessageTCallbackE
FN:88,_ZN18ProtobufDispatcher23registerMessageCallbackIN7hare_mq19basicConsumeRequestEEEvRKN9CallbackTIT_E24ProtobufMessageTCallbackE
FNDA:0,_ZN18ProtobufDispatcher23registerMessageCallbackIN7hare_mq19basicConsumeRequestEEEvRKN9CallbackTIT_E24ProtobufMessageTCallbackE
FN:88,_ZN18ProtobufDispatcher23registerMessageCallbackIN7hare_mq15basicAckRequestEEEvRKN9CallbackTIT_E24ProtobufMessageTCallbackE
FNDA:0,_ZN18ProtobufDispatcher23registerMessageCallbackIN7hare_mq15basicAckRequestEEEvRKN9CallbackTIT_E24ProtobufMessageTCallbackE
FN:88,_ZN18ProtobufDispatcher23registerMessageCallbackIN7hare_mq19basicPublishRequestEEEvRKN9CallbackTIT_E24ProtobufMessageTCallbackE
FNDA:0,_ZN18ProtobufDispatcher23registerMessageCallbackIN7hare_mq19basicPublishRequestEEEvRKN9CallbackTIT_E24ProtobufMessageTCallbackE
FN:88,_ZN18ProtobufDispatcher23registerMessageCallbackIN7hare_mq13unbindRequestEEEvRKN9CallbackTIT_E24ProtobufMessageTCallbackE
FNDA:0,_ZN18ProtobufDispatcher23registerMessageCallbackIN7hare_mq13unbindRequestEEEvRKN9CallbackTIT_E24ProtobufMessageTCallbackE
FN:88,_ZN18ProtobufDispatcher23registerMessageCallbackIN7hare_mq11bindRequestEEEvRKN9CallbackTIT_E24ProtobufMessageTCallbackE
FNDA:0,_ZN18ProtobufDispatcher23registerMessageCallbackIN7hare_mq11bindRequestEEEvRKN9CallbackTIT_E24ProtobufMessageTCallbackE
FN:88,_ZN18ProtobufDispatcher23registerMessageCallbackIN7hare_mq18deleteQueueRequestEEEvRKN9CallbackTIT_E24ProtobufMessageTCallbackE
FNDA:0,_ZN18ProtobufDispatcher23registerMessageCallbackIN7hare_mq18deleteQueueRequestEEEvRKN9CallbackTIT_E24ProtobufMessageTCallbackE
FN:88,_ZN18ProtobufDispatcher23registerMessageCallbackIN7hare_mq19declareQueueRequestEEEvRKN9CallbackTIT_E24ProtobufMessageTCallbackE
FNDA:0,_ZN18ProtobufDispatcher23registerMessageCallbackIN7hare_mq19declareQueueRequestEEEvRKN9CallbackTIT_E24ProtobufMessageTCallbackE
FN:88,_ZN18ProtobufDispatcher23registerMessageCallbackIN7hare_mq21deleteExchangeRequestEEEvRKN9CallbackTIT_E24ProtobufMessageTCallbackE
FNDA:0,_ZN18ProtobufDispatcher23registerMessageCallbackIN7hare_mq21deleteExchangeRequestEEEvRKN9CallbackTIT_E24ProtobufMessageTCallbackE
FN:88,_ZN18ProtobufDispatcher23registerMessageCallbackIN7hare_mq22declareExchangeRequestEEEvRKN9CallbackTIT_E24ProtobufMessageTCallbackE
FNDA:0,_ZN18ProtobufDispatcher23registerMessageCallbackIN7hare_mq22declareExchangeRequestEEEvRKN9CallbackTIT_E24ProtobufMessageTCallbackE
FN:88,_ZN18ProtobufDispatcher23registerMessageCallbackIN7hare_mq19closeChannelRequestEEEvRKN9CallbackTIT_E24ProtobufMessageTCallbackE
FNDA:0,_ZN18ProtobufDispatcher23registerMessageCallbackIN7hare_mq19closeChannelRequestEEEvRKN9CallbackTIT_E24ProtobufMessageTCallbackE
FN:88,_ZN18ProtobufDispatcher23registerMessageCallbackIN7hare_mq18openChannelRequestEEEvRKN9CallbackTIT_E24ProtobufMessageTCallbackE
FNDA:0,_ZN18ProtobufDispatcher23registerMessageCallbackIN7hare_mq18openChannelRequestEEEvRKN9CallbackTIT_E24ProtobufMessageTCallbackE
FN:88,_ZN18ProtobufDispatcher23registerMessageCallbackIN7hare_mq17basicQueryRequestEEEvRKN9CallbackTIT_E24ProtobufMessageTCallbackE
FNDA:0,_ZN18ProtobufDispatcher23registerMessageCallbackIN7hare_mq17basicQueryRequestEEEvRKN9CallbackTIT_E24ProtobufMessageTCallbackE
DA:23,0
DA:42,0
DA:43,0
DA:45,0
DA:47,0
DA:51,0
DA:52,0
DA:53,0
DA:54,0
DA:47,0
DA:51,0
DA:52,0
DA:53,0
DA:54,0
DA:47,0
DA:51,0
DA:52,0
DA:53,0
DA:54,0
DA:47,0
DA:51,0
DA:52,0
DA:53,0
DA:54,0
DA:47,0
DA:51,0
DA:52,0
DA:53,0
DA:54,0
DA:47,0
DA:51,0
DA:52,0
DA:53,0
DA:54,0
DA:47,0
DA:51,0
DA:52,0
DA:53,0
DA:54,0
DA:47,0
DA:51,0
DA:52,0
DA:53,0
DA:54,0
DA:47,0
DA:51,0
DA:52,0
DA:53,0
DA:54,0
DA:47,0
DA:51,0
DA:52,0
DA:53,0
DA:54,0
DA:47,0
DA:51,0
DA:52,0
DA:53,0
DA:54,0
DA:47,0
DA:51,0
DA:52,0
DA:53,0
DA:54,0
DA:47,0
DA:51,0
DA:52,0
DA:53,0
DA:54,0
DA:67,0
DA:68,0
DA:70,0
DA:72,0
DA:76,0
DA:77,0
DA:79,0
DA:83,0
DA:85,0
DA:88,0
DA:90,0
DA:91,0
DA:92,0
DA:88,0
DA:90,0
DA:91,0
DA:92,0
DA:88,0
DA:90,0
DA:91,0
DA:92,0
DA:88,0
DA:90,0
DA:91,0
DA:92,0
DA:88,0
DA:90,0
DA:91,0
DA:92,0
DA:88,0
DA:90,0
DA:91,0
DA:92,0
DA:88,0
DA:90,0
DA:91,0
DA:92,0
DA:88,0
DA:90,0
DA:91,0
DA:92,0
DA:88,0
DA:90,0
DA:91,0
DA:92,0
DA:88,0
DA:90,0
DA:91,0
DA:92,0
DA:88,0
DA:90,0
DA:91,0
DA:92,0
DA:88,0
DA:90,0
DA:91,0
DA:92,0
DA:88,0
DA:90,0
DA:91,0
DA:92,0
end_of_record
SF:/usr/include/c++/11/bits/basic_string.h
FN:237,_ZNSt7__cxx1112basic_stringIcSt11char_traitsIcESaIcEE10_M_disposeEv
FNDA:0,_ZNSt7__cxx1112basic_stringIcSt11char_traitsIcESaIcEE10_M_disposeEv
FN:354,_ZNSt7__cxx1112basic_stringIcSt11char_traitsIcESaIcEE7_S_copyEPcPKcm
FNDA:0,_ZNSt7__cxx1112basic_stringIcSt11char_traitsIcESaIcEE7_S_copyEPcPKcm
FN:456,_ZNSt7__cxx1112basic_stringIcSt11char_traitsIcESaIcEEC2ERKS4_
FNDA:0,_ZNSt7__cxx1112basic_stringIcSt11char_traitsIcESaIcEEC2ERKS4_
FN:533,_ZNSt7__cxx1112basic_stringIcSt11char_traitsIcESaIcEEC2IS3_EEPKcRKS3_
FNDA:0,_ZNSt7__cxx1112basic_stringIcSt11char_traitsIcESaIcEEC2IS3_EEPKcRKS3_
FN:1255,_ZNSt7__cxx1112basic_stringIcSt11char_traitsIcESaIcEE6appendEPKc
FNDA:0,_ZNSt7__cxx1112basic_stringIcSt11char_traitsIcESaIcEE6appendEPKc
FN:6132,_ZStplIcSt11char_traitsIcESaIcEENSt7__cxx1112basic_stringIT_T0_T1_EERKS8_PKS5_
FNDA:0,_ZStplIcSt11char_traitsIcESaIcEENSt7__cxx1112basic_stringIT_T0_T1_EERKS8_PKS5_
DA:158,0
DA:164,0
DA:165,0
DA:167,0
DA:168,0
DA:186,0
DA:187,0
DA:190,0
DA:191,0
DA:194,0
DA:195,0
DA:198,0
DA:201,0
DA:208,0
DA:211,0
DA:218,0
DA:219,0
DA:222,0
DA:224,0
DA:225,0
DA:229,0
DA:230,0
DA:237,0
DA:239,0
DA:240,0
DA:241,0
DA:244,0
DA:245,0
DA:251,0
DA:255,0
DA:271,0
DA:274,0
DA:294,0
DA:295,0
DA:298,0
DA:299,0
DA:328,0
DA:330,0
DA:331,0
DA:354,0
DA:356,0
DA:357,0
DA:359,0
DA:360,0
DA:400,0
DA:401,0
DA:404,0
DA:406,0
DA:456,0
DA:457,0
DA:458,0
DA:459,0
DA:533,0
DA:534,0
DA:536,0
DA:539,0
DA:540,0
DA:671,0
DA:672,0
DA:920,0
DA:921,0
DA:926,0
DA:927,0
DA:976,0
DA:978,0
DA:1255,0
DA:1258,0
DA:1259,0
DA:1260,0
DA:2320,0
DA:2321,0
DA:6132,0
DA:6135,0
DA:6136,0
DA:6137,0
DA:6138,0
end_of_record
SF:/usr/include/c++/11/bits/stl_map.h
FN:512,_ZNSt3mapIPKN6google8protobuf10DescriptorESt10shared_ptrI8CallbackESt4lessIS4_ESaISt4pairIKS4_S7_EEEixEOS4_
FNDA:0,_ZNSt3mapIPKN6google8protobuf10DescriptorESt10shared_ptrI8CallbackESt4lessIS4_ESaISt4pairIKS4_S7_EEEixEOS4_
DA:185,0
DA:302,0
DA:374,0
DA:375,0
DA:383,0
DA:384,0
DA:512,0
DA:517,0
DA:519,0
DA:520,0
DA:521,0
DA:522,0
DA:523,0
DA:1194,0
DA:1195,0
DA:1258,0
DA:1259,0
end_of_record
SF:/home/eric/2025MQ/MQproject/2025MQWorkSpace/src/tools/muduo/_install/include/muduo/base/StringPiece.h
DA:55,0
DA:56,0
end_of_record
SF:/home/eric/2025MQ/MQproject/2025MQWorkSpace/src/server/virtual_host.hpp
end_of_record
SF:/usr/include/c++/11/ext/alloc_traits.h
DA:97,0
DA:98,0
end_of_record
SF:/home/eric/2025MQ/MQproject/2025MQWorkSpace/src/tools/muduo/_install/include/muduo/net/TcpServer.h
DA:50,0
DA:79,0
DA:80,0
DA:84,0
DA:85,0
end_of_record
SF:/home/eric/2025MQ/MQproject/2025MQWorkSpace/src/server/consumer.hpp
DA:56,0
DA:60,0
end_of_record
SF:/usr/include/c++/11/bits/allocated_ptr.h
FN:71,_ZNSt15__allocated_ptrISaISt23_Sp_counted_ptr_inplaceIN7hare_mq11thread_poolESaIS2_ELN9__gnu_cxx12_Lock_policyE2EEEED2Ev
FNDA:0,_ZNSt15__allocated_ptrISaISt23_Sp_counted_ptr_inplaceIN7hare_mq11thread_poolESaIS2_ELN9__gnu_cxx12_Lock_policyE2EEEED2Ev
FN:71,_ZNSt15__allocated_ptrISaISt23_Sp_counted_ptr_inplaceIN7hare_mq18connection_managerESaIS2_ELN9__gnu_cxx12_Lock_policyE2EEEED2Ev
FNDA:0,_ZNSt15__allocated_ptrISaISt23_Sp_counted_ptr_inplaceIN7hare_mq18connection_managerESaIS2_ELN9__gnu_cxx12_Lock_policyE2EEEED2Ev
FN:71,_ZNSt15__allocated_ptrISaISt23_Sp_counted_ptr_inplaceIN7hare_mq16consumer_managerESaIS2_ELN9__gnu_cxx12_Lock_policyE2EEEED2Ev
FNDA:0,_ZNSt15__allocated_ptrISaISt23_Sp_counted_ptr_inplaceIN7hare_mq16consumer_managerESaIS2_ELN9__gnu_cxx12_Lock_policyE2EEEED2Ev
FN:71,_ZNSt15__allocated_ptrISaISt23_Sp_counted_ptr_inplaceIN7hare_mq12virtual_hostESaIS2_ELN9__gnu_cxx12_Lock_policyE2EEEED2Ev
FNDA:0,_ZNSt15__allocated_ptrISaISt23_Sp_counted_ptr_inplaceIN7hare_mq12virtual_hostESaIS2_ELN9__gnu_cxx12_Lock_policyE2EEEED2Ev
FN:71,_ZNSt15__allocated_ptrISaISt23_Sp_counted_ptr_inplaceI13ProtobufCodecSaIS1_ELN9__gnu_cxx12_Lock_policyE2EEEED2Ev
FNDA:0,_ZNSt15__allocated_ptrISaISt23_Sp_counted_ptr_inplaceI13ProtobufCodecSaIS1_ELN9__gnu_cxx12_Lock_policyE2EEEED2Ev
FN:71,_ZNSt15__allocated_ptrISaISt23_Sp_counted_ptr_inplaceISt5mutexSaIS1_ELN9__gnu_cxx12_Lock_policyE2EEEED2Ev
FNDA:0,_ZNSt15__allocated_ptrISaISt23_Sp_counted_ptr_inplaceISt5mutexSaIS1_ELN9__gnu_cxx12_Lock_policyE2EEEED2Ev
DA:53,0
DA:54,0
DA:71,0
DA:73,0
DA:74,0
DA:75,0
DA:71,0
DA:73,0
DA:74,0
DA:75,0
DA:71,0
DA:73,0
DA:74,0
DA:75,0
DA:71,0
DA:73,0
DA:74,0
DA:75,0
DA:71,0
DA:73,0
DA:74,0
DA:75,0
DA:71,0
DA:73,0
DA:74,0
DA:75,0
DA:79,0
DA:81,0
DA:86,0
DA:96,0
DA:98,0
end_of_record
SF:/home/eric/2025MQ/MQproject/2025MQWorkSpace/src/common/exchange.hpp
end_of_record
SF:/usr/include/c++/11/bits/hashtable.h
FN:453,_ZNSt10_HashtableINSt7__cxx1112basic_stringIcSt11char_traitsIcESaIcEEESt4pairIKS5_St10shared_ptrIN7hare_mq7bindingEEESaISC_ENSt8__detail10_Select1stESt8equal_toIS5_ESt4hashIS5_ENSE_18_Mod_range_hashingENSE_20_Default_ranged_hashENSE_20_Prime_rehash_policyENSE_17_Hashtable_traitsILb1ELb0ELb1EEEE21_M_deallocate_bucketsEv
FNDA:0,_ZNSt10_HashtableINSt7__cxx1112basic_stringIcSt11char_traitsIcESaIcEEESt4pairIKS5_St10shared_ptrIN7hare_mq7bindingEEESaISC_ENSt8__detail10_Select1stESt8equal_toIS5_ESt4hashIS5_ENSE_18_Mod_range_hashingENSE_20_Default_ranged_hashENSE_20_Prime_rehash_policyENSE_17_Hashtable_traitsILb1ELb0ELb1EEEE21_M_deallocate_bucketsEv
FN:453,_ZNSt10_HashtableINSt7__cxx1112basic_stringIcSt11char_traitsIcESaIcEEESt4pairIKS5_St10shared_ptrIN7hare_mq13queue_messageEEESaISC_ENSt8__detail10_Select1stESt8equal_toIS5_ESt4hashIS5_ENSE_18_Mod_range_hashingENSE_20_Default_ranged_hashENSE_20_Prime_rehash_policyENSE_17_Hashtable_traitsILb1ELb0ELb1EEEE21_M_deallocate_bucketsEv
FNDA:0,_ZNSt10_HashtableINSt7__cxx1112basic_stringIcSt11char_traitsIcESaIcEEESt4pairIKS5_St10shared_ptrIN7hare_mq13queue_messageEEESaISC_ENSt8__detail10_Select1stESt8equal_toIS5_ESt4hashIS5_ENSE_18_Mod_range_hashingENSE_20_Default_ranged_hashENSE_20_Prime_rehash_policyENSE_17_Hashtable_traitsILb1ELb0ELb1EEEE21_M_deallocate_bucketsEv
FN:453,_ZNSt10_HashtableINSt7__cxx1112basic_stringIcSt11char_traitsIcESaIcEEESt4pairIKS5_St13unordered_mapIS5_St10shared_ptrIN7hare_mq7bindingEESt4hashIS5_ESt8equal_toIS5_ESaIS6_IS7_SC_EEEESaISK_ENSt8__detail10_Select1stESG_SE_NSM_18_Mod_range_hashingENSM_20_Default_ranged_hashENSM_20_Prime_rehash_policyENSM_17_Hashtable_traitsILb1ELb0ELb1EEEE21_M_deallocate_bucketsEv
FNDA:0,_ZNSt10_HashtableINSt7__cxx1112basic_stringIcSt11char_traitsIcESaIcEEESt4pairIKS5_St13unordered_mapIS5_St10shared_ptrIN7hare_mq7bindingEESt4hashIS5_ESt8equal_toIS5_ESaIS6_IS7_SC_EEEESaISK_ENSt8__detail10_Select1stESG_SE_NSM_18_Mod_range_hashingENSM_20_Default_ranged_hashENSM_20_Prime_rehash_policyENSM_17_Hashtable_traitsILb1ELb0ELb1EEEE21_M_deallocate_bucketsEv
FN:453,_ZNSt10_HashtableINSt7__cxx1112basic_stringIcSt11char_traitsIcESaIcEEESt4pairIKS5_St10shared_ptrIN7hare_mq8exchangeEEESaISC_ENSt8__detail10_Select1stESt8equal_toIS5_ESt4hashIS5_ENSE_18_Mod_range_hashingENSE_20_Default_ranged_hashENSE_20_Prime_rehash_policyENSE_17_Hashtable_traitsILb1ELb0ELb1EEEE21_M_deallocate_bucketsEv
FNDA:0,_ZNSt10_HashtableINSt7__cxx1112basic_stringIcSt11char_traitsIcESaIcEEESt4pairIKS5_St10shared_ptrIN7hare_mq8exchangeEEESaISC_ENSt8__detail10_Select1stESt8equal_toIS5_ESt4hashIS5_ENSE_18_Mod_range_hashingENSE_20_Default_ranged_hashENSE_20_Prime_rehash_policyENSE_17_Hashtable_traitsILb1ELb0ELb1EEEE21_M_deallocate_bucketsEv
FN:453,_ZNSt10_HashtableISt10shared_ptrIN5muduo3net13TcpConnectionEESt4pairIKS4_S0_IN7hare_mq10connectionEEESaISA_ENSt8__detail10_Select1stESt8equal_toIS4_ESt4hashIS4_ENSC_18_Mod_range_hashingENSC_20_Default_ranged_hashENSC_20_Prime_rehash_policyENSC_17_Hashtable_traitsILb0ELb0ELb1EEEE21_M_deallocate_bucketsEv
FNDA:0,_ZNSt10_HashtableISt10shared_ptrIN5muduo3net13TcpConnectionEESt4pairIKS4_S0_IN7hare_mq10connectionEEESaISA_ENSt8__detail10_Select1stESt8equal_toIS4_ESt4hashIS4_ENSC_18_Mod_range_hashingENSC_20_Default_ranged_hashENSC_20_Prime_rehash_policyENSC_17_Hashtable_traitsILb0ELb0ELb1EEEE21_M_deallocate_bucketsEv
FN:453,_ZNSt10_HashtableINSt7__cxx1112basic_stringIcSt11char_traitsIcESaIcEEESt4pairIKS5_St10shared_ptrIN7hare_mq14queue_consumerEEESaISC_ENSt8__detail10_Select1stESt8equal_toIS5_ESt4hashIS5_ENSE_18_Mod_range_hashingENSE_20_Default_ranged_hashENSE_20_Prime_rehash_policyENSE_17_Hashtable_traitsILb1ELb0ELb1EEEE21_M_deallocate_bucketsEv
FNDA:0,_ZNSt10_HashtableINSt7__cxx1112basic_stringIcSt11char_traitsIcESaIcEEESt4pairIKS5_St10shared_ptrIN7hare_mq14queue_consumerEEESaISC_ENSt8__detail10_Select1stESt8equal_toIS5_ESt4hashIS5_ENSE_18_Mod_range_hashingENSE_20_Default_ranged_hashENSE_20_Prime_rehash_policyENSE_17_Hashtable_traitsILb1ELb0ELb1EEEE21_M_deallocate_bucketsEv
FN:453,_ZNSt10_HashtableINSt7__cxx1112basic_stringIcSt11char_traitsIcESaIcEEESt4pairIKS5_St10shared_ptrIN7hare_mq9msg_queueEEESaISC_ENSt8__detail10_Select1stESt8equal_toIS5_ESt4hashIS5_ENSE_18_Mod_range_hashingENSE_20_Default_ranged_hashENSE_20_Prime_rehash_policyENSE_17_Hashtable_traitsILb1ELb0ELb1EEEE21_M_deallocate_bucketsEv
FNDA:0,_ZNSt10_HashtableINSt7__cxx1112basic_stringIcSt11char_traitsIcESaIcEEESt4pairIKS5_St10shared_ptrIN7hare_mq9msg_queueEEESaISC_ENSt8__detail10_Select1stESt8equal_toIS5_ESt4hashIS5_ENSE_18_Mod_range_hashingENSE_20_Default_ranged_hashENSE_20_Prime_rehash_policyENSE_17_Hashtable_traitsILb1ELb0ELb1EEEE21_M_deallocate_bucketsEv
FN:2316,_ZNSt10_HashtableINSt7__cxx1112basic_stringIcSt11char_traitsIcESaIcEEESt4pairIKS5_St10shared_ptrIN7hare_mq7bindingEEESaISC_ENSt8__detail10_Select1stESt8equal_toIS5_ESt4hashIS5_ENSE_18_Mod_range_hashingENSE_20_Default_ranged_hashENSE_20_Prime_rehash_policyENSE_17_Hashtable_traitsILb1ELb0ELb1EEEE5clearEv
FNDA:0,_ZNSt10_HashtableINSt7__cxx1112basic_stringIcSt11char_traitsIcESaIcEEESt4pairIKS5_St10shared_ptrIN7hare_mq7bindingEEESaISC_ENSt8__detail10_Select1stESt8equal_toIS5_ESt4hashIS5_ENSE_18_Mod_range_hashingENSE_20_Default_ranged_hashENSE_20_Prime_rehash_policyENSE_17_Hashtable_traitsILb1ELb0ELb1EEEE5clearEv
FN:2316,_ZNSt10_HashtableINSt7__cxx1112basic_stringIcSt11char_traitsIcESaIcEEESt4pairIKS5_St10shared_ptrIN7hare_mq13queue_messageEEESaISC_ENSt8__detail10_Select1stESt8equal_toIS5_ESt4hashIS5_ENSE_18_Mod_range_hashingENSE_20_Default_ranged_hashENSE_20_Prime_rehash_policyENSE_17_Hashtable_traitsILb1ELb0ELb1EEEE5clearEv
FNDA:0,_ZNSt10_HashtableINSt7__cxx1112basic_stringIcSt11char_traitsIcESaIcEEESt4pairIKS5_St10shared_ptrIN7hare_mq13queue_messageEEESaISC_ENSt8__detail10_Select1stESt8equal_toIS5_ESt4hashIS5_ENSE_18_Mod_range_hashingENSE_20_Default_ranged_hashENSE_20_Prime_rehash_policyENSE_17_Hashtable_traitsILb1ELb0ELb1EEEE5clearEv
FN:2316,_ZNSt10_HashtableINSt7__cxx1112basic_stringIcSt11char_traitsIcESaIcEEESt4pairIKS5_St13unordered_mapIS5_St10shared_ptrIN7hare_mq7bindingEESt4hashIS5_ESt8equal_toIS5_ESaIS6_IS7_SC_EEEESaISK_ENSt8__detail10_Select1stESG_SE_NSM_18_Mod_range_hashingENSM_20_Default_ranged_hashENSM_20_Prime_rehash_policyENSM_17_Hashtable_traitsILb1ELb0ELb1EEEE5clearEv
FNDA:0,_ZNSt10_HashtableINSt7__cxx1112basic_stringIcSt11char_traitsIcESaIcEEESt4pairIKS5_St13unordered_mapIS5_St10shared_ptrIN7hare_mq7bindingEESt4hashIS5_ESt8equal_toIS5_ESaIS6_IS7_SC_EEEESaISK_ENSt8__detail10_Select1stESG_SE_NSM_18_Mod_range_hashingENSM_20_Default_ranged_hashENSM_20_Prime_rehash_policyENSM_17_Hashtable_traitsILb1ELb0ELb1EEEE5clearEv
FN:2316,_ZNSt10_HashtableINSt7__cxx1112basic_stringIcSt11char_traitsIcESaIcEEESt4pairIKS5_St10shared_ptrIN7hare_mq8exchangeEEESaISC_ENSt8__detail10_Select1stESt8equal_toIS5_ESt4hashIS5_ENSE_18_Mod_range_hashingENSE_20_Default_ranged_hashENSE_20_Prime_rehash_policyENSE_17_Hashtable_traitsILb1ELb0ELb1EEEE5clearEv
FNDA:0,_ZNSt10_HashtableINSt7__cxx1112basic_stringIcSt11char_traitsIcESaIcEEESt4pairIKS5_St10shared_ptrIN7hare_mq8exchangeEEESaISC_ENSt8__detail10_Select1stESt8equal_toIS5_ESt4hashIS5_ENSE_18_Mod_range_hashingENSE_20_Default_ranged_hashENSE_20_Prime_rehash_policyENSE_17_Hashtable_traitsILb1ELb0ELb1EEEE5clearEv
FN:2316,_ZNSt10_HashtableISt10shared_ptrIN5muduo3net13TcpConnectionEESt4pairIKS4_S0_IN7hare_mq10connectionEEESaISA_ENSt8__detail10_Select1stESt8equal_toIS4_ESt4hashIS4_ENSC_18_Mod_range_hashingENSC_20_Default_ranged_hashENSC_20_Prime_rehash_policyENSC_17_Hashtable_traitsILb0ELb0ELb1EEEE5clearEv
FNDA:0,_ZNSt10_HashtableISt10shared_ptrIN5muduo3net13TcpConnectionEESt4pairIKS4_S0_IN7hare_mq10connectionEEESaISA_ENSt8__detail10_Select1stESt8equal_toIS4_ESt4hashIS4_ENSC_18_Mod_range_hashingENSC_20_Default_ranged_hashENSC_20_Prime_rehash_policyENSC_17_Hashtable_traitsILb0ELb0ELb1EEEE5clearEv
FN:2316,_ZNSt10_HashtableINSt7__cxx1112basic_stringIcSt11char_traitsIcESaIcEEESt4pairIKS5_St10shared_ptrIN7hare_mq14queue_consumerEEESaISC_ENSt8__detail10_Select1stESt8equal_toIS5_ESt4hashIS5_ENSE_18_Mod_range_hashingENSE_20_Default_ranged_hashENSE_20_Prime_rehash_policyENSE_17_Hashtable_traitsILb1ELb0ELb1EEEE5clearEv
FNDA:0,_ZNSt10_HashtableINSt7__cxx1112basic_stringIcSt11char_traitsIcESaIcEEESt4pairIKS5_St10shared_ptrIN7hare_mq14queue_consumerEEESaISC_ENSt8__detail10_Select1stESt8equal_toIS5_ESt4hashIS5_ENSE_18_Mod_range_hashingENSE_20_Default_ranged_hashENSE_20_Prime_rehash_policyENSE_17_Hashtable_traitsILb1ELb0ELb1EEEE5clearEv
FN:2316,_ZNSt10_HashtableINSt7__cxx1112basic_stringIcSt11char_traitsIcESaIcEEESt4pairIKS5_St10shared_ptrIN7hare_mq9msg_queueEEESaISC_ENSt8__detail10_Select1stESt8equal_toIS5_ESt4hashIS5_ENSE_18_Mod_range_hashingENSE_20_Default_ranged_hashENSE_20_Prime_rehash_policyENSE_17_Hashtable_traitsILb1ELb0ELb1EEEE5clearEv
FNDA:0,_ZNSt10_HashtableINSt7__cxx1112basic_stringIcSt11char_traitsIcESaIcEEESt4pairIKS5_St10shared_ptrIN7hare_mq9msg_queueEEESaISC_ENSt8__detail10_Select1stESt8equal_toIS5_ESt4hashIS5_ENSE_18_Mod_range_hashingENSE_20_Default_ranged_hashENSE_20_Prime_rehash_policyENSE_17_Hashtable_traitsILb1ELb0ELb1EEEE5clearEv
DA:421,0
DA:422,0
DA:444,0
DA:446,0
DA:449,0
DA:453,0
DA:454,0
DA:453,0
DA:454,0
DA:453,0
DA:454,0
DA:453,0
DA:454,0
DA:453,0
DA:454,0
DA:453,0
DA:454,0
DA:453,0
DA:454,0
DA:462,0
DA:463,0
DA:528,0
DA:621,0
DA:622,0
DA:629,0
DA:630,0
DA:1528,0
DA:1532,0
DA:1533,0
DA:1534,0
DA:2316,0
DA:2320,0
DA:2321,0
DA:2322,0
DA:2323,0
DA:2324,0
DA:2325,0
DA:2316,0
DA:2320,0
DA:2321,0
DA:2322,0
DA:2323,0
DA:2324,0
DA:2325,0
DA:2316,0
DA:2320,0
DA:2321,0
DA:2322,0
DA:2323,0
DA:2324,0
DA:2325,0
DA:2316,0
DA:2320,0
DA:2321,0
DA:2322,0
DA:2323,0
DA:2324,0
DA:2325,0
DA:2316,0
DA:2320,0
DA:2321,0
DA:2322,0
DA:2323,0
DA:2324,0
DA:2325,0
DA:2316,0
DA:2320,0
DA:2321,0
DA:2322,0
DA:2323,0
DA:2324,0
DA:2325,0
DA:2316,0
DA:2320,0
DA:2321,0
DA:2322,0
DA:2323,0
DA:2324,0
DA:2325,0
end_of_record
SF:/usr/include/x86_64-linux-gnu/bits/string_fortified.h
DA:26,0
DA:29,0
end_of_record
SF:/usr/include/c++/11/bits/allocator.h
DA:156,0
DA:159,0
DA:160,0
DA:169,0
DA:174,0
DA:179,0
DA:185,0
DA:190,0
DA:199,0
end_of_record
SF:/usr/include/c++/11/bits/stl_function.h
DA:447,0
DA:457,0
DA:1174,0
DA:1175,0
end_of_record
SF:/usr/include/c++/11/bits/unique_ptr.h
FN:79,_ZNKSt14default_deleteI18ProtobufDispatcherEclEPS0_
FNDA:0,_ZNKSt14default_deleteI18ProtobufDispatcherEclEPS0_
FN:79,_ZNKSt14default_deleteIN5muduo3net9TcpServerEEclEPS2_
FNDA:0,_ZNKSt14default_deleteIN5muduo3net9TcpServerEEclEPS2_
FN:79,_ZNKSt14default_deleteIN5muduo3net9EventLoopEEclEPS2_
FNDA:0,_ZNKSt14default_deleteIN5muduo3net9EventLoopEEclEPS2_
FN:165,_ZNSt15__uniq_ptr_implI18ProtobufDispatcherSt14default_deleteIS0_EEaSEOS3_
FNDA:0,_ZNSt15__uniq_ptr_implI18ProtobufDispatcherSt14default_deleteIS0_EEaSEOS3_
FN:165,_ZNSt15__uniq_ptr_implIN5muduo3net9TcpServerESt14default_deleteIS2_EEaSEOS5_
FNDA:0,_ZNSt15__uniq_ptr_implIN5muduo3net9TcpServerESt14default_deleteIS2_EEaSEOS5_
FN:165,_ZNSt15__uniq_ptr_implIN5muduo3net9EventLoopESt14default_deleteIS2_EEaSEOS5_
FNDA:0,_ZNSt15__uniq_ptr_implIN5muduo3net9EventLoopESt14default_deleteIS2_EEaSEOS5_
FN:355,_ZNSt10unique_ptrI18ProtobufDispatcherSt14default_deleteIS0_EED2Ev
FNDA:0,_ZNSt10unique_ptrI18ProtobufDispatcherSt14default_deleteIS0_EED2Ev
FN:355,_ZNSt10unique_ptrIN5muduo3net9TcpServerESt14default_deleteIS2_EED2Ev
FNDA:0,_ZNSt10unique_ptrIN5muduo3net9TcpServerESt14default_deleteIS2_EED2Ev
FN:355,_ZNSt10unique_ptrIN5muduo3net9EventLoopESt14default_deleteIS2_EED2Ev
FNDA:0,_ZNSt10unique_ptrIN5muduo3net9EventLoopESt14default_deleteIS2_EED2Ev
FN:961,_ZSt11make_uniqueI18ProtobufDispatcherJSt5_BindIFMN7hare_mq12BrokerServerEFvRKSt10shared_ptrIN5muduo3net13TcpConnectionEERKS4_IN6google8protobuf7MessageEENS5_9TimestampEEPS3_St12_PlaceholderILi1EESL_ILi2EESL_ILi3EEEEEENSt9_MakeUniqIT_E15__single_objectEDpOT0_
FNDA:0,_ZSt11make_uniqueI18ProtobufDispatcherJSt5_BindIFMN7hare_mq12BrokerServerEFvRKSt10shared_ptrIN5muduo3net13TcpConnectionEERKS4_IN6google8protobuf7MessageEENS5_9TimestampEEPS3_St12_PlaceholderILi1EESL_ILi2EESL_ILi3EEEEEENSt9_MakeUniqIT_E15__single_objectEDpOT0_
FN:961,_ZSt11make_uniqueIN5muduo3net9TcpServerEJPNS1_9EventLoopENS1_11InetAddressERA15_KcNS2_6OptionEEENSt9_MakeUniqIT_E15__single_objectEDpOT0_
FNDA:0,_ZSt11make_uniqueIN5muduo3net9TcpServerEJPNS1_9EventLoopENS1_11InetAddressERA15_KcNS2_6OptionEEENSt9_MakeUniqIT_E15__single_objectEDpOT0_
FN:961,_ZSt11make_uniqueIN5muduo3net9EventLoopEJEENSt9_MakeUniqIT_E15__single_objectEDpOT0_
FNDA:0,_ZSt11make_uniqueIN5muduo3net9EventLoopEJEENSt9_MakeUniqIT_E15__single_objectEDpOT0_
DA:79,0
DA:85,0
DA:86,0
DA:79,0
DA:85,0
DA:86,0
DA:79,0
DA:85,0
DA:86,0
DA:154,0
DA:155,0
DA:165,0
DA:167,0
DA:168,0
DA:169,0
DA:165,0
DA:167,0
DA:168,0
DA:169,0
DA:165,0
DA:167,0
DA:168,0
DA:169,0
DA:172,0
DA:173,0
DA:174,0
DA:177,0
DA:179,0
DA:180,0
DA:181,0
DA:182,0
DA:185,0
DA:187,0
DA:188,0
DA:210,0
DA:212,0
DA:269,0
DA:270,0
DA:281,0
DA:282,0
DA:355,0
DA:359,0
DA:360,0
DA:361,0
DA:363,0
DA:355,0
DA:359,0
DA:360,0
DA:361,0
DA:363,0
DA:355,0
DA:359,0
DA:360,0
DA:361,0
DA:363,0
DA:371,0
DA:413,0
DA:416,0
DA:421,0
DA:422,0
DA:426,0
DA:427,0
DA:961,0
DA:962,0
DA:961,0
DA:962,0
DA:961,0
DA:962,0
end_of_record
SF:/usr/include/c++/11/ext/atomicity.h
DA:47,0
DA:52,0
DA:65,0
DA:66,0
DA:70,0
DA:71,0
DA:82,0
DA:84,0
DA:85,0
DA:86,0
DA:91,0
DA:92,0
DA:96,0
DA:98,0
DA:99,0
DA:101,0
DA:106,0
DA:108,0
DA:109,0
DA:111,0
end_of_record
SF:/usr/include/c++/11/bits/shared_ptr.h
FN:408,_ZNSt10shared_ptrIN7hare_mq11thread_poolEEC2ISaIS1_EJEEESt20_Sp_alloc_shared_tagIT_EDpOT0_
FNDA:0,_ZNSt10shared_ptrIN7hare_mq11thread_poolEEC2ISaIS1_EJEEESt20_Sp_alloc_shared_tagIT_EDpOT0_
FN:408,_ZNSt10shared_ptrIN7hare_mq18connection_managerEEC2ISaIS1_EJEEESt20_Sp_alloc_shared_tagIT_EDpOT0_
FNDA:0,_ZNSt10shared_ptrIN7hare_mq18connection_managerEEC2ISaIS1_EJEEESt20_Sp_alloc_shared_tagIT_EDpOT0_
FN:408,_ZNSt10shared_ptrIN7hare_mq16consumer_managerEEC2ISaIS1_EJEEESt20_Sp_alloc_shared_tagIT_EDpOT0_
FNDA:0,_ZNSt10shared_ptrIN7hare_mq16consumer_managerEEC2ISaIS1_EJEEESt20_Sp_alloc_shared_tagIT_EDpOT0_
FN:408,_ZNSt10shared_ptrIN7hare_mq12virtual_hostEEC2ISaIS1_EJRKPKcRKNSt7__cxx1112basic_stringIcSt11char_traitsIcESaIcEEERSE_EEESt20_Sp_alloc_shared_tagIT_EDpOT0_
FNDA:0,_ZNSt10shared_ptrIN7hare_mq12virtual_hostEEC2ISaIS1_EJRKPKcRKNSt7__cxx1112basic_stringIcSt11char_traitsIcESaIcEEERSE_EEESt20_Sp_alloc_shared_tagIT_EDpOT0_
FN:408,_ZNSt10shared_ptrI13ProtobufCodecEC2ISaIS0_EJSt5_BindIFM18ProtobufDispatcherKFvRKS_IN5muduo3net13TcpConnectionEERKS_IN6google8protobuf7MessageEENS6_9TimestampEEPS5_St12_PlaceholderILi1EESM_ILi2EESM_ILi3EEEEEEESt20_Sp_alloc_shared_tagIT_EDpOT0_
FNDA:0,_ZNSt10shared_ptrI13ProtobufCodecEC2ISaIS0_EJSt5_BindIFM18ProtobufDispatcherKFvRKS_IN5muduo3net13TcpConnectionEERKS_IN6google8protobuf7MessageEENS6_9TimestampEEPS5_St12_PlaceholderILi1EESM_ILi2EESM_ILi3EEEEEEESt20_Sp_alloc_shared_tagIT_EDpOT0_
DA:122,0
DA:148,0
DA:150,0
DA:160,0
DA:257,0
DA:258,0
DA:304,0
DA:305,0
DA:363,0
DA:365,0
DA:383,0
DA:385,0
DA:408,0
DA:409,0
DA:410,0
DA:408,0
DA:409,0
DA:410,0
DA:408,0
DA:409,0
DA:410,0
DA:408,0
DA:409,0
DA:410,0
DA:408,0
DA:409,0
DA:410,0
DA:443,0
DA:444,0
DA:582,0
DA:585,0
DA:858,0
DA:863,0
DA:875,0
DA:878,0
DA:879,0
end_of_record
SF:/usr/include/c++/11/bits/std_mutex.h
DA:65,0
DA:91,0
end_of_record
SF:/usr/include/string.h
DA:266,0
DA:268,0
end_of_record
SF:/usr/include/c++/11/bits/std_function.h
FN:158,_ZNSt14_Function_base13_Base_managerISt5_BindIFMN7hare_mq12BrokerServerEFvRKSt10shared_ptrIN5muduo3net13TcpConnectionEERKS4_INS2_19closeChannelRequestEENS5_9TimestampEEPS3_St12_PlaceholderILi1EESJ_ILi2EESJ_ILi3EEEEE9_M_createIRKSO_EEvRSt9_Any_dataOT_St17integral_constantIbLb0EE
FNDA:0,_ZNSt14_Function_base13_Base_managerISt5_BindIFMN7hare_mq12BrokerServerEFvRKSt10shared_ptrIN5muduo3net13TcpConnectionEERKS4_INS2_19closeChannelRequestEENS5_9TimestampEEPS3_St12_PlaceholderILi1EESJ_ILi2EESJ_ILi3EEEEE9_M_createIRKSO_EEvRSt9_Any_dataOT_St17integral_constantIbLb0EE
FN:158,_ZNSt14_Function_base13_Base_managerISt5_BindIFMN7hare_mq12BrokerServerEFvRKSt10shared_ptrIN5muduo3net13TcpConnectionEERKS4_INS2_17basicQueryRequestEENS5_9TimestampEEPS3_St12_PlaceholderILi1EESJ_ILi2EESJ_ILi3EEEEE9_M_createIRKSO_EEvRSt9_Any_dataOT_St17integral_constantIbLb0EE
FNDA:0,_ZNSt14_Function_base13_Base_managerISt5_BindIFMN7hare_mq12BrokerServerEFvRKSt10shared_ptrIN5muduo3net13TcpConnectionEERKS4_INS2_17basicQueryRequestEENS5_9TimestampEEPS3_St12_PlaceholderILi1EESJ_ILi2EESJ_ILi3EEEEE9_M_createIRKSO_EEvRSt9_Any_dataOT_St17integral_constantIbLb0EE
FN:158,_ZNSt14_Function_base13_Base_managerISt5_BindIFMN7hare_mq12BrokerServerEFvRKSt10shared_ptrIN5muduo3net13TcpConnectionEERKS4_INS2_18basicCancelRequestEENS5_9TimestampEEPS3_St12_PlaceholderILi1EESJ_ILi2EESJ_ILi3EEEEE9_M_createIRKSO_EEvRSt9_Any_dataOT_St17integral_constantIbLb0EE
FNDA:0,_ZNSt14_Function_base13_Base_managerISt5_BindIFMN7hare_mq12BrokerServerEFvRKSt10shared_ptrIN5muduo3net13TcpConnectionEERKS4_INS2_18basicCancelRequestEENS5_9TimestampEEPS3_St12_PlaceholderILi1EESJ_ILi2EESJ_ILi3EEEEE9_M_createIRKSO_EEvRSt9_Any_dataOT_St17integral_constantIbLb0EE
FN:158,_ZNSt14_Function_base13_Base_managerISt5_BindIFMN7hare_mq12BrokerServerEFvRKSt10shared_ptrIN5muduo3net13TcpConnectionEERKS4_INS2_19basicConsumeRequestEENS5_9TimestampEEPS3_St12_PlaceholderILi1EESJ_ILi2EESJ_ILi3EEEEE9_M_createIRKSO_EEvRSt9_Any_dataOT_St17integral_constantIbLb0EE
FNDA:0,_ZNSt14_Function_base13_Base_managerISt5_BindIFMN7hare_mq12BrokerServerEFvRKSt10shared_ptrIN5muduo3net13TcpConnectionEERKS4_INS2_19basicConsumeRequestEENS5_9TimestampEEPS3_St12_PlaceholderILi1EESJ_ILi2EESJ_ILi3EEEEE9_M_createIRKSO_EEvRSt9_Any_dataOT_St17integral_constantIbLb0EE
FN:158,_ZNSt14_Function_base13_Base_managerISt5_BindIFMN7hare_mq12BrokerServerEFvRKSt10shared_ptrIN5muduo3net13TcpConnectionEERKS4_INS2_15basicAckRequestEENS5_9TimestampEEPS3_St12_PlaceholderILi1EESJ_ILi2EESJ_ILi3EEEEE9_M_createIRKSO_EEvRSt9_Any_dataOT_St17integral_constantIbLb0EE
FNDA:0,_ZNSt14_Function_base13_Base_managerISt5_BindIFMN7hare_mq12BrokerServerEFvRKSt10shared_ptrIN5muduo3net13TcpConnectionEERKS4_INS2_15basicAckRequestEENS5_9TimestampEEPS3_St12_PlaceholderILi1EESJ_ILi2EESJ_ILi3EEEEE9_M_createIRKSO_EEvRSt9_Any_dataOT_St17integral_constantIbLb0EE
FN:158,_ZNSt14_Function_base13_Base_managerISt5_BindIFMN7hare_mq12BrokerServerEFvRKSt10shared_ptrIN5muduo3net13TcpConnectionEERKS4_INS2_19basicPublishRequestEENS5_9TimestampEEPS3_St12_PlaceholderILi1EESJ_ILi2EESJ_ILi3EEEEE9_M_createIRKSO_EEvRSt9_Any_dataOT_St17integral_constantIbLb0EE
FNDA:0,_ZNSt14_Function_base13_Base_managerISt5_BindIFMN7hare_mq12BrokerServerEFvRKSt10shared_ptrIN5muduo3net13TcpConnectionEERKS4_INS2_19basicPublishRequestEENS5_9TimestampEEPS3_St12_PlaceholderILi1EESJ_ILi2EESJ_ILi3EEEEE9_M_createIRKSO_EEvRSt9_Any_dataOT_St17integral_constantIbLb0EE
FN:158,_ZNSt14_Function_base13_Base_managerISt5_BindIFMN7hare_mq12BrokerServerEFvRKSt10shared_ptrIN5muduo3net13TcpConnectionEERKS4_INS2_11bindRequestEENS5_9TimestampEEPS3_St12_PlaceholderILi1EESJ_ILi2EESJ_ILi3EEEEE9_M_createIRKSO_EEvRSt9_Any_dataOT_St17integral_constantIbLb0EE
FNDA:0,_ZNSt14_Function_base13_Base_managerISt5_BindIFMN7hare_mq12BrokerServerEFvRKSt10shared_ptrIN5muduo3net13TcpConnectionEERKS4_INS2_11bindRequestEENS5_9TimestampEEPS3_St12_PlaceholderILi1EESJ_ILi2EESJ_ILi3EEEEE9_M_createIRKSO_EEvRSt9_Any_dataOT_St17integral_constantIbLb0EE
FN:158,_ZNSt14_Function_base13_Base_managerISt5_BindIFMN7hare_mq12BrokerServerEFvRKSt10shared_ptrIN5muduo3net13TcpConnectionEERKS4_INS2_18deleteQueueRequestEENS5_9TimestampEEPS3_St12_PlaceholderILi1EESJ_ILi2EESJ_ILi3EEEEE9_M_createIRKSO_EEvRSt9_Any_dataOT_St17integral_constantIbLb0EE
FNDA:0,_ZNSt14_Function_base13_Base_managerISt5_BindIFMN7hare_mq12BrokerServerEFvRKSt10shared_ptrIN5muduo3net13TcpConnectionEERKS4_INS2_18deleteQueueRequestEENS5_9TimestampEEPS3_St12_PlaceholderILi1EESJ_ILi2EESJ_ILi3EEEEE9_M_createIRKSO_EEvRSt9_Any_dataOT_St17integral_constantIbLb0EE
FN:158,_ZNSt14_Function_base13_Base_managerISt5_BindIFMN7hare_mq12BrokerServerEFvRKSt10shared_ptrIN5muduo3net13TcpConnectionEERKS4_INS2_19declareQueueRequestEENS5_9TimestampEEPS3_St12_PlaceholderILi1EESJ_ILi2EESJ_ILi3EEEEE9_M_createIRKSO_EEvRSt9_Any_dataOT_St17integral_constantIbLb0EE
FNDA:0,_ZNSt14_Function_base13_Base_managerISt5_BindIFMN7hare_mq12BrokerServerEFvRKSt10shared_ptrIN5muduo3net13TcpConnectionEERKS4_INS2_19declareQueueRequestEENS5_9TimestampEEPS3_St12_PlaceholderILi1EESJ_ILi2EESJ_ILi3EEEEE9_M_createIRKSO_EEvRSt9_Any_dataOT_St17integral_constantIbLb0EE
FN:158,_ZNSt14_Function_base13_Base_managerISt5_BindIFMN7hare_mq12BrokerServerEFvRKSt10shared_ptrIN5muduo3net13TcpConnectionEERKS4_INS2_21deleteExchangeRequestEENS5_9TimestampEEPS3_St12_PlaceholderILi1EESJ_ILi2EESJ_ILi3EEEEE9_M_createIRKSO_EEvRSt9_Any_dataOT_St17integral_constantIbLb0EE
FNDA:0,_ZNSt14_Function_base13_Base_managerISt5_BindIFMN7hare_mq12BrokerServerEFvRKSt10shared_ptrIN5muduo3net13TcpConnectionEERKS4_INS2_21deleteExchangeRequestEENS5_9TimestampEEPS3_St12_PlaceholderILi1EESJ_ILi2EESJ_ILi3EEEEE9_M_createIRKSO_EEvRSt9_Any_dataOT_St17integral_constantIbLb0EE
FN:158,_ZNSt14_Function_base13_Base_managerISt5_BindIFMN7hare_mq12BrokerServerEFvRKSt10shared_ptrIN5muduo3net13TcpConnectionEERKS4_INS2_22declareExchangeRequestEENS5_9TimestampEEPS3_St12_PlaceholderILi1EESJ_ILi2EESJ_ILi3EEEEE9_M_createIRKSO_EEvRSt9_Any_dataOT_St17integral_constantIbLb0EE
FNDA:0,_ZNSt14_Function_base13_Base_managerISt5_BindIFMN7hare_mq12BrokerServerEFvRKSt10shared_ptrIN5muduo3net13TcpConnectionEERKS4_INS2_22declareExchangeRequestEENS5_9TimestampEEPS3_St12_PlaceholderILi1EESJ_ILi2EESJ_ILi3EEEEE9_M_createIRKSO_EEvRSt9_Any_dataOT_St17integral_constantIbLb0EE
FN:158,_ZNSt14_Function_base13_Base_managerISt5_BindIFMN7hare_mq12BrokerServerEFvRKSt10shared_ptrIN5muduo3net13TcpConnectionEERKS4_INS2_13unbindRequestEENS5_9TimestampEEPS3_St12_PlaceholderILi1EESJ_ILi2EESJ_ILi3EEEEE9_M_createIRKSO_EEvRSt9_Any_dataOT_St17integral_constantIbLb0EE
FNDA:0,_ZNSt14_Function_base13_Base_managerISt5_BindIFMN7hare_mq12BrokerServerEFvRKSt10shared_ptrIN5muduo3net13TcpConnectionEERKS4_INS2_13unbindRequestEENS5_9TimestampEEPS3_St12_PlaceholderILi1EESJ_ILi2EESJ_ILi3EEEEE9_M_createIRKSO_EEvRSt9_Any_dataOT_St17integral_constantIbLb0EE
FN:158,_ZNSt14_Function_base13_Base_managerISt5_BindIFMN7hare_mq12BrokerServerEFvRKSt10shared_ptrIN5muduo3net13TcpConnectionEERKS4_INS2_18openChannelRequestEENS5_9TimestampEEPS3_St12_PlaceholderILi1EESJ_ILi2EESJ_ILi3EEEEE9_M_createIRKSO_EEvRSt9_Any_dataOT_St17integral_constantIbLb0EE
FNDA:0,_ZNSt14_Function_base13_Base_managerISt5_BindIFMN7hare_mq12BrokerServerEFvRKSt10shared_ptrIN5muduo3net13TcpConnectionEERKS4_INS2_18openChannelRequestEENS5_9TimestampEEPS3_St12_PlaceholderILi1EESJ_ILi2EESJ_ILi3EEEEE9_M_createIRKSO_EEvRSt9_Any_dataOT_St17integral_constantIbLb0EE
FN:158,_ZNSt14_Function_base13_Base_managerISt5_BindIFMN7hare_mq12BrokerServerEFvRKSt10shared_ptrIN5muduo3net13TcpConnectionEERKS4_IN6google8protobuf7MessageEENS5_9TimestampEEPS3_St12_PlaceholderILi1EESL_ILi2EESL_ILi3EEEEE9_M_createISQ_EEvRSt9_Any_dataOT_St17integral_constantIbLb0EE
FNDA:0,_ZNSt14_Function_base13_Base_managerISt5_BindIFMN7hare_mq12BrokerServerEFvRKSt10shared_ptrIN5muduo3net13TcpConnectionEERKS4_IN6google8protobuf7MessageEENS5_9TimestampEEPS3_St12_PlaceholderILi1EESL_ILi2EESL_ILi3EEEEE9_M_createISQ_EEvRSt9_Any_dataOT_St17integral_constantIbLb0EE
FN:158,_ZNSt14_Function_base13_Base_managerISt5_BindIFMN7hare_mq12BrokerServerEFvRKSt10shared_ptrIN5muduo3net13TcpConnectionEEEPS3_St12_PlaceholderILi1EEEEE9_M_createISH_EEvRSt9_Any_dataOT_St17integral_constantIbLb0EE
FNDA:0,_ZNSt14_Function_base13_Base_managerISt5_BindIFMN7hare_mq12BrokerServerEFvRKSt10shared_ptrIN5muduo3net13TcpConnectionEEEPS3_St12_PlaceholderILi1EEEEE9_M_createISH_EEvRSt9_Any_dataOT_St17integral_constantIbLb0EE
FN:158,_ZNSt14_Function_base13_Base_managerISt5_BindIFM13ProtobufCodecFvRKSt10shared_ptrIN5muduo3net13TcpConnectionEEPNS5_6BufferENS4_9TimestampEES3_IS2_ESt12_PlaceholderILi1EESG_ILi2EESG_ILi3EEEEE9_M_createISL_EEvRSt9_Any_dataOT_St17integral_constantIbLb0EE
FNDA:0,_ZNSt14_Function_base13_Base_managerISt5_BindIFM13ProtobufCodecFvRKSt10shared_ptrIN5muduo3net13TcpConnectionEEPNS5_6BufferENS4_9TimestampEES3_IS2_ESt12_PlaceholderILi1EESG_ILi2EESG_ILi3EEEEE9_M_createISL_EEvRSt9_Any_dataOT_St17integral_constantIbLb0EE
FN:158,_ZNSt14_Function_base13_Base_managerISt5_BindIFMN7hare_mq12BrokerServerEFvRKSt10shared_ptrIN5muduo3net13TcpConnectionEERKS4_INS2_13unbindRequestEENS5_9TimestampEEPS3_St12_PlaceholderILi1EESJ_ILi2EESJ_ILi3EEEEE9_M_createISO_EEvRSt9_Any_dataOT_St17integral_constantIbLb0EE
FNDA:0,_ZNSt14_Function_base13_Base_managerISt5_BindIFMN7hare_mq12BrokerServerEFvRKSt10shared_ptrIN5muduo3net13TcpConnectionEERKS4_INS2_13unbindRequestEENS5_9TimestampEEPS3_St12_PlaceholderILi1EESJ_ILi2EESJ_ILi3EEEEE9_M_createISO_EEvRSt9_Any_dataOT_St17integral_constantIbLb0EE
FN:158,_ZNSt14_Function_base13_Base_managerISt5_BindIFMN7hare_mq12BrokerServerEFvRKSt10shared_ptrIN5muduo3net13TcpConnectionEERKS4_INS2_17basicQueryRequestEENS5_9TimestampEEPS3_St12_PlaceholderILi1EESJ_ILi2EESJ_ILi3EEEEE9_M_createISO_EEvRSt9_Any_dataOT_St17integral_constantIbLb0EE
FNDA:0,_ZNSt14_Function_base13_Base_managerISt5_BindIFMN7hare_mq12BrokerServerEFvRKSt10shared_ptrIN5muduo3net13TcpConnectionEERKS4_INS2_17basicQueryRequestEENS5_9TimestampEEPS3_St12_PlaceholderILi1EESJ_ILi2EESJ_ILi3EEEEE9_M_createISO_EEvRSt9_Any_dataOT_St17integral_constantIbLb0EE
FN:158,_ZNSt14_Function_base13_Base_managerISt5_BindIFMN7hare_mq12BrokerServerEFvRKSt10shared_ptrIN5muduo3net13TcpConnectionEERKS4_INS2_18basicCancelRequestEENS5_9TimestampEEPS3_St12_PlaceholderILi1EESJ_ILi2EESJ_ILi3EEEEE9_M_createISO_EEvRSt9_Any_dataOT_St17integral_constantIbLb0EE
FNDA:0,_ZNSt14_Function_base13_Base_managerISt5_BindIFMN7hare_mq12BrokerServerEFvRKSt10shared_ptrIN5muduo3net13TcpConnectionEERKS4_INS2_18basicCancelRequestEENS5_9TimestampEEPS3_St12_PlaceholderILi1EESJ_ILi2EESJ_ILi3EEEEE9_M_createISO_EEvRSt9_Any_dataOT_St17integral_constantIbLb0EE
FN:158,_ZNSt14_Function_base13_Base_managerISt5_BindIFMN7hare_mq12BrokerServerEFvRKSt10shared_ptrIN5muduo3net13TcpConnectionEERKS4_INS2_19basicPublishRequestEENS5_9TimestampEEPS3_St12_PlaceholderILi1EESJ_ILi2EESJ_ILi3EEEEE9_M_createISO_EEvRSt9_Any_dataOT_St17integral_constantIbLb0EE
FNDA:0,_ZNSt14_Function_base13_Base_managerISt5_BindIFMN7hare_mq12BrokerServerEFvRKSt10shared_ptrIN5muduo3net13TcpConnectionEERKS4_INS2_19basicPublishRequestEENS5_9TimestampEEPS3_St12_PlaceholderILi1EESJ_ILi2EESJ_ILi3EEEEE9_M_createISO_EEvRSt9_Any_dataOT_St17integral_constantIbLb0EE
FN:158,_ZNSt14_Function_base13_Base_managerISt5_BindIFMN7hare_mq12BrokerServerEFvRKSt10shared_ptrIN5muduo3net13TcpConnectionEERKS4_INS2_19basicConsumeRequestEENS5_9TimestampEEPS3_St12_PlaceholderILi1EESJ_ILi2EESJ_ILi3EEEEE9_M_createISO_EEvRSt9_Any_dataOT_St17integral_constantIbLb0EE
FNDA:0,_ZNSt14_Function_base13_Base_managerISt5_BindIFMN7hare_mq12BrokerServerEFvRKSt10shared_ptrIN5muduo3net13TcpConnectionEERKS4_INS2_19basicConsumeRequestEENS5_9TimestampEEPS3_St12_PlaceholderILi1EESJ_ILi2EESJ_ILi3EEEEE9_M_createISO_EEvRSt9_Any_dataOT_St17integral_constantIbLb0EE
FN:158,_ZNSt14_Function_base13_Base_managerISt5_BindIFMN7hare_mq12BrokerServerEFvRKSt10shared_ptrIN5muduo3net13TcpConnectionEERKS4_INS2_15basicAckRequestEENS5_9TimestampEEPS3_St12_PlaceholderILi1EESJ_ILi2EESJ_ILi3EEEEE9_M_createISO_EEvRSt9_Any_dataOT_St17integral_constantIbLb0EE
FNDA:0,_ZNSt14_Function_base13_Base_managerISt5_BindIFMN7hare_mq12BrokerServerEFvRKSt10shared_ptrIN5muduo3net13TcpConnectionEERKS4_INS2_15basicAckRequestEENS5_9TimestampEEPS3_St12_PlaceholderILi1EESJ_ILi2EESJ_ILi3EEEEE9_M_createISO_EEvRSt9_Any_dataOT_St17integral_constantIbLb0EE
FN:158,_ZNSt14_Function_base13_Base_managerISt5_BindIFMN7hare_mq12BrokerServerEFvRKSt10shared_ptrIN5muduo3net13TcpConnectionEERKS4_INS2_18deleteQueueRequestEENS5_9TimestampEEPS3_St12_PlaceholderILi1EESJ_ILi2EESJ_ILi3EEEEE9_M_createISO_EEvRSt9_Any_dataOT_St17integral_constantIbLb0EE
FNDA:0,_ZNSt14_Function_base13_Base_managerISt5_BindIFMN7hare_mq12BrokerServerEFvRKSt10shared_ptrIN5muduo3net13TcpConnectionEERKS4_INS2_18deleteQueueRequestEENS5_9TimestampEEPS3_St12_PlaceholderILi1EESJ_ILi2EESJ_ILi3EEEEE9_M_createISO_EEvRSt9_Any_dataOT_St17integral_constantIbLb0EE
FN:158,_ZNSt14_Function_base13_Base_managerISt5_BindIFMN7hare_mq12BrokerServerEFvRKSt10shared_ptrIN5muduo3net13TcpConnectionEERKS4_INS2_22declareExchangeRequestEENS5_9TimestampEEPS3_St12_PlaceholderILi1EESJ_ILi2EESJ_ILi3EEEEE9_M_createISO_EEvRSt9_Any_dataOT_St17integral_constantIbLb0EE
FNDA:0,_ZNSt14_Function_base13_Base_managerISt5_BindIFMN7hare_mq12BrokerServerEFvRKSt10shared_ptrIN5muduo3net13TcpConnectionEERKS4_INS2_22declareExchangeRequestEENS5_9TimestampEEPS3_St12_PlaceholderILi1EESJ_ILi2EESJ_ILi3EEEEE9_M_createISO_EEvRSt9_Any_dataOT_St17integral_constantIbLb0EE
FN:158,_ZNSt14_Function_base13_Base_managerISt5_BindIFMN7hare_mq12BrokerServerEFvRKSt10shared_ptrIN5muduo3net13TcpConnectionEERKS4_INS2_21deleteExchangeRequestEENS5_9TimestampEEPS3_St12_PlaceholderILi1EESJ_ILi2EESJ_ILi3EEEEE9_M_createISO_EEvRSt9_Any_dataOT_St17integral_constantIbLb0EE
FNDA:0,_ZNSt14_Function_base13_Base_managerISt5_BindIFMN7hare_mq12BrokerServerEFvRKSt10shared_ptrIN5muduo3net13TcpConnectionEERKS4_INS2_21deleteExchangeRequestEENS5_9TimestampEEPS3_St12_PlaceholderILi1EESJ_ILi2EESJ_ILi3EEEEE9_M_createISO_EEvRSt9_Any_dataOT_St17integral_constantIbLb0EE
FN:158,_ZNSt14_Function_base13_Base_managerISt5_BindIFMN7hare_mq12BrokerServerEFvRKSt10shared_ptrIN5muduo3net13TcpConnectionEERKS4_INS2_19closeChannelRequestEENS5_9TimestampEEPS3_St12_PlaceholderILi1EESJ_ILi2EESJ_ILi3EEEEE9_M_createISO_EEvRSt9_Any_dataOT_St17integral_constantIbLb0EE
FNDA:0,_ZNSt14_Function_base13_Base_managerISt5_BindIFMN7hare_mq12BrokerServerEFvRKSt10shared_ptrIN5muduo3net13TcpConnectionEERKS4_INS2_19closeChannelRequestEENS5_9TimestampEEPS3_St12_PlaceholderILi1EESJ_ILi2EESJ_ILi3EEEEE9_M_createISO_EEvRSt9_Any_dataOT_St17integral_constantIbLb0EE
FN:158,_ZNSt14_Function_base13_Base_managerISt5_BindIFMN7hare_mq12BrokerServerEFvRKSt10shared_ptrIN5muduo3net13TcpConnectionEERKS4_INS2_19declareQueueRequestEENS5_9TimestampEEPS3_St12_PlaceholderILi1EESJ_ILi2EESJ_ILi3EEEEE9_M_createISO_EEvRSt9_Any_dataOT_St17integral_constantIbLb0EE
FNDA:0,_ZNSt14_Function_base13_Base_managerISt5_BindIFMN7hare_mq12BrokerServerEFvRKSt10shared_ptrIN5muduo3net13TcpConnectionEERKS4_INS2_19declareQueueRequestEENS5_9TimestampEEPS3_St12_PlaceholderILi1EESJ_ILi2EESJ_ILi3EEEEE9_M_createISO_EEvRSt9_Any_dataOT_St17integral_constantIbLb0EE
FN:158,_ZNSt14_Function_base13_Base_managerISt5_BindIFM18ProtobufDispatcherKFvRKSt10shared_ptrIN5muduo3net13TcpConnectionEERKS3_IN6google8protobuf7MessageEENS4_9TimestampEEPS2_St12_PlaceholderILi1EESK_ILi2EESK_ILi3EEEEE9_M_createIRKSP_EEvRSt9_Any_dataOT_St17integral_constantIbLb0EE
FNDA:0,_ZNSt14_Function_base13_Base_managerISt5_BindIFM18ProtobufDispatcherKFvRKSt10shared_ptrIN5muduo3net13TcpConnectionEERKS3_IN6google8protobuf7MessageEENS4_9TimestampEEPS2_St12_PlaceholderILi1EESK_ILi2EESK_ILi3EEEEE9_M_createIRKSP_EEvRSt9_Any_dataOT_St17integral_constantIbLb0EE
FN:158,_ZNSt14_Function_base13_Base_managerISt5_BindIFMN7hare_mq12BrokerServerEFvRKSt10shared_ptrIN5muduo3net13TcpConnectionEERKS4_INS2_18openChannelRequestEENS5_9TimestampEEPS3_St12_PlaceholderILi1EESJ_ILi2EESJ_ILi3EEEEE9_M_createISO_EEvRSt9_Any_dataOT_St17integral_constantIbLb0EE
FNDA:0,_ZNSt14_Function_base13_Base_managerISt5_BindIFMN7hare_mq12BrokerServerEFvRKSt10shared_ptrIN5muduo3net13TcpConnectionEERKS4_INS2_18openChannelRequestEENS5_9TimestampEEPS3_St12_PlaceholderILi1EESJ_ILi2EESJ_ILi3EEEEE9_M_createISO_EEvRSt9_Any_dataOT_St17integral_constantIbLb0EE
FN:158,_ZNSt14_Function_base13_Base_managerISt5_BindIFM18ProtobufDispatcherKFvRKSt10shared_ptrIN5muduo3net13TcpConnectionEERKS3_IN6google8protobuf7MessageEENS4_9TimestampEEPS2_St12_PlaceholderILi1EESK_ILi2EESK_ILi3EEEEE9_M_createISP_EEvRSt9_Any_dataOT_St17integral_constantIbLb0EE
FNDA:0,_ZNSt14_Function_base13_Base_managerISt5_BindIFM18ProtobufDispatcherKFvRKSt10shared_ptrIN5muduo3net13TcpConnectionEERKS3_IN6google8protobuf7MessageEENS4_9TimestampEEPS2_St12_PlaceholderILi1EESK_ILi2EESK_ILi3EEEEE9_M_createISP_EEvRSt9_Any_dataOT_St17integral_constantIbLb0EE
FN:158,_ZNSt14_Function_base13_Base_managerISt5_BindIFMN7hare_mq12BrokerServerEFvRKSt10shared_ptrIN5muduo3net13TcpConnectionEERKS4_INS2_11bindRequestEENS5_9TimestampEEPS3_St12_PlaceholderILi1EESJ_ILi2EESJ_ILi3EEEEE9_M_createISO_EEvRSt9_Any_dataOT_St17integral_constantIbLb0EE
FNDA:0,_ZNSt14_Function_base13_Base_managerISt5_BindIFMN7hare_mq12BrokerServerEFvRKSt10shared_ptrIN5muduo3net13TcpConnectionEERKS4_INS2_11bindRequestEENS5_9TimestampEEPS3_St12_PlaceholderILi1EESJ_ILi2EESJ_ILi3EEEEE9_M_createISO_EEvRSt9_Any_dataOT_St17integral_constantIbLb0EE
FN:158,_ZNSt14_Function_base13_Base_managerISt5_BindIFM13ProtobufCodecFvRKSt10shared_ptrIN5muduo3net13TcpConnectionEEPNS5_6BufferENS4_9TimestampEES3_IS2_ESt12_PlaceholderILi1EESG_ILi2EESG_ILi3EEEEE9_M_createIRKSL_EEvRSt9_Any_dataOT_St17integral_constantIbLb0EE
FNDA:0,_ZNSt14_Function_base13_Base_managerISt5_BindIFM13ProtobufCodecFvRKSt10shared_ptrIN5muduo3net13TcpConnectionEEPNS5_6BufferENS4_9TimestampEES3_IS2_ESt12_PlaceholderILi1EESG_ILi2EESG_ILi3EEEEE9_M_createIRKSL_EEvRSt9_Any_dataOT_St17integral_constantIbLb0EE
FN:158,_ZNSt14_Function_base13_Base_managerISt5_BindIFMN7hare_mq12BrokerServerEFvRKSt10shared_ptrIN5muduo3net13TcpConnectionEERKS4_IN6google8protobuf7MessageEENS5_9TimestampEEPS3_St12_PlaceholderILi1EESL_ILi2EESL_ILi3EEEEE9_M_createIRKSQ_EEvRSt9_Any_dataOT_St17integral_constantIbLb0EE
FNDA:0,_ZNSt14_Function_base13_Base_managerISt5_BindIFMN7hare_mq12BrokerServerEFvRKSt10shared_ptrIN5muduo3net13TcpConnectionEERKS4_IN6google8protobuf7MessageEENS5_9TimestampEEPS3_St12_PlaceholderILi1EESL_ILi2EESL_ILi3EEEEE9_M_createIRKSQ_EEvRSt9_Any_dataOT_St17integral_constantIbLb0EE
FN:158,_ZNSt14_Function_base13_Base_managerISt5_BindIFMN7hare_mq12BrokerServerEFvRKSt10shared_ptrIN5muduo3net13TcpConnectionEEEPS3_St12_PlaceholderILi1EEEEE9_M_createIRKSH_EEvRSt9_Any_dataOT_St17integral_constantIbLb0EE
FNDA:0,_ZNSt14_Function_base13_Base_managerISt5_BindIFMN7hare_mq12BrokerServerEFvRKSt10shared_ptrIN5muduo3net13TcpConnectionEEEPS3_St12_PlaceholderILi1EEEEE9_M_createIRKSH_EEvRSt9_Any_dataOT_St17integral_constantIbLb0EE
FN:173,_ZNSt14_Function_base13_Base_managerISt5_BindIFM13ProtobufCodecFvRKSt10shared_ptrIN5muduo3net13TcpConnectionEEPNS5_6BufferENS4_9TimestampEES3_IS2_ESt12_PlaceholderILi1EESG_ILi2EESG_ILi3EEEEE10_M_destroyERSt9_Any_dataSt17integral_constantIbLb0EE
FNDA:0,_ZNSt14_Function_base13_Base_managerISt5_BindIFM13ProtobufCodecFvRKSt10shared_ptrIN5muduo3net13TcpConnectionEEPNS5_6BufferENS4_9TimestampEES3_IS2_ESt12_PlaceholderILi1EESG_ILi2EESG_ILi3EEEEE10_M_destroyERSt9_Any_dataSt17integral_constantIbLb0EE
FN:180,_ZNSt14_Function_base13_Base_managerISt5_BindIFMN7hare_mq12BrokerServerEFvRKSt10shared_ptrIN5muduo3net13TcpConnectionEERKS4_INS2_19basicPublishRequestEENS5_9TimestampEEPS3_St12_PlaceholderILi1EESJ_ILi2EESJ_ILi3EEEEE10_M_managerERSt9_Any_dataRKSQ_St18_Manager_operation
FNDA:0,_ZNSt14_Function_base13_Base_managerISt5_BindIFMN7hare_mq12BrokerServerEFvRKSt10shared_ptrIN5muduo3net13TcpConnectionEERKS4_INS2_19basicPublishRequestEENS5_9TimestampEEPS3_St12_PlaceholderILi1EESJ_ILi2EESJ_ILi3EEEEE10_M_managerERSt9_Any_dataRKSQ_St18_Manager_operation
FN:180,_ZNSt14_Function_base13_Base_managerISt5_BindIFMN7hare_mq12BrokerServerEFvRKSt10shared_ptrIN5muduo3net13TcpConnectionEERKS4_INS2_15basicAckRequestEENS5_9TimestampEEPS3_St12_PlaceholderILi1EESJ_ILi2EESJ_ILi3EEEEE10_M_managerERSt9_Any_dataRKSQ_St18_Manager_operation
FNDA:0,_ZNSt14_Function_base13_Base_managerISt5_BindIFMN7hare_mq12BrokerServerEFvRKSt10shared_ptrIN5muduo3net13TcpConnectionEERKS4_INS2_15basicAckRequestEENS5_9TimestampEEPS3_St12_PlaceholderILi1EESJ_ILi2EESJ_ILi3EEEEE10_M_managerERSt9_Any_dataRKSQ_St18_Manager_operation
FN:180,_ZNSt14_Function_base13_Base_managerIPFvRKSt10shared_ptrIN5muduo3net13TcpConnectionEEPNS3_6BufferENS2_9TimestampEN13ProtobufCodec9ErrorCodeEEE10_M_managerERSt9_Any_dataRKSG_St18_Manager_operation
FNDA:0,_ZNSt14_Function_base13_Base_managerIPFvRKSt10shared_ptrIN5muduo3net13TcpConnectionEEPNS3_6BufferENS2_9TimestampEN13ProtobufCodec9ErrorCodeEEE10_M_managerERSt9_Any_dataRKSG_St18_Manager_operation
FN:180,_ZNSt14_Function_base13_Base_managerISt5_BindIFMN7hare_mq12BrokerServerEFvRKSt10shared_ptrIN5muduo3net13TcpConnectionEERKS4_INS2_19basicConsumeRequestEENS5_9TimestampEEPS3_St12_PlaceholderILi1EESJ_ILi2EESJ_ILi3EEEEE10_M_managerERSt9_Any_dataRKSQ_St18_Manager_operation
FNDA:0,_ZNSt14_Function_base13_Base_managerISt5_BindIFMN7hare_mq12BrokerServerEFvRKSt10shared_ptrIN5muduo3net13TcpConnectionEERKS4_INS2_19basicConsumeRequestEENS5_9TimestampEEPS3_St12_PlaceholderILi1EESJ_ILi2EESJ_ILi3EEEEE10_M_managerERSt9_Any_dataRKSQ_St18_Manager_operation
FN:180,_ZNSt14_Function_base13_Base_managerISt5_BindIFMN7hare_mq12BrokerServerEFvRKSt10shared_ptrIN5muduo3net13TcpConnectionEERKS4_INS2_18openChannelRequestEENS5_9TimestampEEPS3_St12_PlaceholderILi1EESJ_ILi2EESJ_ILi3EEEEE10_M_managerERSt9_Any_dataRKSQ_St18_Manager_operation
FNDA:0,_ZNSt14_Function_base13_Base_managerISt5_BindIFMN7hare_mq12BrokerServerEFvRKSt10shared_ptrIN5muduo3net13TcpConnectionEERKS4_INS2_18openChannelRequestEENS5_9TimestampEEPS3_St12_PlaceholderILi1EESJ_ILi2EESJ_ILi3EEEEE10_M_managerERSt9_Any_dataRKSQ_St18_Manager_operation
FN:180,_ZNSt14_Function_base13_Base_managerISt5_BindIFMN7hare_mq12BrokerServerEFvRKSt10shared_ptrIN5muduo3net13TcpConnectionEERKS4_INS2_18basicCancelRequestEENS5_9TimestampEEPS3_St12_PlaceholderILi1EESJ_ILi2EESJ_ILi3EEEEE10_M_managerERSt9_Any_dataRKSQ_St18_Manager_operation
FNDA:0,_ZNSt14_Function_base13_Base_managerISt5_BindIFMN7hare_mq12BrokerServerEFvRKSt10shared_ptrIN5muduo3net13TcpConnectionEERKS4_INS2_18basicCancelRequestEENS5_9TimestampEEPS3_St12_PlaceholderILi1EESJ_ILi2EESJ_ILi3EEEEE10_M_managerERSt9_Any_dataRKSQ_St18_Manager_operation
FN:180,_ZNSt14_Function_base13_Base_managerISt5_BindIFMN7hare_mq12BrokerServerEFvRKSt10shared_ptrIN5muduo3net13TcpConnectionEERKS4_INS2_13unbindRequestEENS5_9TimestampEEPS3_St12_PlaceholderILi1EESJ_ILi2EESJ_ILi3EEEEE10_M_managerERSt9_Any_dataRKSQ_St18_Manager_operation
FNDA:0,_ZNSt14_Function_base13_Base_managerISt5_BindIFMN7hare_mq12BrokerServerEFvRKSt10shared_ptrIN5muduo3net13TcpConnectionEERKS4_INS2_13unbindRequestEENS5_9TimestampEEPS3_St12_PlaceholderILi1EESJ_ILi2EESJ_ILi3EEEEE10_M_managerERSt9_Any_dataRKSQ_St18_Manager_operation
FN:180,_ZNSt14_Function_base13_Base_managerISt5_BindIFMN7hare_mq12BrokerServerEFvRKSt10shared_ptrIN5muduo3net13TcpConnectionEERKS4_INS2_19closeChannelRequestEENS5_9TimestampEEPS3_St12_PlaceholderILi1EESJ_ILi2EESJ_ILi3EEEEE10_M_managerERSt9_Any_dataRKSQ_St18_Manager_operation
FNDA:0,_ZNSt14_Function_base13_Base_managerISt5_BindIFMN7hare_mq12BrokerServerEFvRKSt10shared_ptrIN5muduo3net13TcpConnectionEERKS4_INS2_19closeChannelRequestEENS5_9TimestampEEPS3_St12_PlaceholderILi1EESJ_ILi2EESJ_ILi3EEEEE10_M_managerERSt9_Any_dataRKSQ_St18_Manager_operation
FN:180,_ZNSt14_Function_base13_Base_managerISt5_BindIFMN7hare_mq12BrokerServerEFvRKSt10shared_ptrIN5muduo3net13TcpConnectionEERKS4_INS2_17basicQueryRequestEENS5_9TimestampEEPS3_St12_PlaceholderILi1EESJ_ILi2EESJ_ILi3EEEEE10_M_managerERSt9_Any_dataRKSQ_St18_Manager_operation
FNDA:0,_ZNSt14_Function_base13_Base_managerISt5_BindIFMN7hare_mq12BrokerServerEFvRKSt10shared_ptrIN5muduo3net13TcpConnectionEERKS4_INS2_17basicQueryRequestEENS5_9TimestampEEPS3_St12_PlaceholderILi1EESJ_ILi2EESJ_ILi3EEEEE10_M_managerERSt9_Any_dataRKSQ_St18_Manager_operation
FN:180,_ZNSt14_Function_base13_Base_managerISt5_BindIFMN7hare_mq12BrokerServerEFvRKSt10shared_ptrIN5muduo3net13TcpConnectionEERKS4_INS2_22declareExchangeRequestEENS5_9TimestampEEPS3_St12_PlaceholderILi1EESJ_ILi2EESJ_ILi3EEEEE10_M_managerERSt9_Any_dataRKSQ_St18_Manager_operation
FNDA:0,_ZNSt14_Function_base13_Base_managerISt5_BindIFMN7hare_mq12BrokerServerEFvRKSt10shared_ptrIN5muduo3net13TcpConnectionEERKS4_INS2_22declareExchangeRequestEENS5_9TimestampEEPS3_St12_PlaceholderILi1EESJ_ILi2EESJ_ILi3EEEEE10_M_managerERSt9_Any_dataRKSQ_St18_Manager_operation
FN:180,_ZNSt14_Function_base13_Base_managerISt5_BindIFM13ProtobufCodecFvRKSt10shared_ptrIN5muduo3net13TcpConnectionEEPNS5_6BufferENS4_9TimestampEES3_IS2_ESt12_PlaceholderILi1EESG_ILi2EESG_ILi3EEEEE10_M_managerERSt9_Any_dataRKSN_St18_Manager_operation
FNDA:0,_ZNSt14_Function_base13_Base_managerISt5_BindIFM13ProtobufCodecFvRKSt10shared_ptrIN5muduo3net13TcpConnectionEEPNS5_6BufferENS4_9TimestampEES3_IS2_ESt12_PlaceholderILi1EESG_ILi2EESG_ILi3EEEEE10_M_managerERSt9_Any_dataRKSN_St18_Manager_operation
FN:180,_ZNSt14_Function_base13_Base_managerISt5_BindIFMN7hare_mq12BrokerServerEFvRKSt10shared_ptrIN5muduo3net13TcpConnectionEEEPS3_St12_PlaceholderILi1EEEEE10_M_managerERSt9_Any_dataRKSJ_St18_Manager_operation
FNDA:0,_ZNSt14_Function_base13_Base_managerISt5_BindIFMN7hare_mq12BrokerServerEFvRKSt10shared_ptrIN5muduo3net13TcpConnectionEEEPS3_St12_PlaceholderILi1EEEEE10_M_managerERSt9_Any_dataRKSJ_St18_Manager_operation
FN:180,_ZNSt14_Function_base13_Base_managerISt5_BindIFMN7hare_mq12BrokerServerEFvRKSt10shared_ptrIN5muduo3net13TcpConnectionEERKS4_INS2_21deleteExchangeRequestEENS5_9TimestampEEPS3_St12_PlaceholderILi1EESJ_ILi2EESJ_ILi3EEEEE10_M_managerERSt9_Any_dataRKSQ_St18_Manager_operation
FNDA:0,_ZNSt14_Function_base13_Base_managerISt5_BindIFMN7hare_mq12BrokerServerEFvRKSt10shared_ptrIN5muduo3net13TcpConnectionEERKS4_INS2_21deleteExchangeRequestEENS5_9TimestampEEPS3_St12_PlaceholderILi1EESJ_ILi2EESJ_ILi3EEEEE10_M_managerERSt9_Any_dataRKSQ_St18_Manager_operation
FN:180,_ZNSt14_Function_base13_Base_managerISt5_BindIFMN7hare_mq12BrokerServerEFvRKSt10shared_ptrIN5muduo3net13TcpConnectionEERKS4_IN6google8protobuf7MessageEENS5_9TimestampEEPS3_St12_PlaceholderILi1EESL_ILi2EESL_ILi3EEEEE10_M_managerERSt9_Any_dataRKSS_St18_Manager_operation
FNDA:0,_ZNSt14_Function_base13_Base_managerISt5_BindIFMN7hare_mq12BrokerServerEFvRKSt10shared_ptrIN5muduo3net13TcpConnectionEERKS4_IN6google8protobuf7MessageEENS5_9TimestampEEPS3_St12_PlaceholderILi1EESL_ILi2EESL_ILi3EEEEE10_M_managerERSt9_Any_dataRKSS_St18_Manager_operation
FN:180,_ZNSt14_Function_base13_Base_managerISt5_BindIFMN7hare_mq12BrokerServerEFvRKSt10shared_ptrIN5muduo3net13TcpConnectionEERKS4_INS2_19declareQueueRequestEENS5_9TimestampEEPS3_St12_PlaceholderILi1EESJ_ILi2EESJ_ILi3EEEEE10_M_managerERSt9_Any_dataRKSQ_St18_Manager_operation
FNDA:0,_ZNSt14_Function_base13_Base_managerISt5_BindIFMN7hare_mq12BrokerServerEFvRKSt10shared_ptrIN5muduo3net13TcpConnectionEERKS4_INS2_19declareQueueRequestEENS5_9TimestampEEPS3_St12_PlaceholderILi1EESJ_ILi2EESJ_ILi3EEEEE10_M_managerERSt9_Any_dataRKSQ_St18_Manager_operation
FN:180,_ZNSt14_Function_base13_Base_managerISt5_BindIFM18ProtobufDispatcherKFvRKSt10shared_ptrIN5muduo3net13TcpConnectionEERKS3_IN6google8protobuf7MessageEENS4_9TimestampEEPS2_St12_PlaceholderILi1EESK_ILi2EESK_ILi3EEEEE10_M_managerERSt9_Any_dataRKSR_St18_Manager_operation
FNDA:0,_ZNSt14_Function_base13_Base_managerISt5_BindIFM18ProtobufDispatcherKFvRKSt10shared_ptrIN5muduo3net13TcpConnectionEERKS3_IN6google8protobuf7MessageEENS4_9TimestampEEPS2_St12_PlaceholderILi1EESK_ILi2EESK_ILi3EEEEE10_M_managerERSt9_Any_dataRKSR_St18_Manager_operation
FN:180,_ZNSt14_Function_base13_Base_managerISt5_BindIFMN7hare_mq12BrokerServerEFvRKSt10shared_ptrIN5muduo3net13TcpConnectionEERKS4_INS2_18deleteQueueRequestEENS5_9TimestampEEPS3_St12_PlaceholderILi1EESJ_ILi2EESJ_ILi3EEEEE10_M_managerERSt9_Any_dataRKSQ_St18_Manager_operation
FNDA:0,_ZNSt14_Function_base13_Base_managerISt5_BindIFMN7hare_mq12BrokerServerEFvRKSt10shared_ptrIN5muduo3net13TcpConnectionEERKS4_INS2_18deleteQueueRequestEENS5_9TimestampEEPS3_St12_PlaceholderILi1EESJ_ILi2EESJ_ILi3EEEEE10_M_managerERSt9_Any_dataRKSQ_St18_Manager_operation
FN:180,_ZNSt14_Function_base13_Base_managerISt5_BindIFMN7hare_mq12BrokerServerEFvRKSt10shared_ptrIN5muduo3net13TcpConnectionEERKS4_INS2_11bindRequestEENS5_9TimestampEEPS3_St12_PlaceholderILi1EESJ_ILi2EESJ_ILi3EEEEE10_M_managerERSt9_Any_dataRKSQ_St18_Manager_operation
FNDA:0,_ZNSt14_Function_base13_Base_managerISt5_BindIFMN7hare_mq12BrokerServerEFvRKSt10shared_ptrIN5muduo3net13TcpConnectionEERKS4_INS2_11bindRequestEENS5_9TimestampEEPS3_St12_PlaceholderILi1EESJ_ILi2EESJ_ILi3EEEEE10_M_managerERSt9_Any_dataRKSQ_St18_Manager_operation
FN:241,_ZNSt14_Function_baseD2Ev
FNDA:0,_ZNSt14_Function_baseD2Ev
FN:267,_ZNSt17_Function_handlerIFvRKSt10shared_ptrIN5muduo3net13TcpConnectionEERKS0_IN7hare_mq13unbindRequestEENS1_9TimestampEESt5_BindIFMNS7_12BrokerServerEFvS6_SB_SC_EPSF_St12_PlaceholderILi1EESJ_ILi2EESJ_ILi3EEEEE10_M_managerERSt9_Any_dataRKSQ_St18_Manager_operation
FNDA:0,_ZNSt17_Function_handlerIFvRKSt10shared_ptrIN5muduo3net13TcpConnectionEERKS0_IN7hare_mq13unbindRequestEENS1_9TimestampEESt5_BindIFMNS7_12BrokerServerEFvS6_SB_SC_EPSF_St12_PlaceholderILi1EESJ_ILi2EESJ_ILi3EEEEE10_M_managerERSt9_Any_dataRKSQ_St18_Manager_operation
FN:267,_ZNSt17_Function_handlerIFvRKSt10shared_ptrIN5muduo3net13TcpConnectionEERKS0_IN7hare_mq15basicAckRequestEENS1_9TimestampEESt5_BindIFMNS7_12BrokerServerEFvS6_SB_SC_EPSF_St12_PlaceholderILi1EESJ_ILi2EESJ_ILi3EEEEE10_M_managerERSt9_Any_dataRKSQ_St18_Manager_operation
FNDA:0,_ZNSt17_Function_handlerIFvRKSt10shared_ptrIN5muduo3net13TcpConnectionEERKS0_IN7hare_mq15basicAckRequestEENS1_9TimestampEESt5_BindIFMNS7_12BrokerServerEFvS6_SB_SC_EPSF_St12_PlaceholderILi1EESJ_ILi2EESJ_ILi3EEEEE10_M_managerERSt9_Any_dataRKSQ_St18_Manager_operation
FN:267,_ZNSt17_Function_handlerIFvRKSt10shared_ptrIN5muduo3net13TcpConnectionEERKS0_IN6google8protobuf7MessageEENS1_9TimestampEESt5_BindIFMN7hare_mq12BrokerServerEFvS6_SC_SD_EPSH_St12_PlaceholderILi1EESL_ILi2EESL_ILi3EEEEE10_M_managerERSt9_Any_dataRKSS_St18_Manager_operation
FNDA:0,_ZNSt17_Function_handlerIFvRKSt10shared_ptrIN5muduo3net13TcpConnectionEERKS0_IN6google8protobuf7MessageEENS1_9TimestampEESt5_BindIFMN7hare_mq12BrokerServerEFvS6_SC_SD_EPSH_St12_PlaceholderILi1EESL_ILi2EESL_ILi3EEEEE10_M_managerERSt9_Any_dataRKSS_St18_Manager_operation
FN:267,_ZNSt17_Function_handlerIFvRKSt10shared_ptrIN5muduo3net13TcpConnectionEEPNS2_6BufferENS1_9TimestampEN13ProtobufCodec9ErrorCodeEEPSC_E10_M_managerERSt9_Any_dataRKSF_St18_Manager_operation
FNDA:0,_ZNSt17_Function_handlerIFvRKSt10shared_ptrIN5muduo3net13TcpConnectionEEPNS2_6BufferENS1_9TimestampEN13ProtobufCodec9ErrorCodeEEPSC_E10_M_managerERSt9_Any_dataRKSF_St18_Manager_operation
FN:267,_ZNSt17_Function_handlerIFvRKSt10shared_ptrIN5muduo3net13TcpConnectionEEESt5_BindIFMN7hare_mq12BrokerServerEFvS6_EPSA_St12_PlaceholderILi1EEEEE10_M_managerERSt9_Any_dataRKSJ_St18_Manager_operation
FNDA:0,_ZNSt17_Function_handlerIFvRKSt10shared_ptrIN5muduo3net13TcpConnectionEEESt5_BindIFMN7hare_mq12BrokerServerEFvS6_EPSA_St12_PlaceholderILi1EEEEE10_M_managerERSt9_Any_dataRKSJ_St18_Manager_operation
FN:267,_ZNSt17_Function_handlerIFvRKSt10shared_ptrIN5muduo3net13TcpConnectionEERKS0_IN7hare_mq19basicPublishRequestEENS1_9TimestampEESt5_BindIFMNS7_12BrokerServerEFvS6_SB_SC_EPSF_St12_PlaceholderILi1EESJ_ILi2EESJ_ILi3EEEEE10_M_managerERSt9_Any_dataRKSQ_St18_Manager_operation
FNDA:0,_ZNSt17_Function_handlerIFvRKSt10shared_ptrIN5muduo3net13TcpConnectionEERKS0_IN7hare_mq19basicPublishRequestEENS1_9TimestampEESt5_BindIFMNS7_12BrokerServerEFvS6_SB_SC_EPSF_St12_PlaceholderILi1EESJ_ILi2EESJ_ILi3EEEEE10_M_managerERSt9_Any_dataRKSQ_St18_Manager_operation
FN:267,_ZNSt17_Function_handlerIFvRKSt10shared_ptrIN5muduo3net13TcpConnectionEERKS0_IN7hare_mq18openChannelRequestEENS1_9TimestampEESt5_BindIFMNS7_12BrokerServerEFvS6_SB_SC_EPSF_St12_PlaceholderILi1EESJ_ILi2EESJ_ILi3EEEEE10_M_managerERSt9_Any_dataRKSQ_St18_Manager_operation
FNDA:0,_ZNSt17_Function_handlerIFvRKSt10shared_ptrIN5muduo3net13TcpConnectionEERKS0_IN7hare_mq18openChannelRequestEENS1_9TimestampEESt5_BindIFMNS7_12BrokerServerEFvS6_SB_SC_EPSF_St12_PlaceholderILi1EESJ_ILi2EESJ_ILi3EEEEE10_M_managerERSt9_Any_dataRKSQ_St18_Manager_operation
FN:267,_ZNSt17_Function_handlerIFvRKSt10shared_ptrIN5muduo3net13TcpConnectionEEPNS2_6BufferENS1_9TimestampEESt5_BindIFM13ProtobufCodecFvS6_S8_S9_ES0_ISC_ESt12_PlaceholderILi1EESG_ILi2EESG_ILi3EEEEE10_M_managerERSt9_Any_dataRKSN_St18_Manager_operation
FNDA:0,_ZNSt17_Function_handlerIFvRKSt10shared_ptrIN5muduo3net13TcpConnectionEEPNS2_6BufferENS1_9TimestampEESt5_BindIFM13ProtobufCodecFvS6_S8_S9_ES0_ISC_ESt12_PlaceholderILi1EESG_ILi2EESG_ILi3EEEEE10_M_managerERSt9_Any_dataRKSN_St18_Manager_operation
FN:267,_ZNSt17_Function_handlerIFvRKSt10shared_ptrIN5muduo3net13TcpConnectionEERKS0_IN7hare_mq19closeChannelRequestEENS1_9TimestampEESt5_BindIFMNS7_12BrokerServerEFvS6_SB_SC_EPSF_St12_PlaceholderILi1EESJ_ILi2EESJ_ILi3EEEEE10_M_managerERSt9_Any_dataRKSQ_St18_Manager_operation
FNDA:0,_ZNSt17_Function_handlerIFvRKSt10shared_ptrIN5muduo3net13TcpConnectionEERKS0_IN7hare_mq19closeChannelRequestEENS1_9TimestampEESt5_BindIFMNS7_12BrokerServerEFvS6_SB_SC_EPSF_St12_PlaceholderILi1EESJ_ILi2EESJ_ILi3EEEEE10_M_managerERSt9_Any_dataRKSQ_St18_Manager_operation
FN:267,_ZNSt17_Function_handlerIFvRKSt10shared_ptrIN5muduo3net13TcpConnectionEERKS0_IN7hare_mq22declareExchangeRequestEENS1_9TimestampEESt5_BindIFMNS7_12BrokerServerEFvS6_SB_SC_EPSF_St12_PlaceholderILi1EESJ_ILi2EESJ_ILi3EEEEE10_M_managerERSt9_Any_dataRKSQ_St18_Manager_operation
FNDA:0,_ZNSt17_Function_handlerIFvRKSt10shared_ptrIN5muduo3net13TcpConnectionEERKS0_IN7hare_mq22declareExchangeRequestEENS1_9TimestampEESt5_BindIFMNS7_12BrokerServerEFvS6_SB_SC_EPSF_St12_PlaceholderILi1EESJ_ILi2EESJ_ILi3EEEEE10_M_managerERSt9_Any_dataRKSQ_St18_Manager_operation
FN:267,_ZNSt17_Function_handlerIFvRKSt10shared_ptrIN5muduo3net13TcpConnectionEERKS0_IN6google8protobuf7MessageEENS1_9TimestampEESt5_BindIFM18ProtobufDispatcherKFvS6_SC_SD_EPSG_St12_PlaceholderILi1EESK_ILi2EESK_ILi3EEEEE10_M_managerERSt9_Any_dataRKSR_St18_Manager_operation
FNDA:0,_ZNSt17_Function_handlerIFvRKSt10shared_ptrIN5muduo3net13TcpConnectionEERKS0_IN6google8protobuf7MessageEENS1_9TimestampEESt5_BindIFM18ProtobufDispatcherKFvS6_SC_SD_EPSG_St12_PlaceholderILi1EESK_ILi2EESK_ILi3EEEEE10_M_managerERSt9_Any_dataRKSR_St18_Manager_operation
FN:267,_ZNSt17_Function_handlerIFvRKSt10shared_ptrIN5muduo3net13TcpConnectionEERKS0_IN7hare_mq17basicQueryRequestEENS1_9TimestampEESt5_BindIFMNS7_12BrokerServerEFvS6_SB_SC_EPSF_St12_PlaceholderILi1EESJ_ILi2EESJ_ILi3EEEEE10_M_managerERSt9_Any_dataRKSQ_St18_Manager_operation
FNDA:0,_ZNSt17_Function_handlerIFvRKSt10shared_ptrIN5muduo3net13TcpConnectionEERKS0_IN7hare_mq17basicQueryRequestEENS1_9TimestampEESt5_BindIFMNS7_12BrokerServerEFvS6_SB_SC_EPSF_St12_PlaceholderILi1EESJ_ILi2EESJ_ILi3EEEEE10_M_managerERSt9_Any_dataRKSQ_St18_Manager_operation
FN:267,_ZNSt17_Function_handlerIFvRKSt10shared_ptrIN5muduo3net13TcpConnectionEERKS0_IN7hare_mq18basicCancelRequestEENS1_9TimestampEESt5_BindIFMNS7_12BrokerServerEFvS6_SB_SC_EPSF_St12_PlaceholderILi1EESJ_ILi2EESJ_ILi3EEEEE10_M_managerERSt9_Any_dataRKSQ_St18_Manager_operation
FNDA:0,_ZNSt17_Function_handlerIFvRKSt10shared_ptrIN5muduo3net13TcpConnectionEERKS0_IN7hare_mq18basicCancelRequestEENS1_9TimestampEESt5_BindIFMNS7_12BrokerServerEFvS6_SB_SC_EPSF_St12_PlaceholderILi1EESJ_ILi2EESJ_ILi3EEEEE10_M_managerERSt9_Any_dataRKSQ_St18_Manager_operation
FN:267,_ZNSt17_Function_handlerIFvRKSt10shared_ptrIN5muduo3net13TcpConnectionEERKS0_IN7hare_mq11bindRequestEENS1_9TimestampEESt5_BindIFMNS7_12BrokerServerEFvS6_SB_SC_EPSF_St12_PlaceholderILi1EESJ_ILi2EESJ_ILi3EEEEE10_M_managerERSt9_Any_dataRKSQ_St18_Manager_operation
FNDA:0,_ZNSt17_Function_handlerIFvRKSt10shared_ptrIN5muduo3net13TcpConnectionEERKS0_IN7hare_mq11bindRequestEENS1_9TimestampEESt5_BindIFMNS7_12BrokerServerEFvS6_SB_SC_EPSF_St12_PlaceholderILi1EESJ_ILi2EESJ_ILi3EEEEE10_M_managerERSt9_Any_dataRKSQ_St18_Manager_operation
FN:267,_ZNSt17_Function_handlerIFvRKSt10shared_ptrIN5muduo3net13TcpConnectionEERKS0_IN7hare_mq21deleteExchangeRequestEENS1_9TimestampEESt5_BindIFMNS7_12BrokerServerEFvS6_SB_SC_EPSF_St12_PlaceholderILi1EESJ_ILi2EESJ_ILi3EEEEE10_M_managerERSt9_Any_dataRKSQ_St18_Manager_operation
FNDA:0,_ZNSt17_Function_handlerIFvRKSt10shared_ptrIN5muduo3net13TcpConnectionEERKS0_IN7hare_mq21deleteExchangeRequestEENS1_9TimestampEESt5_BindIFMNS7_12BrokerServerEFvS6_SB_SC_EPSF_St12_PlaceholderILi1EESJ_ILi2EESJ_ILi3EEEEE10_M_managerERSt9_Any_dataRKSQ_St18_Manager_operation
FN:267,_ZNSt17_Function_handlerIFvRKSt10shared_ptrIN5muduo3net13TcpConnectionEERKS0_IN7hare_mq19basicConsumeRequestEENS1_9TimestampEESt5_BindIFMNS7_12BrokerServerEFvS6_SB_SC_EPSF_St12_PlaceholderILi1EESJ_ILi2EESJ_ILi3EEEEE10_M_managerERSt9_Any_dataRKSQ_St18_Manager_operation
FNDA:0,_ZNSt17_Function_handlerIFvRKSt10shared_ptrIN5muduo3net13TcpConnectionEERKS0_IN7hare_mq19basicConsumeRequestEENS1_9TimestampEESt5_BindIFMNS7_12BrokerServerEFvS6_SB_SC_EPSF_St12_PlaceholderILi1EESJ_ILi2EESJ_ILi3EEEEE10_M_managerERSt9_Any_dataRKSQ_St18_Manager_operation
FN:267,_ZNSt17_Function_handlerIFvRKSt10shared_ptrIN5muduo3net13TcpConnectionEERKS0_IN7hare_mq19declareQueueRequestEENS1_9TimestampEESt5_BindIFMNS7_12BrokerServerEFvS6_SB_SC_EPSF_St12_PlaceholderILi1EESJ_ILi2EESJ_ILi3EEEEE10_M_managerERSt9_Any_dataRKSQ_St18_Manager_operation
FNDA:0,_ZNSt17_Function_handlerIFvRKSt10shared_ptrIN5muduo3net13TcpConnectionEERKS0_IN7hare_mq19declareQueueRequestEENS1_9TimestampEESt5_BindIFMNS7_12BrokerServerEFvS6_SB_SC_EPSF_St12_PlaceholderILi1EESJ_ILi2EESJ_ILi3EEEEE10_M_managerERSt9_Any_dataRKSQ_St18_Manager_operation
FN:267,_ZNSt17_Function_handlerIFvRKSt10shared_ptrIN5muduo3net13TcpConnectionEERKS0_IN7hare_mq18deleteQueueRequestEENS1_9TimestampEESt5_BindIFMNS7_12BrokerServerEFvS6_SB_SC_EPSF_St12_PlaceholderILi1EESJ_ILi2EESJ_ILi3EEEEE10_M_managerERSt9_Any_dataRKSQ_St18_Manager_operation
FNDA:0,_ZNSt17_Function_handlerIFvRKSt10shared_ptrIN5muduo3net13TcpConnectionEERKS0_IN7hare_mq18deleteQueueRequestEENS1_9TimestampEESt5_BindIFMNS7_12BrokerServerEFvS6_SB_SC_EPSF_St12_PlaceholderILi1EESJ_ILi2EESJ_ILi3EEEEE10_M_managerERSt9_Any_dataRKSQ_St18_Manager_operation
FN:288,_ZNSt17_Function_handlerIFvRKSt10shared_ptrIN5muduo3net13TcpConnectionEERKS0_IN7hare_mq19basicConsumeRequestEENS1_9TimestampEESt5_BindIFMNS7_12BrokerServerEFvS6_SB_SC_EPSF_St12_PlaceholderILi1EESJ_ILi2EESJ_ILi3EEEEE9_M_invokeERKSt9_Any_dataS6_SB_OSC_
FNDA:0,_ZNSt17_Function_handlerIFvRKSt10shared_ptrIN5muduo3net13TcpConnectionEERKS0_IN7hare_mq19basicConsumeRequestEENS1_9TimestampEESt5_BindIFMNS7_12BrokerServerEFvS6_SB_SC_EPSF_St12_PlaceholderILi1EESJ_ILi2EESJ_ILi3EEEEE9_M_invokeERKSt9_Any_dataS6_SB_OSC_
FN:288,_ZNSt17_Function_handlerIFvRKSt10shared_ptrIN5muduo3net13TcpConnectionEEPNS2_6BufferENS1_9TimestampEESt5_BindIFM13ProtobufCodecFvS6_S8_S9_ES0_ISC_ESt12_PlaceholderILi1EESG_ILi2EESG_ILi3EEEEE9_M_invokeERKSt9_Any_dataS6_OS8_OS9_
FNDA:0,_ZNSt17_Function_handlerIFvRKSt10shared_ptrIN5muduo3net13TcpConnectionEEPNS2_6BufferENS1_9TimestampEESt5_BindIFM13ProtobufCodecFvS6_S8_S9_ES0_ISC_ESt12_PlaceholderILi1EESG_ILi2EESG_ILi3EEEEE9_M_invokeERKSt9_Any_dataS6_OS8_OS9_
FN:288,_ZNSt17_Function_handlerIFvRKSt10shared_ptrIN5muduo3net13TcpConnectionEERKS0_IN7hare_mq17basicQueryRequestEENS1_9TimestampEESt5_BindIFMNS7_12BrokerServerEFvS6_SB_SC_EPSF_St12_PlaceholderILi1EESJ_ILi2EESJ_ILi3EEEEE9_M_invokeERKSt9_Any_dataS6_SB_OSC_
FNDA:0,_ZNSt17_Function_handlerIFvRKSt10shared_ptrIN5muduo3net13TcpConnectionEERKS0_IN7hare_mq17basicQueryRequestEENS1_9TimestampEESt5_BindIFMNS7_12BrokerServerEFvS6_SB_SC_EPSF_St12_PlaceholderILi1EESJ_ILi2EESJ_ILi3EEEEE9_M_invokeERKSt9_Any_dataS6_SB_OSC_
FN:288,_ZNSt17_Function_handlerIFvRKSt10shared_ptrIN5muduo3net13TcpConnectionEEESt5_BindIFMN7hare_mq12BrokerServerEFvS6_EPSA_St12_PlaceholderILi1EEEEE9_M_invokeERKSt9_Any_dataS6_
FNDA:0,_ZNSt17_Function_handlerIFvRKSt10shared_ptrIN5muduo3net13TcpConnectionEEESt5_BindIFMN7hare_mq12BrokerServerEFvS6_EPSA_St12_PlaceholderILi1EEEEE9_M_invokeERKSt9_Any_dataS6_
FN:288,_ZNSt17_Function_handlerIFvRKSt10shared_ptrIN5muduo3net13TcpConnectionEERKS0_IN7hare_mq18basicCancelRequestEENS1_9TimestampEESt5_BindIFMNS7_12BrokerServerEFvS6_SB_SC_EPSF_St12_PlaceholderILi1EESJ_ILi2EESJ_ILi3EEEEE9_M_invokeERKSt9_Any_dataS6_SB_OSC_
FNDA:0,_ZNSt17_Function_handlerIFvRKSt10shared_ptrIN5muduo3net13TcpConnectionEERKS0_IN7hare_mq18basicCancelRequestEENS1_9TimestampEESt5_BindIFMNS7_12BrokerServerEFvS6_SB_SC_EPSF_St12_PlaceholderILi1EESJ_ILi2EESJ_ILi3EEEEE9_M_invokeERKSt9_Any_dataS6_SB_OSC_
FN:288,_ZNSt17_Function_handlerIFvRKSt10shared_ptrIN5muduo3net13TcpConnectionEERKS0_IN6google8protobuf7MessageEENS1_9TimestampEESt5_BindIFMN7hare_mq12BrokerServerEFvS6_SC_SD_EPSH_St12_PlaceholderILi1EESL_ILi2EESL_ILi3EEEEE9_M_invokeERKSt9_Any_dataS6_SC_OSD_
FNDA:0,_ZNSt17_Function_handlerIFvRKSt10shared_ptrIN5muduo3net13TcpConnectionEERKS0_IN6google8protobuf7MessageEENS1_9TimestampEESt5_BindIFMN7hare_mq12BrokerServerEFvS6_SC_SD_EPSH_St12_PlaceholderILi1EESL_ILi2EESL_ILi3EEEEE9_M_invokeERKSt9_Any_dataS6_SC_OSD_
FN:288,_ZNSt17_Function_handlerIFvRKSt10shared_ptrIN5muduo3net13TcpConnectionEEPNS2_6BufferENS1_9TimestampEN13ProtobufCodec9ErrorCodeEEPSC_E9_M_invokeERKSt9_Any_dataS6_OS8_OS9_OSB_
FNDA:0,_ZNSt17_Function_handlerIFvRKSt10shared_ptrIN5muduo3net13TcpConnectionEEPNS2_6BufferENS1_9TimestampEN13ProtobufCodec9ErrorCodeEEPSC_E9_M_invokeERKSt9_Any_dataS6_OS8_OS9_OSB_
FN:288,_ZNSt17_Function_handlerIFvRKSt10shared_ptrIN5muduo3net13TcpConnectionEERKS0_IN7hare_mq15basicAckRequestEENS1_9TimestampEESt5_BindIFMNS7_12BrokerServerEFvS6_SB_SC_EPSF_St12_PlaceholderILi1EESJ_ILi2EESJ_ILi3EEEEE9_M_invokeERKSt9_Any_dataS6_SB_OSC_
FNDA:0,_ZNSt17_Function_handlerIFvRKSt10shared_ptrIN5muduo3net13TcpConnectionEERKS0_IN7hare_mq15basicAckRequestEENS1_9TimestampEESt5_BindIFMNS7_12BrokerServerEFvS6_SB_SC_EPSF_St12_PlaceholderILi1EESJ_ILi2EESJ_ILi3EEEEE9_M_invokeERKSt9_Any_dataS6_SB_OSC_
FN:288,_ZNSt17_Function_handlerIFvRKSt10shared_ptrIN5muduo3net13TcpConnectionEERKS0_IN7hare_mq18openChannelRequestEENS1_9TimestampEESt5_BindIFMNS7_12BrokerServerEFvS6_SB_SC_EPSF_St12_PlaceholderILi1EESJ_ILi2EESJ_ILi3EEEEE9_M_invokeERKSt9_Any_dataS6_SB_OSC_
FNDA:0,_ZNSt17_Function_handlerIFvRKSt10shared_ptrIN5muduo3net13TcpConnectionEERKS0_IN7hare_mq18openChannelRequestEENS1_9TimestampEESt5_BindIFMNS7_12BrokerServerEFvS6_SB_SC_EPSF_St12_PlaceholderILi1EESJ_ILi2EESJ_ILi3EEEEE9_M_invokeERKSt9_Any_dataS6_SB_OSC_
FN:288,_ZNSt17_Function_handlerIFvRKSt10shared_ptrIN5muduo3net13TcpConnectionEERKS0_IN7hare_mq19closeChannelRequestEENS1_9TimestampEESt5_BindIFMNS7_12BrokerServerEFvS6_SB_SC_EPSF_St12_PlaceholderILi1EESJ_ILi2EESJ_ILi3EEEEE9_M_invokeERKSt9_Any_dataS6_SB_OSC_
FNDA:0,_ZNSt17_Function_handlerIFvRKSt10shared_ptrIN5muduo3net13TcpConnectionEERKS0_IN7hare_mq19closeChannelRequestEENS1_9TimestampEESt5_BindIFMNS7_12BrokerServerEFvS6_SB_SC_EPSF_St12_PlaceholderILi1EESJ_ILi2EESJ_ILi3EEEEE9_M_invokeERKSt9_Any_dataS6_SB_OSC_
FN:288,_ZNSt17_Function_handlerIFvRKSt10shared_ptrIN5muduo3net13TcpConnectionEERKS0_IN7hare_mq19basicPublishRequestEENS1_9TimestampEESt5_BindIFMNS7_12BrokerServerEFvS6_SB_SC_EPSF_St12_PlaceholderILi1EESJ_ILi2EESJ_ILi3EEEEE9_M_invokeERKSt9_Any_dataS6_SB_OSC_
FNDA:0,_ZNSt17_Function_handlerIFvRKSt10shared_ptrIN5muduo3net13TcpConnectionEERKS0_IN7hare_mq19basicPublishRequestEENS1_9TimestampEESt5_BindIFMNS7_12BrokerServerEFvS6_SB_SC_EPSF_St12_PlaceholderILi1EESJ_ILi2EESJ_ILi3EEEEE9_M_invokeERKSt9_Any_dataS6_SB_OSC_
FN:288,_ZNSt17_Function_handlerIFvRKSt10shared_ptrIN5muduo3net13TcpConnectionEERKS0_IN7hare_mq22declareExchangeRequestEENS1_9TimestampEESt5_BindIFMNS7_12BrokerServerEFvS6_SB_SC_EPSF_St12_PlaceholderILi1EESJ_ILi2EESJ_ILi3EEEEE9_M_invokeERKSt9_Any_dataS6_SB_OSC_
FNDA:0,_ZNSt17_Function_handlerIFvRKSt10shared_ptrIN5muduo3net13TcpConnectionEERKS0_IN7hare_mq22declareExchangeRequestEENS1_9TimestampEESt5_BindIFMNS7_12BrokerServerEFvS6_SB_SC_EPSF_St12_PlaceholderILi1EESJ_ILi2EESJ_ILi3EEEEE9_M_invokeERKSt9_Any_dataS6_SB_OSC_
FN:288,_ZNSt17_Function_handlerIFvRKSt10shared_ptrIN5muduo3net13TcpConnectionEERKS0_IN7hare_mq13unbindRequestEENS1_9TimestampEESt5_BindIFMNS7_12BrokerServerEFvS6_SB_SC_EPSF_St12_PlaceholderILi1EESJ_ILi2EESJ_ILi3EEEEE9_M_invokeERKSt9_Any_dataS6_SB_OSC_
FNDA:0,_ZNSt17_Function_handlerIFvRKSt10shared_ptrIN5muduo3net13TcpConnectionEERKS0_IN7hare_mq13unbindRequestEENS1_9TimestampEESt5_BindIFMNS7_12BrokerServerEFvS6_SB_SC_EPSF_St12_PlaceholderILi1EESJ_ILi2EESJ_ILi3EEEEE9_M_invokeERKSt9_Any_dataS6_SB_OSC_
FN:288,_ZNSt17_Function_handlerIFvRKSt10shared_ptrIN5muduo3net13TcpConnectionEERKS0_IN6google8protobuf7MessageEENS1_9TimestampEESt5_BindIFM18ProtobufDispatcherKFvS6_SC_SD_EPSG_St12_PlaceholderILi1EESK_ILi2EESK_ILi3EEEEE9_M_invokeERKSt9_Any_dataS6_SC_OSD_
FNDA:0,_ZNSt17_Function_handlerIFvRKSt10shared_ptrIN5muduo3net13TcpConnectionEERKS0_IN6google8protobuf7MessageEENS1_9TimestampEESt5_BindIFM18ProtobufDispatcherKFvS6_SC_SD_EPSG_St12_PlaceholderILi1EESK_ILi2EESK_ILi3EEEEE9_M_invokeERKSt9_Any_dataS6_SC_OSD_
FN:288,_ZNSt17_Function_handlerIFvRKSt10shared_ptrIN5muduo3net13TcpConnectionEERKS0_IN7hare_mq21deleteExchangeRequestEENS1_9TimestampEESt5_BindIFMNS7_12BrokerServerEFvS6_SB_SC_EPSF_St12_PlaceholderILi1EESJ_ILi2EESJ_ILi3EEEEE9_M_invokeERKSt9_Any_dataS6_SB_OSC_
FNDA:0,_ZNSt17_Function_handlerIFvRKSt10shared_ptrIN5muduo3net13TcpConnectionEERKS0_IN7hare_mq21deleteExchangeRequestEENS1_9TimestampEESt5_BindIFMNS7_12BrokerServerEFvS6_SB_SC_EPSF_St12_PlaceholderILi1EESJ_ILi2EESJ_ILi3EEEEE9_M_invokeERKSt9_Any_dataS6_SB_OSC_
FN:288,_ZNSt17_Function_handlerIFvRKSt10shared_ptrIN5muduo3net13TcpConnectionEERKS0_IN7hare_mq19declareQueueRequestEENS1_9TimestampEESt5_BindIFMNS7_12BrokerServerEFvS6_SB_SC_EPSF_St12_PlaceholderILi1EESJ_ILi2EESJ_ILi3EEEEE9_M_invokeERKSt9_Any_dataS6_SB_OSC_
FNDA:0,_ZNSt17_Function_handlerIFvRKSt10shared_ptrIN5muduo3net13TcpConnectionEERKS0_IN7hare_mq19declareQueueRequestEENS1_9TimestampEESt5_BindIFMNS7_12BrokerServerEFvS6_SB_SC_EPSF_St12_PlaceholderILi1EESJ_ILi2EESJ_ILi3EEEEE9_M_invokeERKSt9_Any_dataS6_SB_OSC_
FN:288,_ZNSt17_Function_handlerIFvRKSt10shared_ptrIN5muduo3net13TcpConnectionEERKS0_IN7hare_mq11bindRequestEENS1_9TimestampEESt5_BindIFMNS7_12BrokerServerEFvS6_SB_SC_EPSF_St12_PlaceholderILi1EESJ_ILi2EESJ_ILi3EEEEE9_M_invokeERKSt9_Any_dataS6_SB_OSC_
FNDA:0,_ZNSt17_Function_handlerIFvRKSt10shared_ptrIN5muduo3net13TcpConnectionEERKS0_IN7hare_mq11bindRequestEENS1_9TimestampEESt5_BindIFMNS7_12BrokerServerEFvS6_SB_SC_EPSF_St12_PlaceholderILi1EESJ_ILi2EESJ_ILi3EEEEE9_M_invokeERKSt9_Any_dataS6_SB_OSC_
FN:288,_ZNSt17_Function_handlerIFvRKSt10shared_ptrIN5muduo3net13TcpConnectionEERKS0_IN7hare_mq18deleteQueueRequestEENS1_9TimestampEESt5_BindIFMNS7_12BrokerServerEFvS6_SB_SC_EPSF_St12_PlaceholderILi1EESJ_ILi2EESJ_ILi3EEEEE9_M_invokeERKSt9_Any_dataS6_SB_OSC_
FNDA:0,_ZNSt17_Function_handlerIFvRKSt10shared_ptrIN5muduo3net13TcpConnectionEERKS0_IN7hare_mq18deleteQueueRequestEENS1_9TimestampEESt5_BindIFMNS7_12BrokerServerEFvS6_SB_SC_EPSF_St12_PlaceholderILi1EESJ_ILi2EESJ_ILi3EEEEE9_M_invokeERKSt9_Any_dataS6_SB_OSC_
FN:386,_ZNSt8functionIFvRKSt10shared_ptrIN5muduo3net13TcpConnectionEEPNS2_6BufferENS1_9TimestampEEEC2ERKSB_
FNDA:0,_ZNSt8functionIFvRKSt10shared_ptrIN5muduo3net13TcpConnectionEEPNS2_6BufferENS1_9TimestampEEEC2ERKSB_
FN:386,_ZNSt8functionIFvRKSt10shared_ptrIN5muduo3net13TcpConnectionEEEEC2ERKS8_
FNDA:0,_ZNSt8functionIFvRKSt10shared_ptrIN5muduo3net13TcpConnectionEEEEC2ERKS8_
FN:386,_ZNSt8functionIFvRKSt10shared_ptrIN5muduo3net13TcpConnectionEERKS0_IN6google8protobuf7MessageEENS1_9TimestampEEEC2ERKSF_
FNDA:0,_ZNSt8functionIFvRKSt10shared_ptrIN5muduo3net13TcpConnectionEERKS0_IN6google8protobuf7MessageEENS1_9TimestampEEEC2ERKSF_
FN:386,_ZNSt8functionIFvRKSt10shared_ptrIN5muduo3net13TcpConnectionEERKS0_IN7hare_mq21deleteExchangeRequestEENS1_9TimestampEEEC2ERKSE_
FNDA:0,_ZNSt8functionIFvRKSt10shared_ptrIN5muduo3net13TcpConnectionEERKS0_IN7hare_mq21deleteExchangeRequestEENS1_9TimestampEEEC2ERKSE_
FN:386,_ZNSt8functionIFvRKSt10shared_ptrIN5muduo3net13TcpConnectionEERKS0_IN7hare_mq19closeChannelRequestEENS1_9TimestampEEEC2ERKSE_
FNDA:0,_ZNSt8functionIFvRKSt10shared_ptrIN5muduo3net13TcpConnectionEERKS0_IN7hare_mq19closeChannelRequestEENS1_9TimestampEEEC2ERKSE_
FN:386,_ZNSt8functionIFvRKSt10shared_ptrIN5muduo3net13TcpConnectionEERKS0_IN7hare_mq17basicQueryRequestEENS1_9TimestampEEEC2ERKSE_
FNDA:0,_ZNSt8functionIFvRKSt10shared_ptrIN5muduo3net13TcpConnectionEERKS0_IN7hare_mq17basicQueryRequestEENS1_9TimestampEEEC2ERKSE_
FN:386,_ZNSt8functionIFvRKSt10shared_ptrIN5muduo3net13TcpConnectionEERKS0_IN7hare_mq18basicCancelRequestEENS1_9TimestampEEEC2ERKSE_
FNDA:0,_ZNSt8functionIFvRKSt10shared_ptrIN5muduo3net13TcpConnectionEERKS0_IN7hare_mq18basicCancelRequestEENS1_9TimestampEEEC2ERKSE_
FN:386,_ZNSt8functionIFvRKSt10shared_ptrIN5muduo3net13TcpConnectionEERKS0_IN7hare_mq19basicConsumeRequestEENS1_9TimestampEEEC2ERKSE_
FNDA:0,_ZNSt8functionIFvRKSt10shared_ptrIN5muduo3net13TcpConnectionEERKS0_IN7hare_mq19basicConsumeRequestEENS1_9TimestampEEEC2ERKSE_
FN:386,_ZNSt8functionIFvRKSt10shared_ptrIN5muduo3net13TcpConnectionEERKS0_IN7hare_mq15basicAckRequestEENS1_9TimestampEEEC2ERKSE_
FNDA:0,_ZNSt8functionIFvRKSt10shared_ptrIN5muduo3net13TcpConnectionEERKS0_IN7hare_mq15basicAckRequestEENS1_9TimestampEEEC2ERKSE_
FN:386,_ZNSt8functionIFvRKSt10shared_ptrIN5muduo3net13TcpConnectionEERKS0_IN7hare_mq19basicPublishRequestEENS1_9TimestampEEEC2ERKSE_
FNDA:0,_ZNSt8functionIFvRKSt10shared_ptrIN5muduo3net13TcpConnectionEERKS0_IN7hare_mq19basicPublishRequestEENS1_9TimestampEEEC2ERKSE_
FN:386,_ZNSt8functionIFvRKSt10shared_ptrIN5muduo3net13TcpConnectionEERKS0_IN7hare_mq13unbindRequestEENS1_9TimestampEEEC2ERKSE_
FNDA:0,_ZNSt8functionIFvRKSt10shared_ptrIN5muduo3net13TcpConnectionEERKS0_IN7hare_mq13unbindRequestEENS1_9TimestampEEEC2ERKSE_
FN:386,_ZNSt8functionIFvRKSt10shared_ptrIN5muduo3net13TcpConnectionEERKS0_IN7hare_mq11bindRequestEENS1_9TimestampEEEC2ERKSE_
FNDA:0,_ZNSt8functionIFvRKSt10shared_ptrIN5muduo3net13TcpConnectionEERKS0_IN7hare_mq11bindRequestEENS1_9TimestampEEEC2ERKSE_
FN:386,_ZNSt8functionIFvRKSt10shared_ptrIN5muduo3net13TcpConnectionEERKS0_IN7hare_mq18deleteQueueRequestEENS1_9TimestampEEEC2ERKSE_
FNDA:0,_ZNSt8functionIFvRKSt10shared_ptrIN5muduo3net13TcpConnectionEERKS0_IN7hare_mq18deleteQueueRequestEENS1_9TimestampEEEC2ERKSE_
FN:386,_ZNSt8functionIFvRKSt10shared_ptrIN5muduo3net13TcpConnectionEERKS0_IN7hare_mq19declareQueueRequestEENS1_9TimestampEEEC2ERKSE_
FNDA:0,_ZNSt8functionIFvRKSt10shared_ptrIN5muduo3net13TcpConnectionEERKS0_IN7hare_mq19declareQueueRequestEENS1_9TimestampEEEC2ERKSE_
FN:386,_ZNSt8functionIFvRKSt10shared_ptrIN5muduo3net13TcpConnectionEERKS0_IN7hare_mq18openChannelRequestEENS1_9TimestampEEEC2ERKSE_
FNDA:0,_ZNSt8functionIFvRKSt10shared_ptrIN5muduo3net13TcpConnectionEERKS0_IN7hare_mq18openChannelRequestEENS1_9TimestampEEEC2ERKSE_
FN:386,_ZNSt8functionIFvRKSt10shared_ptrIN5muduo3net13TcpConnectionEERKS0_IN7hare_mq22declareExchangeRequestEENS1_9TimestampEEEC2ERKSE_
FNDA:0,_ZNSt8functionIFvRKSt10shared_ptrIN5muduo3net13TcpConnectionEERKS0_IN7hare_mq22declareExchangeRequestEENS1_9TimestampEEEC2ERKSE_
FN:435,_ZNSt8functionIFvRKSt10shared_ptrIN5muduo3net13TcpConnectionEERKS0_IN7hare_mq11bindRequestEENS1_9TimestampEEEC2ISt5_BindIFMNS7_12BrokerServerEFvS6_SB_SC_EPSH_St12_PlaceholderILi1EESL_ILi2EESL_ILi3EEEEvEEOT_
FNDA:0,_ZNSt8functionIFvRKSt10shared_ptrIN5muduo3net13TcpConnectionEERKS0_IN7hare_mq11bindRequestEENS1_9TimestampEEEC2ISt5_BindIFMNS7_12BrokerServerEFvS6_SB_SC_EPSH_St12_PlaceholderILi1EESL_ILi2EESL_ILi3EEEEvEEOT_
FN:435,_ZNSt8functionIFvRKSt10shared_ptrIN5muduo3net13TcpConnectionEERKS0_IN7hare_mq13unbindRequestEENS1_9TimestampEEEC2ISt5_BindIFMNS7_12BrokerServerEFvS6_SB_SC_EPSH_St12_PlaceholderILi1EESL_ILi2EESL_ILi3EEEEvEEOT_
FNDA:0,_ZNSt8functionIFvRKSt10shared_ptrIN5muduo3net13TcpConnectionEERKS0_IN7hare_mq13unbindRequestEENS1_9TimestampEEEC2ISt5_BindIFMNS7_12BrokerServerEFvS6_SB_SC_EPSH_St12_PlaceholderILi1EESL_ILi2EESL_ILi3EEEEvEEOT_
FN:435,_ZNSt8functionIFvRKSt10shared_ptrIN5muduo3net13TcpConnectionEERKS0_IN7hare_mq19basicPublishRequestEENS1_9TimestampEEEC2ISt5_BindIFMNS7_12BrokerServerEFvS6_SB_SC_EPSH_St12_PlaceholderILi1EESL_ILi2EESL_ILi3EEEEvEEOT_
FNDA:0,_ZNSt8functionIFvRKSt10shared_ptrIN5muduo3net13TcpConnectionEERKS0_IN7hare_mq19basicPublishRequestEENS1_9TimestampEEEC2ISt5_BindIFMNS7_12BrokerServerEFvS6_SB_SC_EPSH_St12_PlaceholderILi1EESL_ILi2EESL_ILi3EEEEvEEOT_
FN:435,_ZNSt8functionIFvRKSt10shared_ptrIN5muduo3net13TcpConnectionEERKS0_IN7hare_mq15basicAckRequestEENS1_9TimestampEEEC2ISt5_BindIFMNS7_12BrokerServerEFvS6_SB_SC_EPSH_St12_PlaceholderILi1EESL_ILi2EESL_ILi3EEEEvEEOT_
FNDA:0,_ZNSt8functionIFvRKSt10shared_ptrIN5muduo3net13TcpConnectionEERKS0_IN7hare_mq15basicAckRequestEENS1_9TimestampEEEC2ISt5_BindIFMNS7_12BrokerServerEFvS6_SB_SC_EPSH_St12_PlaceholderILi1EESL_ILi2EESL_ILi3EEEEvEEOT_
FN:435,_ZNSt8functionIFvRKSt10shared_ptrIN5muduo3net13TcpConnectionEERKS0_IN7hare_mq19basicConsumeRequestEENS1_9TimestampEEEC2ISt5_BindIFMNS7_12BrokerServerEFvS6_SB_SC_EPSH_St12_PlaceholderILi1EESL_ILi2EESL_ILi3EEEEvEEOT_
FNDA:0,_ZNSt8functionIFvRKSt10shared_ptrIN5muduo3net13TcpConnectionEERKS0_IN7hare_mq19basicConsumeRequestEENS1_9TimestampEEEC2ISt5_BindIFMNS7_12BrokerServerEFvS6_SB_SC_EPSH_St12_PlaceholderILi1EESL_ILi2EESL_ILi3EEEEvEEOT_
FN:435,_ZNSt8functionIFvRKSt10shared_ptrIN5muduo3net13TcpConnectionEERKS0_IN7hare_mq18basicCancelRequestEENS1_9TimestampEEEC2ISt5_BindIFMNS7_12BrokerServerEFvS6_SB_SC_EPSH_St12_PlaceholderILi1EESL_ILi2EESL_ILi3EEEEvEEOT_
FNDA:0,_ZNSt8functionIFvRKSt10shared_ptrIN5muduo3net13TcpConnectionEERKS0_IN7hare_mq18basicCancelRequestEENS1_9TimestampEEEC2ISt5_BindIFMNS7_12BrokerServerEFvS6_SB_SC_EPSH_St12_PlaceholderILi1EESL_ILi2EESL_ILi3EEEEvEEOT_
FN:435,_ZNSt8functionIFvRKSt10shared_ptrIN5muduo3net13TcpConnectionEERKS0_IN7hare_mq17basicQueryRequestEENS1_9TimestampEEEC2ISt5_BindIFMNS7_12BrokerServerEFvS6_SB_SC_EPSH_St12_PlaceholderILi1EESL_ILi2EESL_ILi3EEEEvEEOT_
FNDA:0,_ZNSt8functionIFvRKSt10shared_ptrIN5muduo3net13TcpConnectionEERKS0_IN7hare_mq17basicQueryRequestEENS1_9TimestampEEEC2ISt5_BindIFMNS7_12BrokerServerEFvS6_SB_SC_EPSH_St12_PlaceholderILi1EESL_ILi2EESL_ILi3EEEEvEEOT_
FN:435,_ZNSt8functionIFvRKSt10shared_ptrIN5muduo3net13TcpConnectionEEPNS2_6BufferENS1_9TimestampEEEC2ISt5_BindIFM13ProtobufCodecFvS6_S8_S9_ES0_ISE_ESt12_PlaceholderILi1EESI_ILi2EESI_ILi3EEEEvEEOT_
FNDA:0,_ZNSt8functionIFvRKSt10shared_ptrIN5muduo3net13TcpConnectionEEPNS2_6BufferENS1_9TimestampEEEC2ISt5_BindIFM13ProtobufCodecFvS6_S8_S9_ES0_ISE_ESt12_PlaceholderILi1EESI_ILi2EESI_ILi3EEEEvEEOT_
FN:435,_ZNSt8functionIFvRKSt10shared_ptrIN5muduo3net13TcpConnectionEEEEC2ISt5_BindIFMN7hare_mq12BrokerServerEFvS6_EPSC_St12_PlaceholderILi1EEEEvEEOT_
FNDA:0,_ZNSt8functionIFvRKSt10shared_ptrIN5muduo3net13TcpConnectionEEEEC2ISt5_BindIFMN7hare_mq12BrokerServerEFvS6_EPSC_St12_PlaceholderILi1EEEEvEEOT_
FN:435,_ZNSt8functionIFvRKSt10shared_ptrIN5muduo3net13TcpConnectionEERKS0_IN7hare_mq18deleteQueueRequestEENS1_9TimestampEEEC2ISt5_BindIFMNS7_12BrokerServerEFvS6_SB_SC_EPSH_St12_PlaceholderILi1EESL_ILi2EESL_ILi3EEEEvEEOT_
FNDA:0,_ZNSt8functionIFvRKSt10shared_ptrIN5muduo3net13TcpConnectionEERKS0_IN7hare_mq18deleteQueueRequestEENS1_9TimestampEEEC2ISt5_BindIFMNS7_12BrokerServerEFvS6_SB_SC_EPSH_St12_PlaceholderILi1EESL_ILi2EESL_ILi3EEEEvEEOT_
FN:435,_ZNSt8functionIFvRKSt10shared_ptrIN5muduo3net13TcpConnectionEERKS0_IN7hare_mq19declareQueueRequestEENS1_9TimestampEEEC2ISt5_BindIFMNS7_12BrokerServerEFvS6_SB_SC_EPSH_St12_PlaceholderILi1EESL_ILi2EESL_ILi3EEEEvEEOT_
FNDA:0,_ZNSt8functionIFvRKSt10shared_ptrIN5muduo3net13TcpConnectionEERKS0_IN7hare_mq19declareQueueRequestEENS1_9TimestampEEEC2ISt5_BindIFMNS7_12BrokerServerEFvS6_SB_SC_EPSH_St12_PlaceholderILi1EESL_ILi2EESL_ILi3EEEEvEEOT_
FN:435,_ZNSt8functionIFvRKSt10shared_ptrIN5muduo3net13TcpConnectionEERKS0_IN7hare_mq21deleteExchangeRequestEENS1_9TimestampEEEC2ISt5_BindIFMNS7_12BrokerServerEFvS6_SB_SC_EPSH_St12_PlaceholderILi1EESL_ILi2EESL_ILi3EEEEvEEOT_
FNDA:0,_ZNSt8functionIFvRKSt10shared_ptrIN5muduo3net13TcpConnectionEERKS0_IN7hare_mq21deleteExchangeRequestEENS1_9TimestampEEEC2ISt5_BindIFMNS7_12BrokerServerEFvS6_SB_SC_EPSH_St12_PlaceholderILi1EESL_ILi2EESL_ILi3EEEEvEEOT_
FN:435,_ZNSt8functionIFvRKSt10shared_ptrIN5muduo3net13TcpConnectionEERKS0_IN7hare_mq22declareExchangeRequestEENS1_9TimestampEEEC2ISt5_BindIFMNS7_12BrokerServerEFvS6_SB_SC_EPSH_St12_PlaceholderILi1EESL_ILi2EESL_ILi3EEEEvEEOT_
FNDA:0,_ZNSt8functionIFvRKSt10shared_ptrIN5muduo3net13TcpConnectionEERKS0_IN7hare_mq22declareExchangeRequestEENS1_9TimestampEEEC2ISt5_BindIFMNS7_12BrokerServerEFvS6_SB_SC_EPSH_St12_PlaceholderILi1EESL_ILi2EESL_ILi3EEEEvEEOT_
FN:435,_ZNSt8functionIFvRKSt10shared_ptrIN5muduo3net13TcpConnectionEERKS0_IN6google8protobuf7MessageEENS1_9TimestampEEEC2ISt5_BindIFMN7hare_mq12BrokerServerEFvS6_SC_SD_EPSJ_St12_PlaceholderILi1EESN_ILi2EESN_ILi3EEEEvEEOT_
FNDA:0,_ZNSt8functionIFvRKSt10shared_ptrIN5muduo3net13TcpConnectionEERKS0_IN6google8protobuf7MessageEENS1_9TimestampEEEC2ISt5_BindIFMN7hare_mq12BrokerServerEFvS6_SC_SD_EPSJ_St12_PlaceholderILi1EESN_ILi2EESN_ILi3EEEEvEEOT_
FN:435,_ZNSt8functionIFvRKSt10shared_ptrIN5muduo3net13TcpConnectionEERKS0_IN7hare_mq19closeChannelRequestEENS1_9TimestampEEEC2ISt5_BindIFMNS7_12BrokerServerEFvS6_SB_SC_EPSH_St12_PlaceholderILi1EESL_ILi2EESL_ILi3EEEEvEEOT_
FNDA:0,_ZNSt8functionIFvRKSt10shared_ptrIN5muduo3net13TcpConnectionEERKS0_IN7hare_mq19closeChannelRequestEENS1_9TimestampEEEC2ISt5_BindIFMNS7_12BrokerServerEFvS6_SB_SC_EPSH_St12_PlaceholderILi1EESL_ILi2EESL_ILi3EEEEvEEOT_
FN:435,_ZNSt8functionIFvRKSt10shared_ptrIN5muduo3net13TcpConnectionEERKS0_IN7hare_mq18openChannelRequestEENS1_9TimestampEEEC2ISt5_BindIFMNS7_12BrokerServerEFvS6_SB_SC_EPSH_St12_PlaceholderILi1EESL_ILi2EESL_ILi3EEEEvEEOT_
FNDA:0,_ZNSt8functionIFvRKSt10shared_ptrIN5muduo3net13TcpConnectionEERKS0_IN7hare_mq18openChannelRequestEENS1_9TimestampEEEC2ISt5_BindIFMNS7_12BrokerServerEFvS6_SB_SC_EPSH_St12_PlaceholderILi1EESL_ILi2EESL_ILi3EEEEvEEOT_
FN:435,_ZNSt8functionIFvRKSt10shared_ptrIN5muduo3net13TcpConnectionEERKS0_IN6google8protobuf7MessageEENS1_9TimestampEEEC2ISt5_BindIFM18ProtobufDispatcherKFvS6_SC_SD_EPSI_St12_PlaceholderILi1EESM_ILi2EESM_ILi3EEEEvEEOT_
FNDA:0,_ZNSt8functionIFvRKSt10shared_ptrIN5muduo3net13TcpConnectionEERKS0_IN6google8protobuf7MessageEENS1_9TimestampEEEC2ISt5_BindIFM18ProtobufDispatcherKFvS6_SC_SD_EPSI_St12_PlaceholderILi1EESM_ILi2EESM_ILi3EEEEvEEOT_
FN:469,_ZNSt8functionIFvRKSt10shared_ptrIN5muduo3net13TcpConnectionEEPNS2_6BufferENS1_9TimestampEEEaSERKSB_
FNDA:0,_ZNSt8functionIFvRKSt10shared_ptrIN5muduo3net13TcpConnectionEEPNS2_6BufferENS1_9TimestampEEEaSERKSB_
FN:469,_ZNSt8functionIFvRKSt10shared_ptrIN5muduo3net13TcpConnectionEEEEaSERKS8_
FNDA:0,_ZNSt8functionIFvRKSt10shared_ptrIN5muduo3net13TcpConnectionEEEEaSERKS8_
FN:586,_ZNKSt8functionIFvRKSt10shared_ptrIN5muduo3net13TcpConnectionEERKS0_IN6google8protobuf7MessageEENS1_9TimestampEEEclES6_SC_SD_
FNDA:0,_ZNKSt8functionIFvRKSt10shared_ptrIN5muduo3net13TcpConnectionEERKS0_IN6google8protobuf7MessageEENS1_9TimestampEEEclES6_SC_SD_
FN:586,_ZNKSt8functionIFvRKSt10shared_ptrIN5muduo3net13TcpConnectionEERKS0_IN7hare_mq22declareExchangeRequestEENS1_9TimestampEEEclES6_SB_SC_
FNDA:0,_ZNKSt8functionIFvRKSt10shared_ptrIN5muduo3net13TcpConnectionEERKS0_IN7hare_mq22declareExchangeRequestEENS1_9TimestampEEEclES6_SB_SC_
FN:586,_ZNKSt8functionIFvRKSt10shared_ptrIN5muduo3net13TcpConnectionEERKS0_IN7hare_mq19closeChannelRequestEENS1_9TimestampEEEclES6_SB_SC_
FNDA:0,_ZNKSt8functionIFvRKSt10shared_ptrIN5muduo3net13TcpConnectionEERKS0_IN7hare_mq19closeChannelRequestEENS1_9TimestampEEEclES6_SB_SC_
FN:586,_ZNKSt8functionIFvRKSt10shared_ptrIN5muduo3net13TcpConnectionEERKS0_IN7hare_mq21deleteExchangeRequestEENS1_9TimestampEEEclES6_SB_SC_
FNDA:0,_ZNKSt8functionIFvRKSt10shared_ptrIN5muduo3net13TcpConnectionEERKS0_IN7hare_mq21deleteExchangeRequestEENS1_9TimestampEEEclES6_SB_SC_
FN:586,_ZNKSt8functionIFvRKSt10shared_ptrIN5muduo3net13TcpConnectionEERKS0_IN7hare_mq19declareQueueRequestEENS1_9TimestampEEEclES6_SB_SC_
FNDA:0,_ZNKSt8functionIFvRKSt10shared_ptrIN5muduo3net13TcpConnectionEERKS0_IN7hare_mq19declareQueueRequestEENS1_9TimestampEEEclES6_SB_SC_
FN:586,_ZNKSt8functionIFvRKSt10shared_ptrIN5muduo3net13TcpConnectionEERKS0_IN7hare_mq18deleteQueueRequestEENS1_9TimestampEEEclES6_SB_SC_
FNDA:0,_ZNKSt8functionIFvRKSt10shared_ptrIN5muduo3net13TcpConnectionEERKS0_IN7hare_mq18deleteQueueRequestEENS1_9TimestampEEEclES6_SB_SC_
FN:586,_ZNKSt8functionIFvRKSt10shared_ptrIN5muduo3net13TcpConnectionEERKS0_IN7hare_mq11bindRequestEENS1_9TimestampEEEclES6_SB_SC_
FNDA:0,_ZNKSt8functionIFvRKSt10shared_ptrIN5muduo3net13TcpConnectionEERKS0_IN7hare_mq11bindRequestEENS1_9TimestampEEEclES6_SB_SC_
FN:586,_ZNKSt8functionIFvRKSt10shared_ptrIN5muduo3net13TcpConnectionEERKS0_IN7hare_mq13unbindRequestEENS1_9TimestampEEEclES6_SB_SC_
FNDA:0,_ZNKSt8functionIFvRKSt10shared_ptrIN5muduo3net13TcpConnectionEERKS0_IN7hare_mq13unbindRequestEENS1_9TimestampEEEclES6_SB_SC_
FN:586,_ZNKSt8functionIFvRKSt10shared_ptrIN5muduo3net13TcpConnectionEERKS0_IN7hare_mq19basicPublishRequestEENS1_9TimestampEEEclES6_SB_SC_
FNDA:0,_ZNKSt8functionIFvRKSt10shared_ptrIN5muduo3net13TcpConnectionEERKS0_IN7hare_mq19basicPublishRequestEENS1_9TimestampEEEclES6_SB_SC_
FN:586,_ZNKSt8functionIFvRKSt10shared_ptrIN5muduo3net13TcpConnectionEERKS0_IN7hare_mq15basicAckRequestEENS1_9TimestampEEEclES6_SB_SC_
FNDA:0,_ZNKSt8functionIFvRKSt10shared_ptrIN5muduo3net13TcpConnectionEERKS0_IN7hare_mq15basicAckRequestEENS1_9TimestampEEEclES6_SB_SC_
FN:586,_ZNKSt8functionIFvRKSt10shared_ptrIN5muduo3net13TcpConnectionEERKS0_IN7hare_mq19basicConsumeRequestEENS1_9TimestampEEEclES6_SB_SC_
FNDA:0,_ZNKSt8functionIFvRKSt10shared_ptrIN5muduo3net13TcpConnectionEERKS0_IN7hare_mq19basicConsumeRequestEENS1_9TimestampEEEclES6_SB_SC_
FN:586,_ZNKSt8functionIFvRKSt10shared_ptrIN5muduo3net13TcpConnectionEERKS0_IN7hare_mq18basicCancelRequestEENS1_9TimestampEEEclES6_SB_SC_
FNDA:0,_ZNKSt8functionIFvRKSt10shared_ptrIN5muduo3net13TcpConnectionEERKS0_IN7hare_mq18basicCancelRequestEENS1_9TimestampEEEclES6_SB_SC_
FN:586,_ZNKSt8functionIFvRKSt10shared_ptrIN5muduo3net13TcpConnectionEERKS0_IN7hare_mq17basicQueryRequestEENS1_9TimestampEEEclES6_SB_SC_
FNDA:0,_ZNKSt8functionIFvRKSt10shared_ptrIN5muduo3net13TcpConnectionEERKS0_IN7hare_mq17basicQueryRequestEENS1_9TimestampEEEclES6_SB_SC_
FN:586,_ZNKSt8functionIFvRKSt10shared_ptrIN5muduo3net13TcpConnectionEERKS0_IN7hare_mq18openChannelRequestEENS1_9TimestampEEEclES6_SB_SC_
FNDA:0,_ZNKSt8functionIFvRKSt10shared_ptrIN5muduo3net13TcpConnectionEERKS0_IN7hare_mq18openChannelRequestEENS1_9TimestampEEEclES6_SB_SC_
DA:85,0
DA:86,0
DA:91,0
DA:95,0
DA:96,0
DA:134,0
DA:138,0
DA:142,0
DA:150,0
DA:152,0
DA:158,0
DA:160,0
DA:161,0
DA:162,0
DA:158,0
DA:160,0
DA:161,0
DA:162,0
DA:158,0
DA:160,0
DA:161,0
DA:162,0
DA:158,0
DA:160,0
DA:161,0
DA:162,0
DA:158,0
DA:160,0
DA:161,0
DA:162,0
DA:158,0
DA:160,0
DA:161,0
DA:162,0
DA:158,0
DA:160,0
DA:161,0
DA:162,0
DA:158,0
DA:160,0
DA:161,0
DA:162,0
DA:158,0
DA:160,0
DA:161,0
DA:162,0
DA:158,0
DA:160,0
DA:161,0
DA:162,0
DA:158,0
DA:160,0
DA:161,0
DA:162,0
DA:158,0
DA:160,0
DA:161,0
DA:162,0
DA:158,0
DA:160,0
DA:161,0
DA:162,0
DA:158,0
DA:160,0
DA:161,0
DA:162,0
DA:158,0
DA:160,0
DA:161,0
DA:162,0
DA:158,0
DA:160,0
DA:161,0
DA:162,0
DA:158,0
DA:160,0
DA:161,0
DA:162,0
DA:158,0
DA:160,0
DA:161,0
DA:162,0
DA:158,0
DA:160,0
DA:161,0
DA:162,0
DA:158,0
DA:160,0
DA:161,0
DA:162,0
DA:158,0
DA:160,0
DA:161,0
DA:162,0
DA:158,0
DA:160,0
DA:161,0
DA:162,0
DA:158,0
DA:160,0
DA:161,0
DA:162,0
DA:158,0
DA:160,0
DA:161,0
DA:162,0
DA:158,0
DA:160,0
DA:161,0
DA:162,0
DA:158,0
DA:160,0
DA:161,0
DA:162,0
DA:158,0
DA:160,0
DA:161,0
DA:162,0
DA:158,0
DA:160,0
DA:161,0
DA:162,0
DA:158,0
DA:160,0
DA:161,0
DA:162,0
DA:158,0
DA:160,0
DA:161,0
DA:162,0
DA:158,0
DA:160,0
DA:161,0
DA:162,0
DA:158,0
DA:160,0
DA:161,0
DA:162,0
DA:158,0
DA:160,0
DA:161,0
DA:162,0
DA:158,0
DA:160,0
DA:161,0
DA:162,0
DA:166,0
DA:168,0
DA:173,0
DA:175,0
DA:176,0
DA:180,0
DA:183,0
DA:185,0
DA:187,0
DA:191,0
DA:193,0
DA:194,0
DA:195,0
DA:197,0
DA:198,0
DA:199,0
DA:202,0
DA:203,0
DA:204,0
DA:206,0
DA:180,0
DA:183,0
DA:185,0
DA:187,0
DA:191,0
DA:193,0
DA:194,0
DA:195,0
DA:197,0
DA:198,0
DA:199,0
DA:202,0
DA:203,0
DA:204,0
DA:206,0
DA:180,0
DA:183,0
DA:185,0
DA:187,0
DA:191,0
DA:193,0
DA:194,0
DA:195,0
DA:197,0
DA:198,0
DA:199,0
DA:202,0
DA:203,0
DA:204,0
DA:206,0
DA:180,0
DA:183,0
DA:185,0
DA:187,0
DA:191,0
DA:193,0
DA:194,0
DA:195,0
DA:197,0
DA:198,0
DA:199,0
DA:202,0
DA:203,0
DA:204,0
DA:206,0
DA:180,0
DA:183,0
DA:185,0
DA:187,0
DA:191,0
DA:193,0
DA:194,0
DA:195,0
DA:197,0
DA:198,0
DA:199,0
DA:202,0
DA:203,0
DA:204,0
DA:206,0
DA:180,0
DA:183,0
DA:185,0
DA:187,0
DA:191,0
DA:193,0
DA:194,0
DA:195,0
DA:197,0
DA:198,0
DA:199,0
DA:202,0
DA:203,0
DA:204,0
DA:206,0
DA:180,0
DA:183,0
DA:185,0
DA:187,0
DA:191,0
DA:193,0
DA:194,0
DA:195,0
DA:197,0
DA:198,0
DA:199,0
DA:202,0
DA:203,0
DA:204,0
DA:206,0
DA:180,0
DA:183,0
DA:185,0
DA:187,0
DA:191,0
DA:193,0
DA:194,0
DA:195,0
DA:197,0
DA:198,0
DA:199,0
DA:202,0
DA:203,0
DA:204,0
DA:206,0
DA:180,0
DA:183,0
DA:185,0
DA:187,0
DA:191,0
DA:193,0
DA:194,0
DA:195,0
DA:197,0
DA:198,0
DA:199,0
DA:202,0
DA:203,0
DA:204,0
DA:206,0
DA:180,0
DA:183,0
DA:185,0
DA:187,0
DA:191,0
DA:193,0
DA:194,0
DA:195,0
DA:197,0
DA:198,0
DA:199,0
DA:202,0
DA:203,0
DA:204,0
DA:206,0
DA:180,0
DA:183,0
DA:185,0
DA:187,0
DA:191,0
DA:193,0
DA:194,0
DA:195,0
DA:197,0
DA:198,0
DA:199,0
DA:202,0
DA:203,0
DA:204,0
DA:206,0
DA:180,0
DA:183,0
DA:185,0
DA:187,0
DA:191,0
DA:193,0
DA:194,0
DA:195,0
DA:197,0
DA:198,0
DA:199,0
DA:202,0
DA:203,0
DA:204,0
DA:206,0
DA:180,0
DA:183,0
DA:185,0
DA:187,0
DA:191,0
DA:193,0
DA:194,0
DA:195,0
DA:197,0
DA:198,0
DA:199,0
DA:202,0
DA:203,0
DA:204,0
DA:206,0
DA:180,0
DA:183,0
DA:185,0
DA:187,0
DA:191,0
DA:193,0
DA:194,0
DA:195,0
DA:197,0
DA:198,0
DA:199,0
DA:202,0
DA:203,0
DA:204,0
DA:206,0
DA:180,0
DA:183,0
DA:185,0
DA:187,0
DA:191,0
DA:193,0
DA:194,0
DA:195,0
DA:197,0
DA:198,0
DA:199,0
DA:202,0
DA:203,0
DA:204,0
DA:206,0
DA:180,0
DA:183,0
DA:185,0
DA:187,0
DA:191,0
DA:193,0
DA:194,0
DA:195,0
DA:197,0
DA:198,0
DA:199,0
DA:202,0
DA:203,0
DA:204,0
DA:206,0
DA:180,0
DA:183,0
DA:185,0
DA:187,0
DA:191,0
DA:193,0
DA:194,0
DA:195,0
DA:197,0
DA:198,0
DA:199,0
DA:202,0
DA:203,0
DA:204,0
DA:206,0
DA:180,0
DA:183,0
DA:185,0
DA:187,0
DA:191,0
DA:193,0
DA:194,0
DA:195,0
DA:197,0
DA:198,0
DA:199,0
DA:202,0
DA:203,0
DA:204,0
DA:206,0
DA:211,0
DA:215,0
DA:216,0
DA:225,0
DA:235,0
DA:239,0
DA:241,0
DA:243,0
DA:244,0
DA:245,0
DA:247,0
DA:267,0
DA:270,0
DA:273,0
DA:274,0
DA:275,0
DA:277,0
DA:278,0
DA:279,0
DA:281,0
DA:282,0
DA:284,0
DA:267,0
DA:270,0
DA:273,0
DA:274,0
DA:275,0
DA:277,0
DA:278,0
DA:279,0
DA:281,0
DA:282,0
DA:284,0
DA:267,0
DA:270,0
DA:273,0
DA:274,0
DA:275,0
DA:277,0
DA:278,0
DA:279,0
DA:281,0
DA:282,0
DA:284,0
DA:267,0
DA:270,0
DA:273,0
DA:274,0
DA:275,0
DA:277,0
DA:278,0
DA:279,0
DA:281,0
DA:282,0
DA:284,0
DA:267,0
DA:270,0
DA:273,0
DA:274,0
DA:275,0
DA:277,0
DA:278,0
DA:279,0
DA:281,0
DA:282,0
DA:284,0
DA:267,0
DA:270,0
DA:273,0
DA:274,0
DA:275,0
DA:277,0
DA:278,0
DA:279,0
DA:281,0
DA:282,0
DA:284,0
DA:267,0
DA:270,0
DA:273,0
DA:274,0
DA:275,0
DA:277,0
DA:278,0
DA:279,0
DA:281,0
DA:282,0
DA:284,0
DA:267,0
DA:270,0
DA:273,0
DA:274,0
DA:275,0
DA:277,0
DA:278,0
DA:279,0
DA:281,0
DA:282,0
DA:284,0
DA:267,0
DA:270,0
DA:273,0
DA:274,0
DA:275,0
DA:277,0
DA:278,0
DA:279,0
DA:281,0
DA:282,0
DA:284,0
DA:267,0
DA:270,0
DA:273,0
DA:274,0
DA:275,0
DA:277,0
DA:278,0
DA:279,0
DA:281,0
DA:282,0
DA:284,0
DA:267,0
DA:270,0
DA:273,0
DA:274,0
DA:275,0
DA:277,0
DA:278,0
DA:279,0
DA:281,0
DA:282,0
DA:284,0
DA:267,0
DA:270,0
DA:273,0
DA:274,0
DA:275,0
DA:277,0
DA:278,0
DA:279,0
DA:281,0
DA:282,0
DA:284,0
DA:267,0
DA:270,0
DA:273,0
DA:274,0
DA:275,0
DA:277,0
DA:278,0
DA:279,0
DA:281,0
DA:282,0
DA:284,0
DA:267,0
DA:270,0
DA:273,0
DA:274,0
DA:275,0
DA:277,0
DA:278,0
DA:279,0
DA:281,0
DA:282,0
DA:284,0
DA:267,0
DA:270,0
DA:273,0
DA:274,0
DA:275,0
DA:277,0
DA:278,0
DA:279,0
DA:281,0
DA:282,0
DA:284,0
DA:267,0
DA:270,0
DA:273,0
DA:274,0
DA:275,0
DA:277,0
DA:278,0
DA:279,0
DA:281,0
DA:282,0
DA:284,0
DA:267,0
DA:270,0
DA:273,0
DA:274,0
DA:275,0
DA:277,0
DA:278,0
DA:279,0
DA:281,0
DA:282,0
DA:284,0
DA:267,0
DA:270,0
DA:273,0
DA:274,0
DA:275,0
DA:277,0
DA:278,0
DA:279,0
DA:281,0
DA:282,0
DA:284,0
DA:288,0
DA:290,0
DA:291,0
DA:288,0
DA:290,0
DA:291,0
DA:288,0
DA:290,0
DA:291,0
DA:288,0
DA:290,0
DA:291,0
DA:288,0
DA:290,0
DA:291,0
DA:288,0
DA:290,0
DA:291,0
DA:288,0
DA:290,0
DA:291,0
DA:288,0
DA:290,0
DA:291,0
DA:288,0
DA:290,0
DA:291,0
DA:288,0
DA:290,0
DA:291,0
DA:288,0
DA:290,0
DA:291,0
DA:288,0
DA:290,0
DA:291,0
DA:288,0
DA:290,0
DA:291,0
DA:288,0
DA:290,0
DA:291,0
DA:288,0
DA:290,0
DA:291,0
DA:288,0
DA:290,0
DA:291,0
DA:288,0
DA:290,0
DA:291,0
DA:288,0
DA:290,0
DA:291,0
DA:334,0
DA:386,0
DA:387,0
DA:389,0
DA:391,0
DA:392,0
DA:393,0
DA:395,0
DA:386,0
DA:387,0
DA:389,0
DA:391,0
DA:392,0
DA:393,0
DA:395,0
DA:386,0
DA:387,0
DA:389,0
DA:391,0
DA:392,0
DA:393,0
DA:395,0
DA:386,0
DA:387,0
DA:389,0
DA:391,0
DA:392,0
DA:393,0
DA:395,0
DA:386,0
DA:387,0
DA:389,0
DA:391,0
DA:392,0
DA:393,0
DA:395,0
DA:386,0
DA:387,0
DA:389,0
DA:391,0
DA:392,0
DA:393,0
DA:395,0
DA:386,0
DA:387,0
DA:389,0
DA:391,0
DA:392,0
DA:393,0
DA:395,0
DA:386,0
DA:387,0
DA:389,0
DA:391,0
DA:392,0
DA:393,0
DA:395,0
DA:386,0
DA:387,0
DA:389,0
DA:391,0
DA:392,0
DA:393,0
DA:395,0
DA:386,0
DA:387,0
DA:389,0
DA:391,0
DA:392,0
DA:393,0
DA:395,0
DA:386,0
DA:387,0
DA:389,0
DA:391,0
DA:392,0
DA:393,0
DA:395,0
DA:386,0
DA:387,0
DA:389,0
DA:391,0
DA:392,0
DA:393,0
DA:395,0
DA:386,0
DA:387,0
DA:389,0
DA:391,0
DA:392,0
DA:393,0
DA:395,0
DA:386,0
DA:387,0
DA:389,0
DA:391,0
DA:392,0
DA:393,0
DA:395,0
DA:386,0
DA:387,0
DA:389,0
DA:391,0
DA:392,0
DA:393,0
DA:395,0
DA:386,0
DA:387,0
DA:389,0
DA:391,0
DA:392,0
DA:393,0
DA:395,0
DA:435,0
DA:437,0
DA:447,0
DA:449,0
DA:451,0
DA:452,0
DA:454,0
DA:435,0
DA:437,0
DA:447,0
DA:449,0
DA:451,0
DA:452,0
DA:454,0
DA:435,0
DA:437,0
DA:447,0
DA:449,0
DA:451,0
DA:452,0
DA:454,0
DA:435,0
DA:437,0
DA:447,0
DA:449,0
DA:451,0
DA:452,0
DA:454,0
DA:435,0
DA:437,0
DA:447,0
DA:449,0
DA:451,0
DA:452,0
DA:454,0
DA:435,0
DA:437,0
DA:447,0
DA:449,0
DA:451,0
DA:452,0
DA:454,0
DA:435,0
DA:437,0
DA:447,0
DA:449,0
DA:451,0
DA:452,0
DA:454,0
DA:435,0
DA:437,0
DA:447,0
DA:449,0
DA:451,0
DA:452,0
DA:454,0
DA:435,0
DA:437,0
DA:447,0
DA:449,0
DA:451,0
DA:452,0
DA:454,0
DA:435,0
DA:437,0
DA:447,0
DA:449,0
DA:451,0
DA:452,0
DA:454,0
DA:435,0
DA:437,0
DA:447,0
DA:449,0
DA:451,0
DA:452,0
DA:454,0
DA:435,0
DA:437,0
DA:447,0
DA:449,0
DA:451,0
DA:452,0
DA:454,0
DA:435,0
DA:437,0
DA:447,0
DA:449,0
DA:451,0
DA:452,0
DA:454,0
DA:435,0
DA:437,0
DA:447,0
DA:449,0
DA:451,0
DA:452,0
DA:454,0
DA:435,0
DA:437,0
DA:447,0
DA:449,0
DA:451,0
DA:452,0
DA:454,0
DA:435,0
DA:437,0
DA:447,0
DA:449,0
DA:451,0
DA:452,0
DA:454,0
DA:435,0
DA:437,0
DA:447,0
DA:449,0
DA:451,0
DA:452,0
DA:454,0
DA:435,0
DA:437,0
DA:447,0
DA:449,0
DA:451,0
DA:452,0
DA:469,0
DA:471,0
DA:472,0
DA:469,0
DA:471,0
DA:472,0
DA:555,0
DA:557,0
DA:558,0
DA:559,0
DA:572,0
DA:573,0
DA:586,0
DA:588,0
DA:589,0
DA:590,0
DA:586,0
DA:588,0
DA:589,0
DA:590,0
DA:586,0
DA:588,0
DA:589,0
DA:590,0
DA:586,0
DA:588,0
DA:589,0
DA:590,0
DA:586,0
DA:588,0
DA:589,0
DA:590,0
DA:586,0
DA:588,0
DA:589,0
DA:590,0
DA:586,0
DA:588,0
DA:589,0
DA:590,0
DA:586,0
DA:588,0
DA:589,0
DA:590,0
DA:586,0
DA:588,0
DA:589,0
DA:590,0
DA:586,0
DA:588,0
DA:589,0
DA:590,0
DA:586,0
DA:588,0
DA:589,0
DA:590,0
DA:586,0
DA:588,0
DA:589,0
DA:590,0
DA:586,0
DA:588,0
DA:589,0
DA:590,0
DA:586,0
DA:588,0
DA:589,0
DA:590,0
end_of_record
SF:/usr/include/c++/11/bits/move.h
DA:49,0
DA:77,0
DA:104,0
DA:196,0
DA:204,0
DA:205,0
DA:206,0
end_of_record
SF:/usr/include/c++/11/bits/hashtable_policy.h
FN:1892,_ZNSt8__detail16_Hashtable_allocISaINS_10_Hash_nodeISt4pairIKNSt7__cxx1112basic_stringIcSt11char_traitsIcESaIcEEESt10shared_ptrIN7hare_mq7bindingEEELb1EEEEE18_M_deallocate_nodeEPSF_
FNDA:0,_ZNSt8__detail16_Hashtable_allocISaINS_10_Hash_nodeISt4pairIKNSt7__cxx1112basic_stringIcSt11char_traitsIcESaIcEEESt10shared_ptrIN7hare_mq7bindingEEELb1EEEEE18_M_deallocate_nodeEPSF_
FN:1892,_ZNSt8__detail16_Hashtable_allocISaINS_10_Hash_nodeISt4pairIKNSt7__cxx1112basic_stringIcSt11char_traitsIcESaIcEEESt10shared_ptrIN7hare_mq13queue_messageEEELb1EEEEE18_M_deallocate_nodeEPSF_
FNDA:0,_ZNSt8__detail16_Hashtable_allocISaINS_10_Hash_nodeISt4pairIKNSt7__cxx1112basic_stringIcSt11char_traitsIcESaIcEEESt10shared_ptrIN7hare_mq13queue_messageEEELb1EEEEE18_M_deallocate_nodeEPSF_
FN:1892,_ZNSt8__detail16_Hashtable_allocISaINS_10_Hash_nodeISt4pairIKNSt7__cxx1112basic_stringIcSt11char_traitsIcESaIcEEESt13unordered_mapIS8_St10shared_ptrIN7hare_mq7bindingEESt4hashIS8_ESt8equal_toIS8_ESaIS2_IS9_SE_EEEELb1EEEEE18_M_deallocate_nodeEPSN_
FNDA:0,_ZNSt8__detail16_Hashtable_allocISaINS_10_Hash_nodeISt4pairIKNSt7__cxx1112basic_stringIcSt11char_traitsIcESaIcEEESt13unordered_mapIS8_St10shared_ptrIN7hare_mq7bindingEESt4hashIS8_ESt8equal_toIS8_ESaIS2_IS9_SE_EEEELb1EEEEE18_M_deallocate_nodeEPSN_
FN:1892,_ZNSt8__detail16_Hashtable_allocISaINS_10_Hash_nodeISt4pairIKNSt7__cxx1112basic_stringIcSt11char_traitsIcESaIcEEESt10shared_ptrIN7hare_mq8exchangeEEELb1EEEEE18_M_deallocate_nodeEPSF_
FNDA:0,_ZNSt8__detail16_Hashtable_allocISaINS_10_Hash_nodeISt4pairIKNSt7__cxx1112basic_stringIcSt11char_traitsIcESaIcEEESt10shared_ptrIN7hare_mq8exchangeEEELb1EEEEE18_M_deallocate_nodeEPSF_
FN:1892,_ZNSt8__detail16_Hashtable_allocISaINS_10_Hash_nodeISt4pairIKSt10shared_ptrIN5muduo3net13TcpConnectionEES3_IN7hare_mq10connectionEEELb0EEEEE18_M_deallocate_nodeEPSD_
FNDA:0,_ZNSt8__detail16_Hashtable_allocISaINS_10_Hash_nodeISt4pairIKSt10shared_ptrIN5muduo3net13TcpConnectionEES3_IN7hare_mq10connectionEEELb0EEEEE18_M_deallocate_nodeEPSD_
FN:1892,_ZNSt8__detail16_Hashtable_allocISaINS_10_Hash_nodeISt4pairIKNSt7__cxx1112basic_stringIcSt11char_traitsIcESaIcEEESt10shared_ptrIN7hare_mq14queue_consumerEEELb1EEEEE18_M_deallocate_nodeEPSF_
FNDA:0,_ZNSt8__detail16_Hashtable_allocISaINS_10_Hash_nodeISt4pairIKNSt7__cxx1112basic_stringIcSt11char_traitsIcESaIcEEESt10shared_ptrIN7hare_mq14queue_consumerEEELb1EEEEE18_M_deallocate_nodeEPSF_
FN:1892,_ZNSt8__detail16_Hashtable_allocISaINS_10_Hash_nodeISt4pairIKNSt7__cxx1112basic_stringIcSt11char_traitsIcESaIcEEESt10shared_ptrIN7hare_mq9msg_queueEEELb1EEEEE18_M_deallocate_nodeEPSF_
FNDA:0,_ZNSt8__detail16_Hashtable_allocISaINS_10_Hash_nodeISt4pairIKNSt7__cxx1112basic_stringIcSt11char_traitsIcESaIcEEESt10shared_ptrIN7hare_mq9msg_queueEEELb1EEEEE18_M_deallocate_nodeEPSF_
DA:219,0
DA:237,0
DA:238,0
DA:246,0
DA:282,0
DA:283,0
DA:295,0
DA:299,0
DA:300,0
DA:303,0
DA:338,0
DA:339,0
DA:342,0
DA:343,0
DA:350,0
DA:352,0
DA:353,0
DA:446,0
DA:447,0
DA:1124,0
DA:1127,0
DA:1210,0
DA:1604,0
DA:1802,0
DA:1823,0
DA:1892,0
DA:1894,0
DA:1895,0
DA:1896,0
DA:1892,0
DA:1894,0
DA:1895,0
DA:1896,0
DA:1892,0
DA:1894,0
DA:1895,0
DA:1896,0
DA:1892,0
DA:1894,0
DA:1895,0
DA:1896,0
DA:1892,0
DA:1894,0
DA:1895,0
DA:1896,0
DA:1892,0
DA:1894,0
DA:1895,0
DA:1896,0
DA:1892,0
DA:1894,0
DA:1895,0
DA:1896,0
DA:1900,0
DA:1903,0
DA:1904,0
DA:1905,0
DA:1910,0
DA:1912,0
DA:1914,0
DA:1915,0
DA:1916,0
DA:1935,0
DA:1940,0
DA:1941,0
DA:1942,0
DA:1943,0
end_of_record
SF:/usr/local/include/google/protobuf/message.h
DA:351,0
end_of_record
SF:/usr/include/c++/11/bits/char_traits.h
DA:356,0
DA:357,0
DA:393,0
DA:396,0
DA:399,0
DA:429,0
DA:431,0
DA:434,0
DA:437,0
end_of_record
SF:/usr/local/include/google/protobuf/arenastring.h
DA:182,0
DA:183,0
DA:203,0
DA:288,0
DA:290,0
end_of_record
SF:/usr/include/c++/11/bits/basic_string.tcc
FN:132,_ZNSt7__cxx1112basic_stringIcSt11char_traitsIcESaIcEE9_M_createERmm
FNDA:0,_ZNSt7__cxx1112basic_stringIcSt11char_traitsIcESaIcEE9_M_createERmm
FN:206,_ZNSt7__cxx1112basic_stringIcSt11char_traitsIcESaIcEE12_M_constructIPcEEvT_S7_St20forward_iterator_tag
FNDA:0,_ZNSt7__cxx1112basic_stringIcSt11char_traitsIcESaIcEE12_M_constructIPcEEvT_S7_St20forward_iterator_tag
FN:206,_ZNSt7__cxx1112basic_stringIcSt11char_traitsIcESaIcEE12_M_constructIPKcEEvT_S8_St20forward_iterator_tag
FNDA:0,_ZNSt7__cxx1112basic_stringIcSt11char_traitsIcESaIcEE12_M_constructIPKcEEvT_S8_St20forward_iterator_tag
FN:300,_ZNSt7__cxx1112basic_stringIcSt11char_traitsIcESaIcEE9_M_mutateEmmPKcm
FNDA:0,_ZNSt7__cxx1112basic_stringIcSt11char_traitsIcESaIcEE9_M_mutateEmmPKcm
FN:384,_ZNSt7__cxx1112basic_stringIcSt11char_traitsIcESaIcEE9_M_appendEPKcm
FNDA:0,_ZNSt7__cxx1112basic_stringIcSt11char_traitsIcESaIcEE9_M_appendEPKcm
DA:132,0
DA:137,0
DA:138,0
DA:143,0
DA:145,0
DA:147,0
DA:148,0
DA:153,0
DA:206,0
DA:211,0
DA:212,0
DA:215,0
DA:217,0
DA:219,0
DA:220,0
DA:225,0
DA:232,0
DA:233,0
DA:206,0
DA:211,0
DA:212,0
DA:215,0
DA:217,0
DA:219,0
DA:220,0
DA:225,0
DA:232,0
DA:233,0
DA:300,0
DA:304,0
DA:306,0
DA:307,0
DA:309,0
DA:310,0
DA:311,0
DA:312,0
DA:313,0
DA:314,0
DA:315,0
DA:317,0
DA:318,0
DA:319,0
DA:320,0
DA:384,0
DA:387,0
DA:389,0
DA:391,0
DA:392,0
DA:395,0
DA:397,0
DA:398,0
end_of_record
SF:/usr/include/c++/11/typeinfo
FN:120,_ZNKSt9type_infoeqERKS_
FNDA:0,_ZNKSt9type_infoeqERKS_
DA:120,0
DA:122,0
DA:123,0
DA:124,0
end_of_record
SF:/home/eric/2025MQ/MQproject/2025MQWorkSpace/src/tools/muduo/_install/include/muduo/net/Callbacks.h
FN:43,_ZN5muduo17down_pointer_castIN7hare_mq18openChannelRequestEN6google8protobuf7MessageEEESt10shared_ptrIT_ERKS6_IT0_E
FNDA:0,_ZN5muduo17down_pointer_castIN7hare_mq18openChannelRequestEN6google8protobuf7MessageEEESt10shared_ptrIT_ERKS6_IT0_E
FN:43,_ZN5muduo17down_pointer_castIN7hare_mq19closeChannelRequestEN6google8protobuf7MessageEEESt10shared_ptrIT_ERKS6_IT0_E
FNDA:0,_ZN5muduo17down_pointer_castIN7hare_mq19closeChannelRequestEN6google8protobuf7MessageEEESt10shared_ptrIT_ERKS6_IT0_E
FN:43,_ZN5muduo17down_pointer_castIN7hare_mq22declareExchangeRequestEN6google8protobuf7MessageEEESt10shared_ptrIT_ERKS6_IT0_E
FNDA:0,_ZN5muduo17down_pointer_castIN7hare_mq22declareExchangeRequestEN6google8protobuf7MessageEEESt10shared_ptrIT_ERKS6_IT0_E
FN:43,_ZN5muduo17down_pointer_castIN7hare_mq21deleteExchangeRequestEN6google8protobuf7MessageEEESt10shared_ptrIT_ERKS6_IT0_E
FNDA:0,_ZN5muduo17down_pointer_castIN7hare_mq21deleteExchangeRequestEN6google8protobuf7MessageEEESt10shared_ptrIT_ERKS6_IT0_E
FN:43,_ZN5muduo17down_pointer_castIN7hare_mq19declareQueueRequestEN6google8protobuf7MessageEEESt10shared_ptrIT_ERKS6_IT0_E
FNDA:0,_ZN5muduo17down_pointer_castIN7hare_mq19declareQueueRequestEN6google8protobuf7MessageEEESt10shared_ptrIT_ERKS6_IT0_E
FN:43,_ZN5muduo17down_pointer_castIN7hare_mq18deleteQueueRequestEN6google8protobuf7MessageEEESt10shared_ptrIT_ERKS6_IT0_E
FNDA:0,_ZN5muduo17down_pointer_castIN7hare_mq18deleteQueueRequestEN6google8protobuf7MessageEEESt10shared_ptrIT_ERKS6_IT0_E
FN:43,_ZN5muduo17down_pointer_castIN7hare_mq11bindRequestEN6google8protobuf7MessageEEESt10shared_ptrIT_ERKS6_IT0_E
FNDA:0,_ZN5muduo17down_pointer_castIN7hare_mq11bindRequestEN6google8protobuf7MessageEEESt10shared_ptrIT_ERKS6_IT0_E
FN:43,_ZN5muduo17down_pointer_castIN7hare_mq13unbindRequestEN6google8protobuf7MessageEEESt10shared_ptrIT_ERKS6_IT0_E
FNDA:0,_ZN5muduo17down_pointer_castIN7hare_mq13unbindRequestEN6google8protobuf7MessageEEESt10shared_ptrIT_ERKS6_IT0_E
FN:43,_ZN5muduo17down_pointer_castIN7hare_mq19basicPublishRequestEN6google8protobuf7MessageEEESt10shared_ptrIT_ERKS6_IT0_E
FNDA:0,_ZN5muduo17down_pointer_castIN7hare_mq19basicPublishRequestEN6google8protobuf7MessageEEESt10shared_ptrIT_ERKS6_IT0_E
FN:43,_ZN5muduo17down_pointer_castIN7hare_mq15basicAckRequestEN6google8protobuf7MessageEEESt10shared_ptrIT_ERKS6_IT0_E
FNDA:0,_ZN5muduo17down_pointer_castIN7hare_mq15basicAckRequestEN6google8protobuf7MessageEEESt10shared_ptrIT_ERKS6_IT0_E
FN:43,_ZN5muduo17down_pointer_castIN7hare_mq19basicConsumeRequestEN6google8protobuf7MessageEEESt10shared_ptrIT_ERKS6_IT0_E
FNDA:0,_ZN5muduo17down_pointer_castIN7hare_mq19basicConsumeRequestEN6google8protobuf7MessageEEESt10shared_ptrIT_ERKS6_IT0_E
FN:43,_ZN5muduo17down_pointer_castIN7hare_mq18basicCancelRequestEN6google8protobuf7MessageEEESt10shared_ptrIT_ERKS6_IT0_E
FNDA:0,_ZN5muduo17down_pointer_castIN7hare_mq18basicCancelRequestEN6google8protobuf7MessageEEESt10shared_ptrIT_ERKS6_IT0_E
FN:43,_ZN5muduo17down_pointer_castIN7hare_mq17basicQueryRequestEN6google8protobuf7MessageEEESt10shared_ptrIT_ERKS6_IT0_E
FNDA:0,_ZN5muduo17down_pointer_castIN7hare_mq17basicQueryRequestEN6google8protobuf7MessageEEESt10shared_ptrIT_ERKS6_IT0_E
DA:31,0
DA:43,0
DA:50,0
DA:52,0
DA:43,0
DA:50,0
DA:52,0
DA:43,0
DA:50,0
DA:52,0
DA:43,0
DA:50,0
DA:52,0
DA:43,0
DA:50,0
DA:52,0
DA:43,0
DA:50,0
DA:52,0
DA:43,0
DA:50,0
DA:52,0
DA:43,0
DA:50,0
DA:52,0
DA:43,0
DA:50,0
DA:52,0
DA:43,0
DA:50,0
DA:52,0
DA:43,0
DA:50,0
DA:52,0
DA:43,0
DA:50,0
DA:52,0
DA:43,0
DA:50,0
DA:52,0
end_of_record
TN:
SF:/home/eric/2025MQ/MQproject/2025MQWorkSpace/src/tools/muduo/_install/include/muduo/base/Logging.h
FN:36,_ZN5muduo6Logger10SourceFileC2ILi28EEERAT__Kc
FNDA:1,_ZN5muduo6Logger10SourceFileC2ILi28EEERAT__Kc
DA:36,1
DA:37,1
DA:38,1
DA:40,1
DA:41,1
DA:43,1
DA:44,1
DA:46,1
DA:69,1
end_of_record
SF:/usr/local/include/google/protobuf/message_lite.h
DA:425,2014
DA:426,2014
DA:441,6042
end_of_record
SF:/usr/include/c++/11/tuple
FN:1816,_ZNSt4pairIKNSt7__cxx1112basic_stringIcSt11char_traitsIcESaIcEEESt13unordered_mapIS5_St10shared_ptrIN7hare_mq7bindingEESt4hashIS5_ESt8equal_toIS5_ESaIS_IS6_SB_EEEEC2IJRS6_EJLm0EEJEJEEERSt5tupleIJDpT_EERSM_IJDpT1_EESt12_Index_tupleIJXspT0_EEESV_IJXspT2_EEE
FNDA:16,_ZNSt4pairIKNSt7__cxx1112basic_stringIcSt11char_traitsIcESaIcEEESt13unordered_mapIS5_St10shared_ptrIN7hare_mq7bindingEESt4hashIS5_ESt8equal_toIS5_ESaIS_IS6_SB_EEEEC2IJRS6_EJLm0EEJEJEEERSt5tupleIJDpT_EERSM_IJDpT1_EESt12_Index_tupleIJXspT0_EEESV_IJXspT2_EEE
DA:192,40
DA:193,40
DA:233,40
DA:424,40
DA:434,40
DA:435,40
DA:454,40
DA:456,40
DA:727,40
DA:729,40
DA:756,40
DA:1377,40
DA:1378,40
DA:1393,40
DA:1394,40
DA:1804,40
DA:1809,40
DA:1816,40
DA:1819,40
DA:1820,24
DA:1821,16
end_of_record
SF:/usr/include/c++/11/new
DA:174,1031
DA:175,1031
end_of_record
SF:/home/eric/2025MQ/MQproject/2025MQWorkSpace/src/tools/muduo/_install/include/muduo/base/LogStream.h
FN:39,_ZN5muduo6detail11FixedBufferILi4000EE6appendEPKcm
FNDA:3,_ZN5muduo6detail11FixedBufferILi4000EE6appendEPKcm
FN:120,_ZN5muduo9LogStreamlsEPKc
FNDA:2,_ZN5muduo9LogStreamlsEPKc
DA:39,3
DA:42,3
DA:44,3
DA:45,3
DA:47,3
DA:54,3
DA:68,3
DA:120,2
DA:122,2
DA:124,2
DA:128,0
DA:130,2
DA:138,1
DA:140,1
DA:141,1
end_of_record
SF:/usr/include/c++/11/bits/stl_construct.h
FN:94,_ZSt12construct_atISt4pairIKNSt7__cxx1112basic_stringIcSt11char_traitsIcESaIcEEESt13unordered_mapIS6_St10shared_ptrIN7hare_mq7bindingEESt4hashIS6_ESt8equal_toIS6_ESaIS0_IS7_SC_EEEEJRKSt21piecewise_construct_tSt5tupleIJRS7_EESO_IJEEEEDTgsnwcvPvLi0E_T_pispcl7declvalIT0_EEEEPST_DpOSU_
FNDA:16,_ZSt12construct_atISt4pairIKNSt7__cxx1112basic_stringIcSt11char_traitsIcESaIcEEESt13unordered_mapIS6_St10shared_ptrIN7hare_mq7bindingEESt4hashIS6_ESt8equal_toIS6_ESaIS0_IS7_SC_EEEEJRKSt21piecewise_construct_tSt5tupleIJRS7_EESO_IJEEEEDTgsnwcvPvLi0E_T_pispcl7declvalIT0_EEEEPST_DpOSU_
FN:160,_ZNSt12_Destroy_auxILb0EE9__destroyIPSt10shared_ptrIN7hare_mq7MessageEEEEvT_S7_
FNDA:39,_ZNSt12_Destroy_auxILb0EE9__destroyIPSt10shared_ptrIN7hare_mq7MessageEEEEvT_S7_
DA:80,17
DA:88,1032
DA:94,2078
DA:97,2055
DA:146,998
DA:149,998
DA:160,39
DA:162,1037
DA:163,1996
DA:164,39
DA:182,39
DA:196,38
end_of_record
SF:/usr/include/c++/11/bits/alloc_traits.h
DA:463,1153
DA:464,1090
DA:495,1081
DA:496,1081
DA:511,1007
DA:518,2071
DA:520,16
DA:531,1040
DA:537,9
DA:562,0
DA:563,0
DA:845,38
DA:848,38
DA:849,8
end_of_record
SF:/home/eric/2025MQ/MQproject/2025MQWorkSpace/src/server/virtual_host.cpp
FN:14,_ZN7hare_mq12virtual_host11generate_idB5cxx11Ev
FNDA:0,_ZN7hare_mq12virtual_host11generate_idB5cxx11Ev
FN:24,_ZN7hare_mq12virtual_hostC2ERKNSt7__cxx1112basic_stringIcSt11char_traitsIcESaIcEEES8_S8_
FNDA:9,_ZN7hare_mq12virtual_hostC2ERKNSt7__cxx1112basic_stringIcSt11char_traitsIcESaIcEEES8_S8_
FN:48,_ZN7hare_mq12virtual_host16declare_exchangeERKNSt7__cxx1112basic_stringIcSt11char_traitsIcESaIcEEENS_12ExchangeTypeEbbRKSt13unordered_mapIS6_S6_St4hashIS6_ESt8equal_toIS6_ESaISt4pairIS7_S6_EEE
FNDA:8,_ZN7hare_mq12virtual_host16declare_exchangeERKNSt7__cxx1112basic_stringIcSt11char_traitsIcESaIcEEENS_12ExchangeTypeEbbRKSt13unordered_mapIS6_S6_St4hashIS6_ESt8equal_toIS6_ESaISt4pairIS7_S6_EEE
FN:55,_ZN7hare_mq12virtual_host15delete_exchangeERKNSt7__cxx1112basic_stringIcSt11char_traitsIcESaIcEEE
FNDA:0,_ZN7hare_mq12virtual_host15delete_exchangeERKNSt7__cxx1112basic_stringIcSt11char_traitsIcESaIcEEE
FN:61,_ZN7hare_mq12virtual_host15select_exchangeERKNSt7__cxx1112basic_stringIcSt11char_traitsIcESaIcEEE
FNDA:0,_ZN7hare_mq12virtual_host15select_exchangeERKNSt7__cxx1112basic_stringIcSt11char_traitsIcESaIcEEE
FN:69,_ZN7hare_mq12virtual_host13declare_queueERKNSt7__cxx1112basic_stringIcSt11char_traitsIcESaIcEEEbbbRKSt13unordered_mapIS6_S6_St4hashIS6_ESt8equal_toIS6_ESaISt4pairIS7_S6_EEE
FNDA:8,_ZN7hare_mq12virtual_host13declare_queueERKNSt7__cxx1112basic_stringIcSt11char_traitsIcESaIcEEEbbbRKSt13unordered_mapIS6_S6_St4hashIS6_ESt8equal_toIS6_ESaISt4pairIS7_S6_EEE
FN:86,_ZN7hare_mq12virtual_host12delete_queueERKNSt7__cxx1112basic_stringIcSt11char_traitsIcESaIcEEE
FNDA:0,_ZN7hare_mq12virtual_host12delete_queueERKNSt7__cxx1112basic_stringIcSt11char_traitsIcESaIcEEE
FN:96,_ZN7hare_mq12virtual_host12exists_queueERKNSt7__cxx1112basic_stringIcSt11char_traitsIcESaIcEEE
FNDA:0,_ZN7hare_mq12virtual_host12exists_queueERKNSt7__cxx1112basic_stringIcSt11char_traitsIcESaIcEEE
FN:101,_ZN7hare_mq12virtual_host10all_queuesB5cxx11Ev
FNDA:1,_ZN7hare_mq12virtual_host10all_queuesB5cxx11Ev
FN:109,_ZN7hare_mq12virtual_host4bindERKNSt7__cxx1112basic_stringIcSt11char_traitsIcESaIcEEES8_S8_
FNDA:16,_ZN7hare_mq12virtual_host4bindERKNSt7__cxx1112basic_stringIcSt11char_traitsIcESaIcEEES8_S8_
FN:120,_ZN7hare_mq12virtual_host6unbindERKNSt7__cxx1112basic_stringIcSt11char_traitsIcESaIcEEES8_
FNDA:0,_ZN7hare_mq12virtual_host6unbindERKNSt7__cxx1112basic_stringIcSt11char_traitsIcESaIcEEES8_
FN:126,_ZN7hare_mq12virtual_host17exchange_bindingsERKNSt7__cxx1112basic_stringIcSt11char_traitsIcESaIcEEE
FNDA:0,_ZN7hare_mq12virtual_host17exchange_bindingsERKNSt7__cxx1112basic_stringIcSt11char_traitsIcESaIcEEE
FN:135,_ZN7hare_mq12virtual_host13basic_publishERKNSt7__cxx1112basic_stringIcSt11char_traitsIcESaIcEEEPNS_15BasicPropertiesES8_
FNDA:1009,_ZN7hare_mq12virtual_host13basic_publishERKNSt7__cxx1112basic_stringIcSt11char_traitsIcESaIcEEEPNS_15BasicPropertiesES8_
FN:166,_ZN7hare_mq12virtual_host10publish_exERKNSt7__cxx1112basic_stringIcSt11char_traitsIcESaIcEEES8_PNS_15BasicPropertiesES8_
FNDA:0,_ZN7hare_mq12virtual_host10publish_exERKNSt7__cxx1112basic_stringIcSt11char_traitsIcESaIcEEES8_PNS_15BasicPropertiesES8_
FN:201,_ZN7hare_mq12virtual_host13basic_consumeERKNSt7__cxx1112basic_stringIcSt11char_traitsIcESaIcEEE
FNDA:11,_ZN7hare_mq12virtual_host13basic_consumeERKNSt7__cxx1112basic_stringIcSt11char_traitsIcESaIcEEE
FN:215,_ZN7hare_mq12virtual_host9basic_ackERKNSt7__cxx1112basic_stringIcSt11char_traitsIcESaIcEEES8_
FNDA:3,_ZN7hare_mq12virtual_host9basic_ackERKNSt7__cxx1112basic_stringIcSt11char_traitsIcESaIcEEES8_
FN:225,_ZN7hare_mq12virtual_host11basic_queryB5cxx11Ev
FNDA:2,_ZN7hare_mq12virtual_host11basic_queryB5cxx11Ev
DA:14,0
DA:16,0
DA:17,0
DA:18,0
DA:24,9
DA:26,9
DA:27,9
DA:28,9
DA:29,9
DA:30,9
DA:33,9
DA:34,27
DA:38,9
DA:39,0
DA:40,0
DA:41,0
DA:42,0
DA:43,9
DA:48,8
DA:52,8
DA:55,0
DA:57,0
DA:58,0
DA:59,0
DA:61,0
DA:63,0
DA:69,8
DA:73,8
DA:76,8
DA:77,8
DA:78,8
DA:79,8
DA:80,8
DA:82,8
DA:83,8
DA:86,0
DA:88,0
DA:89,0
DA:91,0
DA:92,0
DA:94,0
DA:96,0
DA:98,0
DA:101,1
DA:103,1
DA:109,16
DA:112,16
DA:113,0
DA:115,16
DA:116,16
DA:117,16
DA:120,0
DA:122,0
DA:123,0
DA:124,0
DA:126,0
DA:128,0
DA:129,0
DA:135,1009
DA:140,1009
DA:141,1009
DA:143,1
DA:144,1
DA:150,1008
DA:151,1008
DA:152,0
DA:153,1008
DA:157,1007
DA:158,1007
DA:159,1007
DA:162,1007
DA:166,0
DA:171,0
DA:172,0
DA:174,0
DA:175,0
DA:179,0
DA:180,0
DA:181,0
DA:183,0
DA:184,0
DA:186,0
DA:187,0
DA:189,0
DA:190,0
DA:191,0
DA:193,0
DA:194,0
DA:195,0
DA:196,0
DA:197,0
DA:198,0
DA:201,11
DA:203,11
DA:204,11
DA:205,0
DA:206,0
DA:209,11
DA:210,11
DA:211,8
DA:212,11
DA:213,11
DA:215,3
DA:217,3
DA:218,3
DA:219,0
DA:220,0
DA:222,3
DA:225,2
DA:227,3
DA:228,2
DA:229,1
DA:230,1
DA:231,1
DA:232,1
DA:234,2
end_of_record
SF:/usr/include/c++/11/bits/shared_ptr_base.h
FN:140,_ZNSt16_Sp_counted_baseILN9__gnu_cxx12_Lock_policyE2EE10_M_destroyEv
FNDA:0,_ZNSt16_Sp_counted_baseILN9__gnu_cxx12_Lock_policyE2EE10_M_destroyEv
FN:147,_ZNSt16_Sp_counted_baseILN9__gnu_cxx12_Lock_policyE2EE15_M_add_ref_copyEv
FNDA:9,_ZNSt16_Sp_counted_baseILN9__gnu_cxx12_Lock_policyE2EE15_M_add_ref_copyEv
FN:161,_ZNSt16_Sp_counted_baseILN9__gnu_cxx12_Lock_policyE2EE10_M_releaseEv
FNDA:2015,_ZNSt16_Sp_counted_baseILN9__gnu_cxx12_Lock_policyE2EE10_M_releaseEv
FN:375,_ZNSt15_Sp_counted_ptrIDnLN9__gnu_cxx12_Lock_policyE2EE10_M_disposeEv
FNDA:0,_ZNSt15_Sp_counted_ptrIDnLN9__gnu_cxx12_Lock_policyE2EE10_M_disposeEv
FN:523,_ZNSt23_Sp_counted_ptr_inplaceIN7hare_mq7MessageESaIS1_ELN9__gnu_cxx12_Lock_policyE2EED0Ev
FNDA:0,_ZNSt23_Sp_counted_ptr_inplaceIN7hare_mq7MessageESaIS1_ELN9__gnu_cxx12_Lock_policyE2EED0Ev
FN:523,_ZNSt23_Sp_counted_ptr_inplaceIN7hare_mq7MessageESaIS1_ELN9__gnu_cxx12_Lock_policyE2EED2Ev
FNDA:0,_ZNSt23_Sp_counted_ptr_inplaceIN7hare_mq7MessageESaIS1_ELN9__gnu_cxx12_Lock_policyE2EED2Ev
FN:523,_ZNSt23_Sp_counted_ptr_inplaceIN7hare_mq7bindingESaIS1_ELN9__gnu_cxx12_Lock_policyE2EED2Ev
FNDA:0,_ZNSt23_Sp_counted_ptr_inplaceIN7hare_mq7bindingESaIS1_ELN9__gnu_cxx12_Lock_policyE2EED2Ev
FN:523,_ZNSt23_Sp_counted_ptr_inplaceIN7hare_mq13queue_messageESaIS1_ELN9__gnu_cxx12_Lock_policyE2EED0Ev
FNDA:0,_ZNSt23_Sp_counted_ptr_inplaceIN7hare_mq13queue_messageESaIS1_ELN9__gnu_cxx12_Lock_policyE2EED0Ev
FN:523,_ZNSt23_Sp_counted_ptr_inplaceIN7hare_mq13queue_messageESaIS1_ELN9__gnu_cxx12_Lock_policyE2EED2Ev
FNDA:0,_ZNSt23_Sp_counted_ptr_inplaceIN7hare_mq13queue_messageESaIS1_ELN9__gnu_cxx12_Lock_policyE2EED2Ev
FN:523,_ZNSt23_Sp_counted_ptr_inplaceIN7hare_mq7bindingESaIS1_ELN9__gnu_cxx12_Lock_policyE2EED0Ev
FNDA:0,_ZNSt23_Sp_counted_ptr_inplaceIN7hare_mq7bindingESaIS1_ELN9__gnu_cxx12_Lock_policyE2EED0Ev
FN:526,_ZNSt23_Sp_counted_ptr_inplaceIN7hare_mq7bindingESaIS1_ELN9__gnu_cxx12_Lock_policyE2EE10_M_disposeEv
FNDA:16,_ZNSt23_Sp_counted_ptr_inplaceIN7hare_mq7bindingESaIS1_ELN9__gnu_cxx12_Lock_policyE2EE10_M_disposeEv
FN:526,_ZNSt23_Sp_counted_ptr_inplaceIN7hare_mq13queue_messageESaIS1_ELN9__gnu_cxx12_Lock_policyE2EE10_M_disposeEv
FNDA:8,_ZNSt23_Sp_counted_ptr_inplaceIN7hare_mq13queue_messageESaIS1_ELN9__gnu_cxx12_Lock_policyE2EE10_M_disposeEv
FN:526,_ZNSt23_Sp_counted_ptr_inplaceIN7hare_mq7MessageESaIS1_ELN9__gnu_cxx12_Lock_policyE2EE10_M_disposeEv
FNDA:1007,_ZNSt23_Sp_counted_ptr_inplaceIN7hare_mq7MessageESaIS1_ELN9__gnu_cxx12_Lock_policyE2EE10_M_disposeEv
FN:533,_ZNSt23_Sp_counted_ptr_inplaceIN7hare_mq7bindingESaIS1_ELN9__gnu_cxx12_Lock_policyE2EE10_M_destroyEv
FNDA:16,_ZNSt23_Sp_counted_ptr_inplaceIN7hare_mq7bindingESaIS1_ELN9__gnu_cxx12_Lock_policyE2EE10_M_destroyEv
FN:533,_ZNSt23_Sp_counted_ptr_inplaceIN7hare_mq13queue_messageESaIS1_ELN9__gnu_cxx12_Lock_policyE2EE10_M_destroyEv
FNDA:8,_ZNSt23_Sp_counted_ptr_inplaceIN7hare_mq13queue_messageESaIS1_ELN9__gnu_cxx12_Lock_policyE2EE10_M_destroyEv
FN:533,_ZNSt23_Sp_counted_ptr_inplaceIN7hare_mq7MessageESaIS1_ELN9__gnu_cxx12_Lock_policyE2EE10_M_destroyEv
FNDA:1007,_ZNSt23_Sp_counted_ptr_inplaceIN7hare_mq7MessageESaIS1_ELN9__gnu_cxx12_Lock_policyE2EE10_M_destroyEv
FN:546,_ZNSt23_Sp_counted_ptr_inplaceIN7hare_mq7MessageESaIS1_ELN9__gnu_cxx12_Lock_policyE2EE14_M_get_deleterERKSt9type_info
FNDA:0,_ZNSt23_Sp_counted_ptr_inplaceIN7hare_mq7MessageESaIS1_ELN9__gnu_cxx12_Lock_policyE2EE14_M_get_deleterERKSt9type_info
FN:546,_ZNSt23_Sp_counted_ptr_inplaceIN7hare_mq7bindingESaIS1_ELN9__gnu_cxx12_Lock_policyE2EE14_M_get_deleterERKSt9type_info
FNDA:0,_ZNSt23_Sp_counted_ptr_inplaceIN7hare_mq7bindingESaIS1_ELN9__gnu_cxx12_Lock_policyE2EE14_M_get_deleterERKSt9type_info
FN:546,_ZNSt23_Sp_counted_ptr_inplaceIN7hare_mq13queue_messageESaIS1_ELN9__gnu_cxx12_Lock_policyE2EE14_M_get_deleterERKSt9type_info
FNDA:0,_ZNSt23_Sp_counted_ptr_inplaceIN7hare_mq13queue_messageESaIS1_ELN9__gnu_cxx12_Lock_policyE2EE14_M_get_deleterERKSt9type_info
FN:643,_ZNSt14__shared_countILN9__gnu_cxx12_Lock_policyE2EEC2IN7hare_mq7bindingESaIS5_EJRKNSt7__cxx1112basic_stringIcSt11char_traitsIcESaIcEEESE_SE_EEERPT_St20_Sp_alloc_shared_tagIT0_EDpOT1_
FNDA:16,_ZNSt14__shared_countILN9__gnu_cxx12_Lock_policyE2EEC2IN7hare_mq7bindingESaIS5_EJRKNSt7__cxx1112basic_stringIcSt11char_traitsIcESaIcEEESE_SE_EEERPT_St20_Sp_alloc_shared_tagIT0_EDpOT1_
FN:643,_ZNSt14__shared_countILN9__gnu_cxx12_Lock_policyE2EEC2IN7hare_mq13queue_messageESaIS5_EJRNSt7__cxx1112basic_stringIcSt11char_traitsIcESaIcEEERKSC_EEERPT_St20_Sp_alloc_shared_tagIT0_EDpOT1_
FNDA:8,_ZNSt14__shared_countILN9__gnu_cxx12_Lock_policyE2EEC2IN7hare_mq13queue_messageESaIS5_EJRNSt7__cxx1112basic_stringIcSt11char_traitsIcESaIcEEERKSC_EEERPT_St20_Sp_alloc_shared_tagIT0_EDpOT1_
FN:643,_ZNSt14__shared_countILN9__gnu_cxx12_Lock_policyE2EEC2IN7hare_mq7MessageESaIS5_EJEEERPT_St20_Sp_alloc_shared_tagIT0_EDpOT1_
FNDA:1007,_ZNSt14__shared_countILN9__gnu_cxx12_Lock_policyE2EEC2IN7hare_mq7MessageESaIS5_EJEEERPT_St20_Sp_alloc_shared_tagIT0_EDpOT1_
FN:1248,_ZNSt12__shared_ptrIN7hare_mq7MessageELN9__gnu_cxx12_Lock_policyE2EEaSEOS4_
FNDA:0,_ZNSt12__shared_ptrIN7hare_mq7MessageELN9__gnu_cxx12_Lock_policyE2EEaSEOS4_
FN:1248,_ZNSt12__shared_ptrIN7hare_mq7bindingELN9__gnu_cxx12_Lock_policyE2EEaSEOS4_
FNDA:16,_ZNSt12__shared_ptrIN7hare_mq7bindingELN9__gnu_cxx12_Lock_policyE2EEaSEOS4_
FN:1248,_ZNSt12__shared_ptrIN7hare_mq13queue_messageELN9__gnu_cxx12_Lock_policyE2EEaSEOS4_
FNDA:8,_ZNSt12__shared_ptrIN7hare_mq13queue_messageELN9__gnu_cxx12_Lock_policyE2EEaSEOS4_
DA:126,1031
DA:127,1031
DA:130,0
DA:140,0
DA:141,0
DA:147,9
DA:148,9
DA:161,2015
DA:165,4030
DA:168,999
DA:180,1998
DA:184,999
DA:187,2015
DA:375,0
DA:383,1031
DA:385,1031
DA:479,0
DA:481,0
DA:482,0
DA:497,1031
DA:502,1031
DA:514,1031
DA:515,1031
DA:519,2038
DA:521,1031
DA:523,0
DA:523,0
DA:523,0
DA:523,0
DA:523,0
DA:523,0
DA:523,1031
DA:526,1007
DA:528,1007
DA:529,1007
DA:526,8
DA:528,8
DA:529,8
DA:526,16
DA:528,16
DA:529,16
DA:533,1007
DA:535,1007
DA:536,1007
DA:537,1007
DA:538,1007
DA:533,8
DA:535,8
DA:536,8
DA:537,8
DA:538,8
DA:533,16
DA:535,16
DA:536,16
DA:537,16
DA:538,16
DA:546,0
DA:548,0
DA:554,0
DA:556,0
DA:561,0
DA:546,0
DA:548,0
DA:554,0
DA:556,0
DA:561,0
DA:546,0
DA:548,0
DA:554,0
DA:556,0
DA:561,0
DA:565,2062
DA:587,1069
DA:643,16
DA:647,16
DA:648,16
DA:649,16
DA:650,32
DA:651,16
DA:652,16
DA:653,16
DA:654,16
DA:655,16
DA:643,8
DA:647,8
DA:648,8
DA:649,8
DA:650,16
DA:651,8
DA:652,8
DA:653,8
DA:654,8
DA:655,8
DA:643,1007
DA:647,1007
DA:648,1007
DA:649,1007
DA:650,2014
DA:652,1007
DA:653,1007
DA:654,1007
DA:655,1007
DA:702,3081
DA:704,3070
DA:705,2015
DA:708,9
DA:709,9
DA:711,9
DA:712,9
DA:731,1042
DA:733,1042
DA:734,1031
DA:735,1018
DA:984,3047
DA:987,4055
DA:992,3047
DA:993,1008
DA:1092,27
DA:1093,27
DA:1152,9
DA:1154,5072
DA:1161,1042
DA:1162,1042
DA:1164,11
DA:1165,976
DA:1248,0
DA:1250,0
DA:1251,0
DA:1248,16
DA:1250,32
DA:1251,16
DA:1248,8
DA:1250,16
DA:1251,8
DA:1295,3047
DA:1296,3047
DA:1299,1019
DA:1300,1019
DA:1314,24
DA:1316,24
DA:1317,24
DA:1341,1031
DA:1342,1031
DA:1343,1031
DA:1386,1031
end_of_record
SF:/home/eric/2025MQ/MQproject/2025MQWorkSpace/src/server/route.hpp
FN:17,_ZN7hare_mq6router11match_routeENS_12ExchangeTypeERKNSt7__cxx1112basic_stringIcSt11char_traitsIcESaIcEEES9_
FNDA:0,_ZN7hare_mq6router11match_routeENS_12ExchangeTypeERKNSt7__cxx1112basic_stringIcSt11char_traitsIcESaIcEEES9_
FN:32,_ZZN7hare_mq6router11match_routeENS_12ExchangeTypeERKNSt7__cxx1112basic_stringIcSt11char_traitsIcESaIcEEES9_ENKUlS9_S9_E_clES9_S9_
FNDA:0,_ZZN7hare_mq6router11match_routeENS_12ExchangeTypeERKNSt7__cxx1112basic_stringIcSt11char_traitsIcESaIcEEES9_ENKUlS9_S9_E_clES9_S9_
DA:17,0
DA:21,0
DA:22,0
DA:24,0
DA:30,0
DA:32,0
DA:34,0
DA:35,0
DA:36,0
DA:37,0
DA:39,0
DA:41,0
DA:42,0
DA:44,0
DA:46,0
DA:47,0
DA:50,0
DA:52,0
DA:55,0
DA:56,0
DA:57,0
DA:58,0
DA:60,0
DA:63,0
DA:64,0
end_of_record
SF:/home/eric/2025MQ/MQproject/2025MQWorkSpace/src/common/queue.hpp
DA:43,0
end_of_record
SF:/usr/include/c++/11/iostream
end_of_record
SF:/usr/include/c++/11/ext/aligned_buffer.h
DA:102,2070
DA:104,8
DA:110,1022
DA:114,2070
DA:115,4196
end_of_record
SF:/usr/include/c++/11/bits/unordered_map.h
DA:102,36
DA:141,18
DA:181,0
DA:325,11
DA:326,11
DA:347,1034
DA:348,1034
DA:762,0
DA:763,0
DA:868,1023
DA:869,1023
DA:901,8
DA:902,16
DA:979,40
DA:980,40
end_of_record
SF:/usr/include/c++/11/bits/stl_algo.h
FN:813,_ZSt11__remove_ifISt15_Deque_iteratorISt10shared_ptrIN7hare_mq7MessageEERS4_PS4_EN9__gnu_cxx5__ops10_Iter_predIZNS2_13queue_message6removeERKNSt7__cxx1112basic_stringIcSt11char_traitsIcESaIcEEEEUlRKS4_E_EEET_SO_SO_T0_
FNDA:0,_ZSt11__remove_ifISt15_Deque_iteratorISt10shared_ptrIN7hare_mq7MessageEERS4_PS4_EN9__gnu_cxx5__ops10_Iter_predIZNS2_13queue_message6removeERKNSt7__cxx1112basic_stringIcSt11char_traitsIcESaIcEEEEUlRKS4_E_EEET_SO_SO_T0_
FN:884,_ZSt9remove_ifISt15_Deque_iteratorISt10shared_ptrIN7hare_mq7MessageEERS4_PS4_EZNS2_13queue_message6removeERKNSt7__cxx1112basic_stringIcSt11char_traitsIcESaIcEEEEUlRKS4_E_ET_SK_SK_T0_
FNDA:0,_ZSt9remove_ifISt15_Deque_iteratorISt10shared_ptrIN7hare_mq7MessageEERS4_PS4_EZNS2_13queue_message6removeERKNSt7__cxx1112basic_stringIcSt11char_traitsIcESaIcEEEEUlRKS4_E_ET_SK_SK_T0_
DA:813,0
DA:816,0
DA:817,0
DA:818,0
DA:819,0
DA:820,0
DA:821,0
DA:822,0
DA:824,0
DA:825,0
DA:827,0
DA:884,0
DA:895,0
end_of_record
SF:/usr/include/c++/11/bits/atomic_base.h
DA:384,0
DA:385,0
end_of_record
SF:/home/eric/2025MQ/MQproject/2025MQWorkSpace/src/tools/muduo/_install/include/muduo/base/Types.h
DA:80,3
DA:82,3
end_of_record
SF:/home/eric/2025MQ/MQproject/2025MQWorkSpace/src/common/msg.pb.h
FN:816,_ZN7hare_mq14MessagePayload28_internal_mutable_propertiesEv
FNDA:1007,_ZN7hare_mq14MessagePayload28_internal_mutable_propertiesEv
FN:1010,_ZN7hare_mq7Message25_internal_mutable_payloadEv
FNDA:2014,_ZN7hare_mq7Message25_internal_mutable_payloadEv
DA:96,0
DA:106,1007
DA:107,1007
DA:108,1007
DA:455,1007
DA:639,9
DA:641,9
DA:655,9
DA:656,9
DA:709,1008
DA:711,2016
DA:715,0
DA:717,0
DA:719,0
DA:725,1008
DA:726,1008
DA:772,9
DA:773,9
DA:774,9
DA:777,9
DA:779,9
DA:816,1007
DA:818,1007
DA:819,2014
DA:820,1007
DA:822,1007
DA:824,1007
DA:825,1007
DA:827,1007
DA:853,1
DA:855,1
DA:859,1007
DA:861,2014
DA:863,1007
DA:869,1
DA:870,1
DA:966,10
DA:967,10
DA:968,10
DA:971,10
DA:973,10
DA:1010,2014
DA:1012,2014
DA:1013,2014
DA:1014,1007
DA:1016,2014
DA:1018,2014
DA:1019,2014
DA:1021,2014
end_of_record
SF:/usr/include/c++/11/ext/new_allocator.h
FN:103,_ZN9__gnu_cxx13new_allocatorIcE8allocateEmPKv
FNDA:0,_ZN9__gnu_cxx13new_allocatorIcE8allocateEmPKv
FN:103,_ZN9__gnu_cxx13new_allocatorIPSt10shared_ptrIN7hare_mq7MessageEEE8allocateEmPKv
FNDA:11,_ZN9__gnu_cxx13new_allocatorIPSt10shared_ptrIN7hare_mq7MessageEEE8allocateEmPKv
FN:103,_ZN9__gnu_cxx13new_allocatorIPNSt8__detail15_Hash_node_baseEE8allocateEmPKv
FNDA:32,_ZN9__gnu_cxx13new_allocatorIPNSt8__detail15_Hash_node_baseEE8allocateEmPKv
FN:103,_ZN9__gnu_cxx13new_allocatorISt23_Sp_counted_ptr_inplaceIN7hare_mq7bindingESaIS3_ELNS_12_Lock_policyE2EEE8allocateEmPKv
FNDA:16,_ZN9__gnu_cxx13new_allocatorISt23_Sp_counted_ptr_inplaceIN7hare_mq7bindingESaIS3_ELNS_12_Lock_policyE2EEE8allocateEmPKv
FN:103,_ZN9__gnu_cxx13new_allocatorISt10shared_ptrIN7hare_mq7MessageEEE8allocateEmPKv
FNDA:39,_ZN9__gnu_cxx13new_allocatorISt10shared_ptrIN7hare_mq7MessageEEE8allocateEmPKv
FN:103,_ZN9__gnu_cxx13new_allocatorINSt8__detail10_Hash_nodeISt4pairIKNSt7__cxx1112basic_stringIcSt11char_traitsIcESaIcEEESt10shared_ptrIN7hare_mq13queue_messageEEELb1EEEE8allocateEmPKv
FNDA:8,_ZN9__gnu_cxx13new_allocatorINSt8__detail10_Hash_nodeISt4pairIKNSt7__cxx1112basic_stringIcSt11char_traitsIcESaIcEEESt10shared_ptrIN7hare_mq13queue_messageEEELb1EEEE8allocateEmPKv
FN:103,_ZN9__gnu_cxx13new_allocatorISt23_Sp_counted_ptr_inplaceIN7hare_mq13queue_messageESaIS3_ELNS_12_Lock_policyE2EEE8allocateEmPKv
FNDA:8,_ZN9__gnu_cxx13new_allocatorISt23_Sp_counted_ptr_inplaceIN7hare_mq13queue_messageESaIS3_ELNS_12_Lock_policyE2EEE8allocateEmPKv
FN:103,_ZN9__gnu_cxx13new_allocatorINSt8__detail10_Hash_nodeISt4pairIKNSt7__cxx1112basic_stringIcSt11char_traitsIcESaIcEEESt13unordered_mapIS9_St10shared_ptrIN7hare_mq7bindingEESt4hashIS9_ESt8equal_toIS9_ESaIS3_ISA_SF_EEEELb1EEEE8allocateEmPKv
FNDA:16,_ZN9__gnu_cxx13new_allocatorINSt8__detail10_Hash_nodeISt4pairIKNSt7__cxx1112basic_stringIcSt11char_traitsIcESaIcEEESt13unordered_mapIS9_St10shared_ptrIN7hare_mq7bindingEESt4hashIS9_ESt8equal_toIS9_ESaIS3_ISA_SF_EEEELb1EEEE8allocateEmPKv
FN:103,_ZN9__gnu_cxx13new_allocatorISt23_Sp_counted_ptr_inplaceIN7hare_mq7MessageESaIS3_ELNS_12_Lock_policyE2EEE8allocateEmPKv
FNDA:1007,_ZN9__gnu_cxx13new_allocatorISt23_Sp_counted_ptr_inplaceIN7hare_mq7MessageESaIS3_ELNS_12_Lock_policyE2EEE8allocateEmPKv
FN:103,_ZN9__gnu_cxx13new_allocatorINSt8__detail10_Hash_nodeISt4pairIKNSt7__cxx1112basic_stringIcSt11char_traitsIcESaIcEEESt10shared_ptrIN7hare_mq7bindingEEELb1EEEE8allocateEmPKv
FNDA:16,_ZN9__gnu_cxx13new_allocatorINSt8__detail10_Hash_nodeISt4pairIKNSt7__cxx1112basic_stringIcSt11char_traitsIcESaIcEEESt10shared_ptrIN7hare_mq7bindingEEELb1EEEE8allocateEmPKv
FN:132,_ZN9__gnu_cxx13new_allocatorIPNSt8__detail15_Hash_node_baseEE10deallocateEPS3_m
FNDA:0,_ZN9__gnu_cxx13new_allocatorIPNSt8__detail15_Hash_node_baseEE10deallocateEPS3_m
FN:132,_ZN9__gnu_cxx13new_allocatorIcE10deallocateEPcm
FNDA:0,_ZN9__gnu_cxx13new_allocatorIcE10deallocateEPcm
FN:132,_ZN9__gnu_cxx13new_allocatorIPSt10shared_ptrIN7hare_mq7MessageEEE10deallocateEPS5_m
FNDA:11,_ZN9__gnu_cxx13new_allocatorIPSt10shared_ptrIN7hare_mq7MessageEEE10deallocateEPS5_m
FN:132,_ZN9__gnu_cxx13new_allocatorISt10shared_ptrIN7hare_mq7MessageEEE10deallocateEPS4_m
FNDA:39,_ZN9__gnu_cxx13new_allocatorISt10shared_ptrIN7hare_mq7MessageEEE10deallocateEPS4_m
FN:132,_ZN9__gnu_cxx13new_allocatorISt23_Sp_counted_ptr_inplaceIN7hare_mq7bindingESaIS3_ELNS_12_Lock_policyE2EEE10deallocateEPS6_m
FNDA:16,_ZN9__gnu_cxx13new_allocatorISt23_Sp_counted_ptr_inplaceIN7hare_mq7bindingESaIS3_ELNS_12_Lock_policyE2EEE10deallocateEPS6_m
FN:132,_ZN9__gnu_cxx13new_allocatorINSt8__detail10_Hash_nodeISt4pairIKNSt7__cxx1112basic_stringIcSt11char_traitsIcESaIcEEESt10shared_ptrIN7hare_mq13queue_messageEEELb1EEEE10deallocateEPSG_m
FNDA:0,_ZN9__gnu_cxx13new_allocatorINSt8__detail10_Hash_nodeISt4pairIKNSt7__cxx1112basic_stringIcSt11char_traitsIcESaIcEEESt10shared_ptrIN7hare_mq13queue_messageEEELb1EEEE10deallocateEPSG_m
FN:132,_ZN9__gnu_cxx13new_allocatorINSt8__detail10_Hash_nodeISt4pairIKNSt7__cxx1112basic_stringIcSt11char_traitsIcESaIcEEESt13unordered_mapIS9_St10shared_ptrIN7hare_mq7bindingEESt4hashIS9_ESt8equal_toIS9_ESaIS3_ISA_SF_EEEELb1EEEE10deallocateEPSO_m
FNDA:0,_ZN9__gnu_cxx13new_allocatorINSt8__detail10_Hash_nodeISt4pairIKNSt7__cxx1112basic_stringIcSt11char_traitsIcESaIcEEESt13unordered_mapIS9_St10shared_ptrIN7hare_mq7bindingEESt4hashIS9_ESt8equal_toIS9_ESaIS3_ISA_SF_EEEELb1EEEE10deallocateEPSO_m
FN:132,_ZN9__gnu_cxx13new_allocatorINSt8__detail10_Hash_nodeISt4pairIKNSt7__cxx1112basic_stringIcSt11char_traitsIcESaIcEEESt10shared_ptrIN7hare_mq7bindingEEELb1EEEE10deallocateEPSG_m
FNDA:0,_ZN9__gnu_cxx13new_allocatorINSt8__detail10_Hash_nodeISt4pairIKNSt7__cxx1112basic_stringIcSt11char_traitsIcESaIcEEESt10shared_ptrIN7hare_mq7bindingEEELb1EEEE10deallocateEPSG_m
FN:132,_ZN9__gnu_cxx13new_allocatorINSt8__detail10_Hash_nodeISt4pairIKNSt7__cxx1112basic_stringIcSt11char_traitsIcESaIcEEESt10shared_ptrIN7hare_mq8exchangeEEELb1EEEE10deallocateEPSG_m
FNDA:0,_ZN9__gnu_cxx13new_allocatorINSt8__detail10_Hash_nodeISt4pairIKNSt7__cxx1112basic_stringIcSt11char_traitsIcESaIcEEESt10shared_ptrIN7hare_mq8exchangeEEELb1EEEE10deallocateEPSG_m
FN:132,_ZN9__gnu_cxx13new_allocatorINSt8__detail10_Hash_nodeISt4pairIKNSt7__cxx1112basic_stringIcSt11char_traitsIcESaIcEEESt10shared_ptrIN7hare_mq9msg_queueEEELb1EEEE10deallocateEPSG_m
FNDA:0,_ZN9__gnu_cxx13new_allocatorINSt8__detail10_Hash_nodeISt4pairIKNSt7__cxx1112basic_stringIcSt11char_traitsIcESaIcEEESt10shared_ptrIN7hare_mq9msg_queueEEELb1EEEE10deallocateEPSG_m
FN:132,_ZN9__gnu_cxx13new_allocatorINSt8__detail10_Hash_nodeISt4pairIKNSt7__cxx1112basic_stringIcSt11char_traitsIcESaIcEEES9_ELb1EEEE10deallocateEPSC_m
FNDA:0,_ZN9__gnu_cxx13new_allocatorINSt8__detail10_Hash_nodeISt4pairIKNSt7__cxx1112basic_stringIcSt11char_traitsIcESaIcEEES9_ELb1EEEE10deallocateEPSC_m
FN:132,_ZN9__gnu_cxx13new_allocatorISt23_Sp_counted_ptr_inplaceIN7hare_mq7MessageESaIS3_ELNS_12_Lock_policyE2EEE10deallocateEPS6_m
FNDA:1007,_ZN9__gnu_cxx13new_allocatorISt23_Sp_counted_ptr_inplaceIN7hare_mq7MessageESaIS3_ELNS_12_Lock_policyE2EEE10deallocateEPS6_m
FN:132,_ZN9__gnu_cxx13new_allocatorISt23_Sp_counted_ptr_inplaceIN7hare_mq13queue_messageESaIS3_ELNS_12_Lock_policyE2EEE10deallocateEPS6_m
FNDA:8,_ZN9__gnu_cxx13new_allocatorISt23_Sp_counted_ptr_inplaceIN7hare_mq13queue_messageESaIS3_ELNS_12_Lock_policyE2EEE10deallocateEPS6_m
DA:79,3182
DA:82,1058
DA:103,16
DA:111,16
DA:115,0
DA:116,0
DA:117,0
DA:127,16
DA:103,8
DA:111,8
DA:115,0
DA:116,0
DA:117,0
DA:127,8
DA:103,1007
DA:111,1007
DA:115,0
DA:116,0
DA:117,0
DA:127,1007
DA:103,16
DA:111,16
DA:115,0
DA:116,0
DA:117,0
DA:127,16
DA:103,16
DA:111,16
DA:115,0
DA:116,0
DA:117,0
DA:127,16
DA:103,8
DA:111,8
DA:115,0
DA:116,0
DA:117,0
DA:127,8
DA:103,39
DA:111,39
DA:115,0
DA:116,0
DA:117,0
DA:127,39
DA:103,32
DA:111,32
DA:115,0
DA:116,0
DA:117,0
DA:127,32
DA:103,11
DA:111,11
DA:115,0
DA:116,0
DA:117,0
DA:127,11
DA:103,0
DA:111,0
DA:117,0
DA:127,0
DA:132,16
DA:145,16
DA:132,8
DA:145,8
DA:132,1007
DA:145,1007
DA:132,0
DA:145,0
DA:132,0
DA:145,0
DA:132,0
DA:145,0
DA:132,0
DA:145,0
DA:132,0
DA:145,0
DA:132,0
DA:145,0
DA:132,0
DA:145,0
DA:132,39
DA:145,39
DA:132,11
DA:145,11
DA:132,0
DA:145,0
end_of_record
SF:/home/eric/2025MQ/MQproject/2025MQWorkSpace/src/server/queue_message.hpp
FN:29,_ZN7hare_mq13queue_message6insertEPNS_15BasicPropertiesERKNSt7__cxx1112basic_stringIcSt11char_traitsIcESaIcEEEb
FNDA:1007,_ZN7hare_mq13queue_message6insertEPNS_15BasicPropertiesERKNSt7__cxx1112basic_stringIcSt11char_traitsIcESaIcEEEb
FN:43,_ZNK7hare_mq13queue_message5frontEv
FNDA:12,_ZNK7hare_mq13queue_message5frontEv
FN:46,_ZN7hare_mq13queue_message6removeERKNSt7__cxx1112basic_stringIcSt11char_traitsIcESaIcEEE
FNDA:12,_ZN7hare_mq13queue_message6removeERKNSt7__cxx1112basic_stringIcSt11char_traitsIcESaIcEEE
FN:51,_ZZN7hare_mq13queue_message6removeERKNSt7__cxx1112basic_stringIcSt11char_traitsIcESaIcEEEENKUlRKSt10shared_ptrINS_7MessageEEE_clESD_
FNDA:0,_ZZN7hare_mq13queue_message6removeERKNSt7__cxx1112basic_stringIcSt11char_traitsIcESaIcEEEENKUlRKSt10shared_ptrINS_7MessageEEE_clESD_
DA:23,8
DA:27,16
DA:29,1007
DA:33,1007
DA:35,1007
DA:36,1007
DA:38,1007
DA:39,1007
DA:40,1007
DA:41,1007
DA:43,12
DA:44,12
DA:46,12
DA:48,12
DA:50,0
DA:51,0
DA:52,0
DA:54,0
DA:57,2
DA:59,0
end_of_record
SF:/usr/include/c++/11/bits/functional_hash.h
DA:196,1071
DA:198,1071
end_of_record
SF:/usr/include/c++/11/bits/stl_iterator_base_funcs.h
DA:98,26
DA:104,26
DA:138,26
DA:141,26
end_of_record
SF:/usr/include/c++/11/bits/stl_pair.h
FN:314,_ZNSt4pairIKNSt7__cxx1112basic_stringIcSt11char_traitsIcESaIcEEESt10shared_ptrIN7hare_mq7bindingEEEC2ERKSB_
FNDA:0,_ZNSt4pairIKNSt7__cxx1112basic_stringIcSt11char_traitsIcESaIcEEESt10shared_ptrIN7hare_mq7bindingEEEC2ERKSB_
DA:211,0
DA:314,0
end_of_record
SF:/usr/include/c++/11/bits/hashtable.h
FN:308,_ZNSt10_HashtableINSt7__cxx1112basic_stringIcSt11char_traitsIcESaIcEEESt4pairIKS5_St10shared_ptrIN7hare_mq13queue_messageEEESaISC_ENSt8__detail10_Select1stESt8equal_toIS5_ESt4hashIS5_ENSE_18_Mod_range_hashingENSE_20_Default_ranged_hashENSE_20_Prime_rehash_policyENSE_17_Hashtable_traitsILb1ELb0ELb1EEEE12_Scoped_nodeD2Ev
FNDA:8,_ZNSt10_HashtableINSt7__cxx1112basic_stringIcSt11char_traitsIcESaIcEEESt4pairIKS5_St10shared_ptrIN7hare_mq13queue_messageEEESaISC_ENSt8__detail10_Select1stESt8equal_toIS5_ESt4hashIS5_ENSE_18_Mod_range_hashingENSE_20_Default_ranged_hashENSE_20_Prime_rehash_policyENSE_17_Hashtable_traitsILb1ELb0ELb1EEEE12_Scoped_nodeD2Ev
FN:308,_ZNSt10_HashtableINSt7__cxx1112basic_stringIcSt11char_traitsIcESaIcEEESt4pairIKS5_St13unordered_mapIS5_St10shared_ptrIN7hare_mq7bindingEESt4hashIS5_ESt8equal_toIS5_ESaIS6_IS7_SC_EEEESaISK_ENSt8__detail10_Select1stESG_SE_NSM_18_Mod_range_hashingENSM_20_Default_ranged_hashENSM_20_Prime_rehash_policyENSM_17_Hashtable_traitsILb1ELb0ELb1EEEE12_Scoped_nodeD2Ev
FNDA:16,_ZNSt10_HashtableINSt7__cxx1112basic_stringIcSt11char_traitsIcESaIcEEESt4pairIKS5_St13unordered_mapIS5_St10shared_ptrIN7hare_mq7bindingEESt4hashIS5_ESt8equal_toIS5_ESaIS6_IS7_SC_EEEESaISK_ENSt8__detail10_Select1stESG_SE_NSM_18_Mod_range_hashingENSM_20_Default_ranged_hashENSM_20_Prime_rehash_policyENSM_17_Hashtable_traitsILb1ELb0ELb1EEEE12_Scoped_nodeD2Ev
FN:308,_ZNSt10_HashtableINSt7__cxx1112basic_stringIcSt11char_traitsIcESaIcEEESt4pairIKS5_St10shared_ptrIN7hare_mq7bindingEEESaISC_ENSt8__detail10_Select1stESt8equal_toIS5_ESt4hashIS5_ENSE_18_Mod_range_hashingENSE_20_Default_ranged_hashENSE_20_Prime_rehash_policyENSE_17_Hashtable_traitsILb1ELb0ELb1EEEE12_Scoped_nodeD2Ev
FNDA:16,_ZNSt10_HashtableINSt7__cxx1112basic_stringIcSt11char_traitsIcESaIcEEESt4pairIKS5_St10shared_ptrIN7hare_mq7bindingEEESaISC_ENSt8__detail10_Select1stESt8equal_toIS5_ESt4hashIS5_ENSE_18_Mod_range_hashingENSE_20_Default_ranged_hashENSE_20_Prime_rehash_policyENSE_17_Hashtable_traitsILb1ELb0ELb1EEEE12_Scoped_nodeD2Ev
FN:407,_ZNSt10_HashtableINSt7__cxx1112basic_stringIcSt11char_traitsIcESaIcEEESt4pairIKS5_St10shared_ptrIN7hare_mq7bindingEEESaISC_ENSt8__detail10_Select1stESt8equal_toIS5_ESt4hashIS5_ENSE_18_Mod_range_hashingENSE_20_Default_ranged_hashENSE_20_Prime_rehash_policyENSE_17_Hashtable_traitsILb1ELb0ELb1EEEE16_M_update_bbeginEv
FNDA:0,_ZNSt10_HashtableINSt7__cxx1112basic_stringIcSt11char_traitsIcESaIcEEESt4pairIKS5_St10shared_ptrIN7hare_mq7bindingEEESaISC_ENSt8__detail10_Select1stESt8equal_toIS5_ESt4hashIS5_ENSE_18_Mod_range_hashingENSE_20_Default_ranged_hashENSE_20_Prime_rehash_policyENSE_17_Hashtable_traitsILb1ELb0ELb1EEEE16_M_update_bbeginEv
FN:453,_ZNSt10_HashtableINSt7__cxx1112basic_stringIcSt11char_traitsIcESaIcEEESt4pairIKS5_St10shared_ptrIN7hare_mq8exchangeEEESaISC_ENSt8__detail10_Select1stESt8equal_toIS5_ESt4hashIS5_ENSE_18_Mod_range_hashingENSE_20_Default_ranged_hashENSE_20_Prime_rehash_policyENSE_17_Hashtable_traitsILb1ELb0ELb1EEEE21_M_deallocate_bucketsEv
FNDA:0,_ZNSt10_HashtableINSt7__cxx1112basic_stringIcSt11char_traitsIcESaIcEEESt4pairIKS5_St10shared_ptrIN7hare_mq8exchangeEEESaISC_ENSt8__detail10_Select1stESt8equal_toIS5_ESt4hashIS5_ENSE_18_Mod_range_hashingENSE_20_Default_ranged_hashENSE_20_Prime_rehash_policyENSE_17_Hashtable_traitsILb1ELb0ELb1EEEE21_M_deallocate_bucketsEv
FN:453,_ZNSt10_HashtableINSt7__cxx1112basic_stringIcSt11char_traitsIcESaIcEEESt4pairIKS5_St10shared_ptrIN7hare_mq9msg_queueEEESaISC_ENSt8__detail10_Select1stESt8equal_toIS5_ESt4hashIS5_ENSE_18_Mod_range_hashingENSE_20_Default_ranged_hashENSE_20_Prime_rehash_policyENSE_17_Hashtable_traitsILb1ELb0ELb1EEEE21_M_deallocate_bucketsEv
FNDA:9,_ZNSt10_HashtableINSt7__cxx1112basic_stringIcSt11char_traitsIcESaIcEEESt4pairIKS5_St10shared_ptrIN7hare_mq9msg_queueEEESaISC_ENSt8__detail10_Select1stESt8equal_toIS5_ESt4hashIS5_ENSE_18_Mod_range_hashingENSE_20_Default_ranged_hashENSE_20_Prime_rehash_policyENSE_17_Hashtable_traitsILb1ELb0ELb1EEEE21_M_deallocate_bucketsEv
FN:453,_ZNSt10_HashtableINSt7__cxx1112basic_stringIcSt11char_traitsIcESaIcEEESt4pairIKS5_St13unordered_mapIS5_St10shared_ptrIN7hare_mq7bindingEESt4hashIS5_ESt8equal_toIS5_ESaIS6_IS7_SC_EEEESaISK_ENSt8__detail10_Select1stESG_SE_NSM_18_Mod_range_hashingENSM_20_Default_ranged_hashENSM_20_Prime_rehash_policyENSM_17_Hashtable_traitsILb1ELb0ELb1EEEE21_M_deallocate_bucketsEv
FNDA:8,_ZNSt10_HashtableINSt7__cxx1112basic_stringIcSt11char_traitsIcESaIcEEESt4pairIKS5_St13unordered_mapIS5_St10shared_ptrIN7hare_mq7bindingEESt4hashIS5_ESt8equal_toIS5_ESaIS6_IS7_SC_EEEESaISK_ENSt8__detail10_Select1stESG_SE_NSM_18_Mod_range_hashingENSM_20_Default_ranged_hashENSM_20_Prime_rehash_policyENSM_17_Hashtable_traitsILb1ELb0ELb1EEEE21_M_deallocate_bucketsEv
FN:453,_ZNSt10_HashtableINSt7__cxx1112basic_stringIcSt11char_traitsIcESaIcEEESt4pairIKS5_St10shared_ptrIN7hare_mq13queue_messageEEESaISC_ENSt8__detail10_Select1stESt8equal_toIS5_ESt4hashIS5_ENSE_18_Mod_range_hashingENSE_20_Default_ranged_hashENSE_20_Prime_rehash_policyENSE_17_Hashtable_traitsILb1ELb0ELb1EEEE21_M_deallocate_bucketsEv
FNDA:8,_ZNSt10_HashtableINSt7__cxx1112basic_stringIcSt11char_traitsIcESaIcEEESt4pairIKS5_St10shared_ptrIN7hare_mq13queue_messageEEESaISC_ENSt8__detail10_Select1stESt8equal_toIS5_ESt4hashIS5_ENSE_18_Mod_range_hashingENSE_20_Default_ranged_hashENSE_20_Prime_rehash_policyENSE_17_Hashtable_traitsILb1ELb0ELb1EEEE21_M_deallocate_bucketsEv
FN:453,_ZNSt10_HashtableINSt7__cxx1112basic_stringIcSt11char_traitsIcESaIcEEESt4pairIKS5_S5_ESaIS8_ENSt8__detail10_Select1stESt8equal_toIS5_ESt4hashIS5_ENSA_18_Mod_range_hashingENSA_20_Default_ranged_hashENSA_20_Prime_rehash_policyENSA_17_Hashtable_traitsILb1ELb0ELb1EEEE21_M_deallocate_bucketsEv
FNDA:9,_ZNSt10_HashtableINSt7__cxx1112basic_stringIcSt11char_traitsIcESaIcEEESt4pairIKS5_S5_ESaIS8_ENSt8__detail10_Select1stESt8equal_toIS5_ESt4hashIS5_ENSA_18_Mod_range_hashingENSA_20_Default_ranged_hashENSA_20_Prime_rehash_policyENSA_17_Hashtable_traitsILb1ELb0ELb1EEEE21_M_deallocate_bucketsEv
FN:453,_ZNSt10_HashtableINSt7__cxx1112basic_stringIcSt11char_traitsIcESaIcEEESt4pairIKS5_St10shared_ptrIN7hare_mq7bindingEEESaISC_ENSt8__detail10_Select1stESt8equal_toIS5_ESt4hashIS5_ENSE_18_Mod_range_hashingENSE_20_Default_ranged_hashENSE_20_Prime_rehash_policyENSE_17_Hashtable_traitsILb1ELb0ELb1EEEE21_M_deallocate_bucketsEv
FNDA:16,_ZNSt10_HashtableINSt7__cxx1112basic_stringIcSt11char_traitsIcESaIcEEESt4pairIKS5_St10shared_ptrIN7hare_mq7bindingEEESaISC_ENSt8__detail10_Select1stESt8equal_toIS5_ESt4hashIS5_ENSE_18_Mod_range_hashingENSE_20_Default_ranged_hashENSE_20_Prime_rehash_policyENSE_17_Hashtable_traitsILb1ELb0ELb1EEEE21_M_deallocate_bucketsEv
FN:1289,_ZNSt10_HashtableINSt7__cxx1112basic_stringIcSt11char_traitsIcESaIcEEESt4pairIKS5_St10shared_ptrIN7hare_mq7bindingEEESaISC_ENSt8__detail10_Select1stESt8equal_toIS5_ESt4hashIS5_ENSE_18_Mod_range_hashingENSE_20_Default_ranged_hashENSE_20_Prime_rehash_policyENSE_17_Hashtable_traitsILb1ELb0ELb1EEEE9_M_assignIRKSP_NSE_10_AllocNodeISaINSE_10_Hash_nodeISC_Lb1EEEEEEEEvOT_RKT0_
FNDA:0,_ZNSt10_HashtableINSt7__cxx1112basic_stringIcSt11char_traitsIcESaIcEEESt4pairIKS5_St10shared_ptrIN7hare_mq7bindingEEESaISC_ENSt8__detail10_Select1stESt8equal_toIS5_ESt4hashIS5_ENSE_18_Mod_range_hashingENSE_20_Default_ranged_hashENSE_20_Prime_rehash_policyENSE_17_Hashtable_traitsILb1ELb0ELb1EEEE9_M_assignIRKSP_NSE_10_AllocNodeISaINSE_10_Hash_nodeISC_Lb1EEEEEEEEvOT_RKT0_
FN:1406,_ZNSt10_HashtableINSt7__cxx1112basic_stringIcSt11char_traitsIcESaIcEEESt4pairIKS5_St10shared_ptrIN7hare_mq7bindingEEESaISC_ENSt8__detail10_Select1stESt8equal_toIS5_ESt4hashIS5_ENSE_18_Mod_range_hashingENSE_20_Default_ranged_hashENSE_20_Prime_rehash_policyENSE_17_Hashtable_traitsILb1ELb0ELb1EEEEC2ERKSP_
FNDA:0,_ZNSt10_HashtableINSt7__cxx1112basic_stringIcSt11char_traitsIcESaIcEEESt4pairIKS5_St10shared_ptrIN7hare_mq7bindingEEESaISC_ENSt8__detail10_Select1stESt8equal_toIS5_ESt4hashIS5_ENSE_18_Mod_range_hashingENSE_20_Default_ranged_hashENSE_20_Prime_rehash_policyENSE_17_Hashtable_traitsILb1ELb0ELb1EEEEC2ERKSP_
FN:1588,_ZNSt10_HashtableINSt7__cxx1112basic_stringIcSt11char_traitsIcESaIcEEESt4pairIKS5_St13unordered_mapIS5_St10shared_ptrIN7hare_mq7bindingEESt4hashIS5_ESt8equal_toIS5_ESaIS6_IS7_SC_EEEESaISK_ENSt8__detail10_Select1stESG_SE_NSM_18_Mod_range_hashingENSM_20_Default_ranged_hashENSM_20_Prime_rehash_policyENSM_17_Hashtable_traitsILb1ELb0ELb1EEEE4findERS7_
FNDA:0,_ZNSt10_HashtableINSt7__cxx1112basic_stringIcSt11char_traitsIcESaIcEEESt4pairIKS5_St13unordered_mapIS5_St10shared_ptrIN7hare_mq7bindingEESt4hashIS5_ESt8equal_toIS5_ESaIS6_IS7_SC_EEEESaISK_ENSt8__detail10_Select1stESG_SE_NSM_18_Mod_range_hashingENSM_20_Default_ranged_hashENSM_20_Prime_rehash_policyENSM_17_Hashtable_traitsILb1ELb0ELb1EEEE4findERS7_
FN:1588,_ZNSt10_HashtableINSt7__cxx1112basic_stringIcSt11char_traitsIcESaIcEEESt4pairIKS5_St10shared_ptrIN7hare_mq13queue_messageEEESaISC_ENSt8__detail10_Select1stESt8equal_toIS5_ESt4hashIS5_ENSE_18_Mod_range_hashingENSE_20_Default_ranged_hashENSE_20_Prime_rehash_policyENSE_17_Hashtable_traitsILb1ELb0ELb1EEEE4findERS7_
FNDA:1023,_ZNSt10_HashtableINSt7__cxx1112basic_stringIcSt11char_traitsIcESaIcEEESt4pairIKS5_St10shared_ptrIN7hare_mq13queue_messageEEESaISC_ENSt8__detail10_Select1stESt8equal_toIS5_ESt4hashIS5_ENSE_18_Mod_range_hashingENSE_20_Default_ranged_hashENSE_20_Prime_rehash_policyENSE_17_Hashtable_traitsILb1ELb0ELb1EEEE4findERS7_
FN:1603,_ZNKSt10_HashtableINSt7__cxx1112basic_stringIcSt11char_traitsIcESaIcEEESt4pairIKS5_St10shared_ptrIN7hare_mq13queue_messageEEESaISC_ENSt8__detail10_Select1stESt8equal_toIS5_ESt4hashIS5_ENSE_18_Mod_range_hashingENSE_20_Default_ranged_hashENSE_20_Prime_rehash_policyENSE_17_Hashtable_traitsILb1ELb0ELb1EEEE4findERS7_
FNDA:8,_ZNKSt10_HashtableINSt7__cxx1112basic_stringIcSt11char_traitsIcESaIcEEESt4pairIKS5_St10shared_ptrIN7hare_mq13queue_messageEEESaISC_ENSt8__detail10_Select1stESt8equal_toIS5_ESt4hashIS5_ENSE_18_Mod_range_hashingENSE_20_Default_ranged_hashENSE_20_Prime_rehash_policyENSE_17_Hashtable_traitsILb1ELb0ELb1EEEE4findERS7_
FN:1827,_ZNKSt10_HashtableINSt7__cxx1112basic_stringIcSt11char_traitsIcESaIcEEESt4pairIKS5_St10shared_ptrIN7hare_mq7bindingEEESaISC_ENSt8__detail10_Select1stESt8equal_toIS5_ESt4hashIS5_ENSE_18_Mod_range_hashingENSE_20_Default_ranged_hashENSE_20_Prime_rehash_policyENSE_17_Hashtable_traitsILb1ELb0ELb1EEEE19_M_find_before_nodeEmRS7_m
FNDA:16,_ZNKSt10_HashtableINSt7__cxx1112basic_stringIcSt11char_traitsIcESaIcEEESt4pairIKS5_St10shared_ptrIN7hare_mq7bindingEEESaISC_ENSt8__detail10_Select1stESt8equal_toIS5_ESt4hashIS5_ENSE_18_Mod_range_hashingENSE_20_Default_ranged_hashENSE_20_Prime_rehash_policyENSE_17_Hashtable_traitsILb1ELb0ELb1EEEE19_M_find_before_nodeEmRS7_m
FN:1827,_ZNKSt10_HashtableINSt7__cxx1112basic_stringIcSt11char_traitsIcESaIcEEESt4pairIKS5_St13unordered_mapIS5_St10shared_ptrIN7hare_mq7bindingEESt4hashIS5_ESt8equal_toIS5_ESaIS6_IS7_SC_EEEESaISK_ENSt8__detail10_Select1stESG_SE_NSM_18_Mod_range_hashingENSM_20_Default_ranged_hashENSM_20_Prime_rehash_policyENSM_17_Hashtable_traitsILb1ELb0ELb1EEEE19_M_find_before_nodeEmRS7_m
FNDA:16,_ZNKSt10_HashtableINSt7__cxx1112basic_stringIcSt11char_traitsIcESaIcEEESt4pairIKS5_St13unordered_mapIS5_St10shared_ptrIN7hare_mq7bindingEESt4hashIS5_ESt8equal_toIS5_ESaIS6_IS7_SC_EEEESaISK_ENSt8__detail10_Select1stESG_SE_NSM_18_Mod_range_hashingENSM_20_Default_ranged_hashENSM_20_Prime_rehash_policyENSM_17_Hashtable_traitsILb1ELb0ELb1EEEE19_M_find_before_nodeEmRS7_m
FN:1827,_ZNKSt10_HashtableINSt7__cxx1112basic_stringIcSt11char_traitsIcESaIcEEESt4pairIKS5_St10shared_ptrIN7hare_mq13queue_messageEEESaISC_ENSt8__detail10_Select1stESt8equal_toIS5_ESt4hashIS5_ENSE_18_Mod_range_hashingENSE_20_Default_ranged_hashENSE_20_Prime_rehash_policyENSE_17_Hashtable_traitsILb1ELb0ELb1EEEE19_M_find_before_nodeEmRS7_m
FNDA:1039,_ZNKSt10_HashtableINSt7__cxx1112basic_stringIcSt11char_traitsIcESaIcEEESt4pairIKS5_St10shared_ptrIN7hare_mq13queue_messageEEESaISC_ENSt8__detail10_Select1stESt8equal_toIS5_ESt4hashIS5_ENSE_18_Mod_range_hashingENSE_20_Default_ranged_hashENSE_20_Prime_rehash_policyENSE_17_Hashtable_traitsILb1ELb0ELb1EEEE19_M_find_before_nodeEmRS7_m
FN:1886,_ZNSt10_HashtableINSt7__cxx1112basic_stringIcSt11char_traitsIcESaIcEEESt4pairIKS5_St10shared_ptrIN7hare_mq13queue_messageEEESaISC_ENSt8__detail10_Select1stESt8equal_toIS5_ESt4hashIS5_ENSE_18_Mod_range_hashingENSE_20_Default_ranged_hashENSE_20_Prime_rehash_policyENSE_17_Hashtable_traitsILb1ELb0ELb1EEEE22_M_insert_bucket_beginEmPNSE_10_Hash_nodeISC_Lb1EEE
FNDA:8,_ZNSt10_HashtableINSt7__cxx1112basic_stringIcSt11char_traitsIcESaIcEEESt4pairIKS5_St10shared_ptrIN7hare_mq13queue_messageEEESaISC_ENSt8__detail10_Select1stESt8equal_toIS5_ESt4hashIS5_ENSE_18_Mod_range_hashingENSE_20_Default_ranged_hashENSE_20_Prime_rehash_policyENSE_17_Hashtable_traitsILb1ELb0ELb1EEEE22_M_insert_bucket_beginEmPNSE_10_Hash_nodeISC_Lb1EEE
FN:1886,_ZNSt10_HashtableINSt7__cxx1112basic_stringIcSt11char_traitsIcESaIcEEESt4pairIKS5_St10shared_ptrIN7hare_mq7bindingEEESaISC_ENSt8__detail10_Select1stESt8equal_toIS5_ESt4hashIS5_ENSE_18_Mod_range_hashingENSE_20_Default_ranged_hashENSE_20_Prime_rehash_policyENSE_17_Hashtable_traitsILb1ELb0ELb1EEEE22_M_insert_bucket_beginEmPNSE_10_Hash_nodeISC_Lb1EEE
FNDA:16,_ZNSt10_HashtableINSt7__cxx1112basic_stringIcSt11char_traitsIcESaIcEEESt4pairIKS5_St10shared_ptrIN7hare_mq7bindingEEESaISC_ENSt8__detail10_Select1stESt8equal_toIS5_ESt4hashIS5_ENSE_18_Mod_range_hashingENSE_20_Default_ranged_hashENSE_20_Prime_rehash_policyENSE_17_Hashtable_traitsILb1ELb0ELb1EEEE22_M_insert_bucket_beginEmPNSE_10_Hash_nodeISC_Lb1EEE
FN:1886,_ZNSt10_HashtableINSt7__cxx1112basic_stringIcSt11char_traitsIcESaIcEEESt4pairIKS5_St13unordered_mapIS5_St10shared_ptrIN7hare_mq7bindingEESt4hashIS5_ESt8equal_toIS5_ESaIS6_IS7_SC_EEEESaISK_ENSt8__detail10_Select1stESG_SE_NSM_18_Mod_range_hashingENSM_20_Default_ranged_hashENSM_20_Prime_rehash_policyENSM_17_Hashtable_traitsILb1ELb0ELb1EEEE22_M_insert_bucket_beginEmPNSM_10_Hash_nodeISK_Lb1EEE
FNDA:16,_ZNSt10_HashtableINSt7__cxx1112basic_stringIcSt11char_traitsIcESaIcEEESt4pairIKS5_St13unordered_mapIS5_St10shared_ptrIN7hare_mq7bindingEESt4hashIS5_ESt8equal_toIS5_ESaIS6_IS7_SC_EEEESaISK_ENSt8__detail10_Select1stESG_SE_NSM_18_Mod_range_hashingENSM_20_Default_ranged_hashENSM_20_Prime_rehash_policyENSM_17_Hashtable_traitsILb1ELb0ELb1EEEE22_M_insert_bucket_beginEmPNSM_10_Hash_nodeISK_Lb1EEE
FN:1919,_ZNSt10_HashtableINSt7__cxx1112basic_stringIcSt11char_traitsIcESaIcEEESt4pairIKS5_St10shared_ptrIN7hare_mq7bindingEEESaISC_ENSt8__detail10_Select1stESt8equal_toIS5_ESt4hashIS5_ENSE_18_Mod_range_hashingENSE_20_Default_ranged_hashENSE_20_Prime_rehash_policyENSE_17_Hashtable_traitsILb1ELb0ELb1EEEE22_M_remove_bucket_beginEmPNSE_10_Hash_nodeISC_Lb1EEEm
FNDA:0,_ZNSt10_HashtableINSt7__cxx1112basic_stringIcSt11char_traitsIcESaIcEEESt4pairIKS5_St10shared_ptrIN7hare_mq7bindingEEESaISC_ENSt8__detail10_Select1stESt8equal_toIS5_ESt4hashIS5_ENSE_18_Mod_range_hashingENSE_20_Default_ranged_hashENSE_20_Prime_rehash_policyENSE_17_Hashtable_traitsILb1ELb0ELb1EEEE22_M_remove_bucket_beginEmPNSE_10_Hash_nodeISC_Lb1EEEm
FN:1919,_ZNSt10_HashtableINSt7__cxx1112basic_stringIcSt11char_traitsIcESaIcEEESt4pairIKS5_St10shared_ptrIN7hare_mq13queue_messageEEESaISC_ENSt8__detail10_Select1stESt8equal_toIS5_ESt4hashIS5_ENSE_18_Mod_range_hashingENSE_20_Default_ranged_hashENSE_20_Prime_rehash_policyENSE_17_Hashtable_traitsILb1ELb0ELb1EEEE22_M_remove_bucket_beginEmPNSE_10_Hash_nodeISC_Lb1EEEm
FNDA:0,_ZNSt10_HashtableINSt7__cxx1112basic_stringIcSt11char_traitsIcESaIcEEESt4pairIKS5_St10shared_ptrIN7hare_mq13queue_messageEEESaISC_ENSt8__detail10_Select1stESt8equal_toIS5_ESt4hashIS5_ENSE_18_Mod_range_hashingENSE_20_Default_ranged_hashENSE_20_Prime_rehash_policyENSE_17_Hashtable_traitsILb1ELb0ELb1EEEE22_M_remove_bucket_beginEmPNSE_10_Hash_nodeISC_Lb1EEEm
FN:1919,_ZNSt10_HashtableINSt7__cxx1112basic_stringIcSt11char_traitsIcESaIcEEESt4pairIKS5_St13unordered_mapIS5_St10shared_ptrIN7hare_mq7bindingEESt4hashIS5_ESt8equal_toIS5_ESaIS6_IS7_SC_EEEESaISK_ENSt8__detail10_Select1stESG_SE_NSM_18_Mod_range_hashingENSM_20_Default_ranged_hashENSM_20_Prime_rehash_policyENSM_17_Hashtable_traitsILb1ELb0ELb1EEEE22_M_remove_bucket_beginEmPNSM_10_Hash_nodeISK_Lb1EEEm
FNDA:0,_ZNSt10_HashtableINSt7__cxx1112basic_stringIcSt11char_traitsIcESaIcEEESt4pairIKS5_St13unordered_mapIS5_St10shared_ptrIN7hare_mq7bindingEESt4hashIS5_ESt8equal_toIS5_ESaIS6_IS7_SC_EEEESaISK_ENSt8__detail10_Select1stESG_SE_NSM_18_Mod_range_hashingENSM_20_Default_ranged_hashENSM_20_Prime_rehash_policyENSM_17_Hashtable_traitsILb1ELb0ELb1EEEE22_M_remove_bucket_beginEmPNSM_10_Hash_nodeISK_Lb1EEEm
FN:2008,_ZNSt10_HashtableINSt7__cxx1112basic_stringIcSt11char_traitsIcESaIcEEESt4pairIKS5_St10shared_ptrIN7hare_mq7bindingEEESaISC_ENSt8__detail10_Select1stESt8equal_toIS5_ESt4hashIS5_ENSE_18_Mod_range_hashingENSE_20_Default_ranged_hashENSE_20_Prime_rehash_policyENSE_17_Hashtable_traitsILb1ELb0ELb1EEEE21_M_insert_unique_nodeEmmPNSE_10_Hash_nodeISC_Lb1EEEm
FNDA:16,_ZNSt10_HashtableINSt7__cxx1112basic_stringIcSt11char_traitsIcESaIcEEESt4pairIKS5_St10shared_ptrIN7hare_mq7bindingEEESaISC_ENSt8__detail10_Select1stESt8equal_toIS5_ESt4hashIS5_ENSE_18_Mod_range_hashingENSE_20_Default_ranged_hashENSE_20_Prime_rehash_policyENSE_17_Hashtable_traitsILb1ELb0ELb1EEEE21_M_insert_unique_nodeEmmPNSE_10_Hash_nodeISC_Lb1EEEm
FN:2008,_ZNSt10_HashtableINSt7__cxx1112basic_stringIcSt11char_traitsIcESaIcEEESt4pairIKS5_St13unordered_mapIS5_St10shared_ptrIN7hare_mq7bindingEESt4hashIS5_ESt8equal_toIS5_ESaIS6_IS7_SC_EEEESaISK_ENSt8__detail10_Select1stESG_SE_NSM_18_Mod_range_hashingENSM_20_Default_ranged_hashENSM_20_Prime_rehash_policyENSM_17_Hashtable_traitsILb1ELb0ELb1EEEE21_M_insert_unique_nodeEmmPNSM_10_Hash_nodeISK_Lb1EEEm
FNDA:16,_ZNSt10_HashtableINSt7__cxx1112basic_stringIcSt11char_traitsIcESaIcEEESt4pairIKS5_St13unordered_mapIS5_St10shared_ptrIN7hare_mq7bindingEESt4hashIS5_ESt8equal_toIS5_ESaIS6_IS7_SC_EEEESaISK_ENSt8__detail10_Select1stESG_SE_NSM_18_Mod_range_hashingENSM_20_Default_ranged_hashENSM_20_Prime_rehash_policyENSM_17_Hashtable_traitsILb1ELb0ELb1EEEE21_M_insert_unique_nodeEmmPNSM_10_Hash_nodeISK_Lb1EEEm
FN:2008,_ZNSt10_HashtableINSt7__cxx1112basic_stringIcSt11char_traitsIcESaIcEEESt4pairIKS5_St10shared_ptrIN7hare_mq13queue_messageEEESaISC_ENSt8__detail10_Select1stESt8equal_toIS5_ESt4hashIS5_ENSE_18_Mod_range_hashingENSE_20_Default_ranged_hashENSE_20_Prime_rehash_policyENSE_17_Hashtable_traitsILb1ELb0ELb1EEEE21_M_insert_unique_nodeEmmPNSE_10_Hash_nodeISC_Lb1EEEm
FNDA:8,_ZNSt10_HashtableINSt7__cxx1112basic_stringIcSt11char_traitsIcESaIcEEESt4pairIKS5_St10shared_ptrIN7hare_mq13queue_messageEEESaISC_ENSt8__detail10_Select1stESt8equal_toIS5_ESt4hashIS5_ENSE_18_Mod_range_hashingENSE_20_Default_ranged_hashENSE_20_Prime_rehash_policyENSE_17_Hashtable_traitsILb1ELb0ELb1EEEE21_M_insert_unique_nodeEmmPNSE_10_Hash_nodeISC_Lb1EEEm
FN:2166,_ZNSt10_HashtableINSt7__cxx1112basic_stringIcSt11char_traitsIcESaIcEEESt4pairIKS5_St10shared_ptrIN7hare_mq13queue_messageEEESaISC_ENSt8__detail10_Select1stESt8equal_toIS5_ESt4hashIS5_ENSE_18_Mod_range_hashingENSE_20_Default_ranged_hashENSE_20_Prime_rehash_policyENSE_17_Hashtable_traitsILb1ELb0ELb1EEEE8_M_eraseEmPNSE_15_Hash_node_baseEPNSE_10_Hash_nodeISC_Lb1EEE
FNDA:0,_ZNSt10_HashtableINSt7__cxx1112basic_stringIcSt11char_traitsIcESaIcEEESt4pairIKS5_St10shared_ptrIN7hare_mq13queue_messageEEESaISC_ENSt8__detail10_Select1stESt8equal_toIS5_ESt4hashIS5_ENSE_18_Mod_range_hashingENSE_20_Default_ranged_hashENSE_20_Prime_rehash_policyENSE_17_Hashtable_traitsILb1ELb0ELb1EEEE8_M_eraseEmPNSE_15_Hash_node_baseEPNSE_10_Hash_nodeISC_Lb1EEE
FN:2166,_ZNSt10_HashtableINSt7__cxx1112basic_stringIcSt11char_traitsIcESaIcEEESt4pairIKS5_St13unordered_mapIS5_St10shared_ptrIN7hare_mq7bindingEESt4hashIS5_ESt8equal_toIS5_ESaIS6_IS7_SC_EEEESaISK_ENSt8__detail10_Select1stESG_SE_NSM_18_Mod_range_hashingENSM_20_Default_ranged_hashENSM_20_Prime_rehash_policyENSM_17_Hashtable_traitsILb1ELb0ELb1EEEE8_M_eraseEmPNSM_15_Hash_node_baseEPNSM_10_Hash_nodeISK_Lb1EEE
FNDA:0,_ZNSt10_HashtableINSt7__cxx1112basic_stringIcSt11char_traitsIcESaIcEEESt4pairIKS5_St13unordered_mapIS5_St10shared_ptrIN7hare_mq7bindingEESt4hashIS5_ESt8equal_toIS5_ESaIS6_IS7_SC_EEEESaISK_ENSt8__detail10_Select1stESG_SE_NSM_18_Mod_range_hashingENSM_20_Default_ranged_hashENSM_20_Prime_rehash_policyENSM_17_Hashtable_traitsILb1ELb0ELb1EEEE8_M_eraseEmPNSM_15_Hash_node_baseEPNSM_10_Hash_nodeISK_Lb1EEE
FN:2166,_ZNSt10_HashtableINSt7__cxx1112basic_stringIcSt11char_traitsIcESaIcEEESt4pairIKS5_St10shared_ptrIN7hare_mq7bindingEEESaISC_ENSt8__detail10_Select1stESt8equal_toIS5_ESt4hashIS5_ENSE_18_Mod_range_hashingENSE_20_Default_ranged_hashENSE_20_Prime_rehash_policyENSE_17_Hashtable_traitsILb1ELb0ELb1EEEE8_M_eraseEmPNSE_15_Hash_node_baseEPNSE_10_Hash_nodeISC_Lb1EEE
FNDA:0,_ZNSt10_HashtableINSt7__cxx1112basic_stringIcSt11char_traitsIcESaIcEEESt4pairIKS5_St10shared_ptrIN7hare_mq7bindingEEESaISC_ENSt8__detail10_Select1stESt8equal_toIS5_ESt4hashIS5_ENSE_18_Mod_range_hashingENSE_20_Default_ranged_hashENSE_20_Prime_rehash_policyENSE_17_Hashtable_traitsILb1ELb0ELb1EEEE8_M_eraseEmPNSE_15_Hash_node_baseEPNSE_10_Hash_nodeISC_Lb1EEE
FN:2194,_ZNSt10_HashtableINSt7__cxx1112basic_stringIcSt11char_traitsIcESaIcEEESt4pairIKS5_St10shared_ptrIN7hare_mq13queue_messageEEESaISC_ENSt8__detail10_Select1stESt8equal_toIS5_ESt4hashIS5_ENSE_18_Mod_range_hashingENSE_20_Default_ranged_hashENSE_20_Prime_rehash_policyENSE_17_Hashtable_traitsILb1ELb0ELb1EEEE8_M_eraseESt17integral_constantIbLb1EERS7_
FNDA:0,_ZNSt10_HashtableINSt7__cxx1112basic_stringIcSt11char_traitsIcESaIcEEESt4pairIKS5_St10shared_ptrIN7hare_mq13queue_messageEEESaISC_ENSt8__detail10_Select1stESt8equal_toIS5_ESt4hashIS5_ENSE_18_Mod_range_hashingENSE_20_Default_ranged_hashENSE_20_Prime_rehash_policyENSE_17_Hashtable_traitsILb1ELb0ELb1EEEE8_M_eraseESt17integral_constantIbLb1EERS7_
FN:2194,_ZNSt10_HashtableINSt7__cxx1112basic_stringIcSt11char_traitsIcESaIcEEESt4pairIKS5_St10shared_ptrIN7hare_mq7bindingEEESaISC_ENSt8__detail10_Select1stESt8equal_toIS5_ESt4hashIS5_ENSE_18_Mod_range_hashingENSE_20_Default_ranged_hashENSE_20_Prime_rehash_policyENSE_17_Hashtable_traitsILb1ELb0ELb1EEEE8_M_eraseESt17integral_constantIbLb1EERS7_
FNDA:0,_ZNSt10_HashtableINSt7__cxx1112basic_stringIcSt11char_traitsIcESaIcEEESt4pairIKS5_St10shared_ptrIN7hare_mq7bindingEEESaISC_ENSt8__detail10_Select1stESt8equal_toIS5_ESt4hashIS5_ENSE_18_Mod_range_hashingENSE_20_Default_ranged_hashENSE_20_Prime_rehash_policyENSE_17_Hashtable_traitsILb1ELb0ELb1EEEE8_M_eraseESt17integral_constantIbLb1EERS7_
FN:2194,_ZNSt10_HashtableINSt7__cxx1112basic_stringIcSt11char_traitsIcESaIcEEESt4pairIKS5_St13unordered_mapIS5_St10shared_ptrIN7hare_mq7bindingEESt4hashIS5_ESt8equal_toIS5_ESaIS6_IS7_SC_EEEESaISK_ENSt8__detail10_Select1stESG_SE_NSM_18_Mod_range_hashingENSM_20_Default_ranged_hashENSM_20_Prime_rehash_policyENSM_17_Hashtable_traitsILb1ELb0ELb1EEEE8_M_eraseESt17integral_constantIbLb1EERS7_
FNDA:0,_ZNSt10_HashtableINSt7__cxx1112basic_stringIcSt11char_traitsIcESaIcEEESt4pairIKS5_St13unordered_mapIS5_St10shared_ptrIN7hare_mq7bindingEESt4hashIS5_ESt8equal_toIS5_ESaIS6_IS7_SC_EEEESaISK_ENSt8__detail10_Select1stESG_SE_NSM_18_Mod_range_hashingENSM_20_Default_ranged_hashENSM_20_Prime_rehash_policyENSM_17_Hashtable_traitsILb1ELb0ELb1EEEE8_M_eraseESt17integral_constantIbLb1EERS7_
FN:2316,_ZNSt10_HashtableINSt7__cxx1112basic_stringIcSt11char_traitsIcESaIcEEESt4pairIKS5_St10shared_ptrIN7hare_mq7bindingEEESaISC_ENSt8__detail10_Select1stESt8equal_toIS5_ESt4hashIS5_ENSE_18_Mod_range_hashingENSE_20_Default_ranged_hashENSE_20_Prime_rehash_policyENSE_17_Hashtable_traitsILb1ELb0ELb1EEEE5clearEv
FNDA:0,_ZNSt10_HashtableINSt7__cxx1112basic_stringIcSt11char_traitsIcESaIcEEESt4pairIKS5_St10shared_ptrIN7hare_mq7bindingEEESaISC_ENSt8__detail10_Select1stESt8equal_toIS5_ESt4hashIS5_ENSE_18_Mod_range_hashingENSE_20_Default_ranged_hashENSE_20_Prime_rehash_policyENSE_17_Hashtable_traitsILb1ELb0ELb1EEEE5clearEv
FN:2316,_ZNSt10_HashtableINSt7__cxx1112basic_stringIcSt11char_traitsIcESaIcEEESt4pairIKS5_S5_ESaIS8_ENSt8__detail10_Select1stESt8equal_toIS5_ESt4hashIS5_ENSA_18_Mod_range_hashingENSA_20_Default_ranged_hashENSA_20_Prime_rehash_policyENSA_17_Hashtable_traitsILb1ELb0ELb1EEEE5clearEv
FNDA:0,_ZNSt10_HashtableINSt7__cxx1112basic_stringIcSt11char_traitsIcESaIcEEESt4pairIKS5_S5_ESaIS8_ENSt8__detail10_Select1stESt8equal_toIS5_ESt4hashIS5_ENSA_18_Mod_range_hashingENSA_20_Default_ranged_hashENSA_20_Prime_rehash_policyENSA_17_Hashtable_traitsILb1ELb0ELb1EEEE5clearEv
FN:2316,_ZNSt10_HashtableINSt7__cxx1112basic_stringIcSt11char_traitsIcESaIcEEESt4pairIKS5_St10shared_ptrIN7hare_mq13queue_messageEEESaISC_ENSt8__detail10_Select1stESt8equal_toIS5_ESt4hashIS5_ENSE_18_Mod_range_hashingENSE_20_Default_ranged_hashENSE_20_Prime_rehash_policyENSE_17_Hashtable_traitsILb1ELb0ELb1EEEE5clearEv
FNDA:0,_ZNSt10_HashtableINSt7__cxx1112basic_stringIcSt11char_traitsIcESaIcEEESt4pairIKS5_St10shared_ptrIN7hare_mq13queue_messageEEESaISC_ENSt8__detail10_Select1stESt8equal_toIS5_ESt4hashIS5_ENSE_18_Mod_range_hashingENSE_20_Default_ranged_hashENSE_20_Prime_rehash_policyENSE_17_Hashtable_traitsILb1ELb0ELb1EEEE5clearEv
FN:2316,_ZNSt10_HashtableINSt7__cxx1112basic_stringIcSt11char_traitsIcESaIcEEESt4pairIKS5_St13unordered_mapIS5_St10shared_ptrIN7hare_mq7bindingEESt4hashIS5_ESt8equal_toIS5_ESaIS6_IS7_SC_EEEESaISK_ENSt8__detail10_Select1stESG_SE_NSM_18_Mod_range_hashingENSM_20_Default_ranged_hashENSM_20_Prime_rehash_policyENSM_17_Hashtable_traitsILb1ELb0ELb1EEEE5clearEv
FNDA:0,_ZNSt10_HashtableINSt7__cxx1112basic_stringIcSt11char_traitsIcESaIcEEESt4pairIKS5_St13unordered_mapIS5_St10shared_ptrIN7hare_mq7bindingEESt4hashIS5_ESt8equal_toIS5_ESaIS6_IS7_SC_EEEESaISK_ENSt8__detail10_Select1stESG_SE_NSM_18_Mod_range_hashingENSM_20_Default_ranged_hashENSM_20_Prime_rehash_policyENSM_17_Hashtable_traitsILb1ELb0ELb1EEEE5clearEv
FN:2316,_ZNSt10_HashtableINSt7__cxx1112basic_stringIcSt11char_traitsIcESaIcEEESt4pairIKS5_St10shared_ptrIN7hare_mq9msg_queueEEESaISC_ENSt8__detail10_Select1stESt8equal_toIS5_ESt4hashIS5_ENSE_18_Mod_range_hashingENSE_20_Default_ranged_hashENSE_20_Prime_rehash_policyENSE_17_Hashtable_traitsILb1ELb0ELb1EEEE5clearEv
FNDA:0,_ZNSt10_HashtableINSt7__cxx1112basic_stringIcSt11char_traitsIcESaIcEEESt4pairIKS5_St10shared_ptrIN7hare_mq9msg_queueEEESaISC_ENSt8__detail10_Select1stESt8equal_toIS5_ESt4hashIS5_ENSE_18_Mod_range_hashingENSE_20_Default_ranged_hashENSE_20_Prime_rehash_policyENSE_17_Hashtable_traitsILb1ELb0ELb1EEEE5clearEv
FN:2316,_ZNSt10_HashtableINSt7__cxx1112basic_stringIcSt11char_traitsIcESaIcEEESt4pairIKS5_St10shared_ptrIN7hare_mq8exchangeEEESaISC_ENSt8__detail10_Select1stESt8equal_toIS5_ESt4hashIS5_ENSE_18_Mod_range_hashingENSE_20_Default_ranged_hashENSE_20_Prime_rehash_policyENSE_17_Hashtable_traitsILb1ELb0ELb1EEEE5clearEv
FNDA:0,_ZNSt10_HashtableINSt7__cxx1112basic_stringIcSt11char_traitsIcESaIcEEESt4pairIKS5_St10shared_ptrIN7hare_mq8exchangeEEESaISC_ENSt8__detail10_Select1stESt8equal_toIS5_ESt4hashIS5_ENSE_18_Mod_range_hashingENSE_20_Default_ranged_hashENSE_20_Prime_rehash_policyENSE_17_Hashtable_traitsILb1ELb0ELb1EEEE5clearEv
FN:2355,_ZNSt10_HashtableINSt7__cxx1112basic_stringIcSt11char_traitsIcESaIcEEESt4pairIKS5_St13unordered_mapIS5_St10shared_ptrIN7hare_mq7bindingEESt4hashIS5_ESt8equal_toIS5_ESaIS6_IS7_SC_EEEESaISK_ENSt8__detail10_Select1stESG_SE_NSM_18_Mod_range_hashingENSM_20_Default_ranged_hashENSM_20_Prime_rehash_policyENSM_17_Hashtable_traitsILb1ELb0ELb1EEEE9_M_rehashEmRKm
FNDA:8,_ZNSt10_HashtableINSt7__cxx1112basic_stringIcSt11char_traitsIcESaIcEEESt4pairIKS5_St13unordered_mapIS5_St10shared_ptrIN7hare_mq7bindingEESt4hashIS5_ESt8equal_toIS5_ESaIS6_IS7_SC_EEEESaISK_ENSt8__detail10_Select1stESG_SE_NSM_18_Mod_range_hashingENSM_20_Default_ranged_hashENSM_20_Prime_rehash_policyENSM_17_Hashtable_traitsILb1ELb0ELb1EEEE9_M_rehashEmRKm
FN:2355,_ZNSt10_HashtableINSt7__cxx1112basic_stringIcSt11char_traitsIcESaIcEEESt4pairIKS5_St10shared_ptrIN7hare_mq7bindingEEESaISC_ENSt8__detail10_Select1stESt8equal_toIS5_ESt4hashIS5_ENSE_18_Mod_range_hashingENSE_20_Default_ranged_hashENSE_20_Prime_rehash_policyENSE_17_Hashtable_traitsILb1ELb0ELb1EEEE9_M_rehashEmRKm
FNDA:16,_ZNSt10_HashtableINSt7__cxx1112basic_stringIcSt11char_traitsIcESaIcEEESt4pairIKS5_St10shared_ptrIN7hare_mq7bindingEEESaISC_ENSt8__detail10_Select1stESt8equal_toIS5_ESt4hashIS5_ENSE_18_Mod_range_hashingENSE_20_Default_ranged_hashENSE_20_Prime_rehash_policyENSE_17_Hashtable_traitsILb1ELb0ELb1EEEE9_M_rehashEmRKm
FN:2355,_ZNSt10_HashtableINSt7__cxx1112basic_stringIcSt11char_traitsIcESaIcEEESt4pairIKS5_St10shared_ptrIN7hare_mq13queue_messageEEESaISC_ENSt8__detail10_Select1stESt8equal_toIS5_ESt4hashIS5_ENSE_18_Mod_range_hashingENSE_20_Default_ranged_hashENSE_20_Prime_rehash_policyENSE_17_Hashtable_traitsILb1ELb0ELb1EEEE9_M_rehashEmRKm
FNDA:8,_ZNSt10_HashtableINSt7__cxx1112basic_stringIcSt11char_traitsIcESaIcEEESt4pairIKS5_St10shared_ptrIN7hare_mq13queue_messageEEESaISC_ENSt8__detail10_Select1stESt8equal_toIS5_ESt4hashIS5_ENSE_18_Mod_range_hashingENSE_20_Default_ranged_hashENSE_20_Prime_rehash_policyENSE_17_Hashtable_traitsILb1ELb0ELb1EEEE9_M_rehashEmRKm
FN:2378,_ZNSt10_HashtableINSt7__cxx1112basic_stringIcSt11char_traitsIcESaIcEEESt4pairIKS5_St10shared_ptrIN7hare_mq13queue_messageEEESaISC_ENSt8__detail10_Select1stESt8equal_toIS5_ESt4hashIS5_ENSE_18_Mod_range_hashingENSE_20_Default_ranged_hashENSE_20_Prime_rehash_policyENSE_17_Hashtable_traitsILb1ELb0ELb1EEEE13_M_rehash_auxEmSt17integral_constantIbLb1EE
FNDA:8,_ZNSt10_HashtableINSt7__cxx1112basic_stringIcSt11char_traitsIcESaIcEEESt4pairIKS5_St10shared_ptrIN7hare_mq13queue_messageEEESaISC_ENSt8__detail10_Select1stESt8equal_toIS5_ESt4hashIS5_ENSE_18_Mod_range_hashingENSE_20_Default_ranged_hashENSE_20_Prime_rehash_policyENSE_17_Hashtable_traitsILb1ELb0ELb1EEEE13_M_rehash_auxEmSt17integral_constantIbLb1EE
FN:2378,_ZNSt10_HashtableINSt7__cxx1112basic_stringIcSt11char_traitsIcESaIcEEESt4pairIKS5_St13unordered_mapIS5_St10shared_ptrIN7hare_mq7bindingEESt4hashIS5_ESt8equal_toIS5_ESaIS6_IS7_SC_EEEESaISK_ENSt8__detail10_Select1stESG_SE_NSM_18_Mod_range_hashingENSM_20_Default_ranged_hashENSM_20_Prime_rehash_policyENSM_17_Hashtable_traitsILb1ELb0ELb1EEEE13_M_rehash_auxEmSt17integral_constantIbLb1EE
FNDA:8,_ZNSt10_HashtableINSt7__cxx1112basic_stringIcSt11char_traitsIcESaIcEEESt4pairIKS5_St13unordered_mapIS5_St10shared_ptrIN7hare_mq7bindingEESt4hashIS5_ESt8equal_toIS5_ESaIS6_IS7_SC_EEEESaISK_ENSt8__detail10_Select1stESG_SE_NSM_18_Mod_range_hashingENSM_20_Default_ranged_hashENSM_20_Prime_rehash_policyENSM_17_Hashtable_traitsILb1ELb0ELb1EEEE13_M_rehash_auxEmSt17integral_constantIbLb1EE
FN:2378,_ZNSt10_HashtableINSt7__cxx1112basic_stringIcSt11char_traitsIcESaIcEEESt4pairIKS5_St10shared_ptrIN7hare_mq7bindingEEESaISC_ENSt8__detail10_Select1stESt8equal_toIS5_ESt4hashIS5_ENSE_18_Mod_range_hashingENSE_20_Default_ranged_hashENSE_20_Prime_rehash_policyENSE_17_Hashtable_traitsILb1ELb0ELb1EEEE13_M_rehash_auxEmSt17integral_constantIbLb1EE
FNDA:16,_ZNSt10_HashtableINSt7__cxx1112basic_stringIcSt11char_traitsIcESaIcEEESt4pairIKS5_St10shared_ptrIN7hare_mq7bindingEEESaISC_ENSt8__detail10_Select1stESt8equal_toIS5_ESt4hashIS5_ENSE_18_Mod_range_hashingENSE_20_Default_ranged_hashENSE_20_Prime_rehash_policyENSE_17_Hashtable_traitsILb1ELb0ELb1EEEE13_M_rehash_auxEmSt17integral_constantIbLb1EE
DA:302,40
DA:303,40
DA:304,40
DA:308,16
DA:308,16
DA:308,8
DA:407,0
DA:409,0
DA:410,0
DA:411,0
DA:414,0
DA:416,0
DA:417,0
DA:421,50
DA:422,50
DA:432,32
DA:434,32
DA:436,0
DA:437,0
DA:440,32
DA:444,50
DA:446,50
DA:449,50
DA:453,16
DA:454,16
DA:453,9
DA:454,9
DA:453,8
DA:454,8
DA:453,8
DA:454,8
DA:453,9
DA:454,9
DA:453,0
DA:454,0
DA:462,43
DA:463,0
DA:528,18
DA:621,11
DA:622,11
DA:629,1023
DA:630,1034
DA:790,8
DA:791,0
DA:794,1103
DA:795,72
DA:807,1071
DA:810,1071
DA:811,40
DA:812,1022
DA:937,0
DA:938,0
DA:1289,0
DA:1293,0
DA:1294,0
DA:1295,0
DA:1299,0
DA:1304,0
DA:1306,0
DA:1307,0
DA:1308,0
DA:1311,0
DA:1312,0
DA:1314,0
DA:1315,0
DA:1316,0
DA:1317,0
DA:1318,0
DA:1319,0
DA:1320,0
DA:1323,0
DA:1325,0
DA:1326,0
DA:1327,0
DA:1328,0
DA:1406,0
DA:1413,0
DA:1415,0
DA:1416,0
DA:1417,0
DA:1418,0
DA:1420,0
DA:1421,0
DA:1422,0
DA:1528,18
DA:1532,18
DA:1533,18
DA:1534,18
DA:1588,1023
DA:1593,1023
DA:1594,1023
DA:1595,1023
DA:1588,0
DA:1593,0
DA:1594,0
DA:1595,0
DA:1603,8
DA:1608,8
DA:1609,8
DA:1610,8
DA:1652,8
DA:1657,8
DA:1658,8
DA:1827,16
DA:1833,16
DA:1834,16
DA:1837,0
DA:1840,0
DA:1841,0
DA:1843,0
DA:1827,16
DA:1833,16
DA:1834,16
DA:1837,0
DA:1840,0
DA:1841,0
DA:1843,0
DA:1827,1039
DA:1833,1039
DA:1834,1039
DA:1837,1022
DA:1840,1022
DA:1841,1022
DA:1843,0
DA:1886,16
DA:1890,16
DA:1894,0
DA:1895,0
DA:1902,16
DA:1903,16
DA:1905,16
DA:1908,0
DA:1910,16
DA:1912,16
DA:1886,16
DA:1890,16
DA:1894,0
DA:1895,0
DA:1902,16
DA:1903,16
DA:1905,16
DA:1908,8
DA:1910,16
DA:1912,16
DA:1886,8
DA:1890,8
DA:1894,0
DA:1895,0
DA:1902,8
DA:1903,8
DA:1905,8
DA:1908,0
DA:1910,8
DA:1912,8
DA:1919,0
DA:1924,0
DA:1928,0
DA:1929,0
DA:1932,0
DA:1933,0
DA:1934,0
DA:1936,0
DA:1919,0
DA:1924,0
DA:1928,0
DA:1929,0
DA:1932,0
DA:1933,0
DA:1934,0
DA:1936,0
DA:1919,0
DA:1924,0
DA:1928,0
DA:1929,0
DA:1932,0
DA:1933,0
DA:1934,0
DA:1936,0
DA:2008,16
DA:2014,16
DA:2016,16
DA:2019,16
DA:2021,16
DA:2022,16
DA:2025,16
DA:2028,16
DA:2029,16
DA:2030,16
DA:2008,16
DA:2014,16
DA:2016,16
DA:2019,16
DA:2021,8
DA:2022,8
DA:2025,16
DA:2028,16
DA:2029,16
DA:2030,16
DA:2008,8
DA:2014,8
DA:2016,8
DA:2019,8
DA:2021,8
DA:2022,8
DA:2025,8
DA:2028,8
DA:2029,8
DA:2030,8
DA:2166,0
DA:2171,0
DA:2172,0
DA:2173,0
DA:2174,0
DA:2176,0
DA:2177,0
DA:2178,0
DA:2181,0
DA:2182,0
DA:2183,0
DA:2184,0
DA:2186,0
DA:2166,0
DA:2171,0
DA:2172,0
DA:2173,0
DA:2174,0
DA:2176,0
DA:2177,0
DA:2178,0
DA:2181,0
DA:2182,0
DA:2183,0
DA:2184,0
DA:2186,0
DA:2166,0
DA:2171,0
DA:2172,0
DA:2173,0
DA:2174,0
DA:2176,0
DA:2177,0
DA:2178,0
DA:2181,0
DA:2182,0
DA:2183,0
DA:2184,0
DA:2186,0
DA:2194,0
DA:2199,0
DA:2200,0
DA:2203,0
DA:2204,0
DA:2208,0
DA:2209,0
DA:2210,0
DA:2194,0
DA:2199,0
DA:2200,0
DA:2203,0
DA:2204,0
DA:2208,0
DA:2209,0
DA:2210,0
DA:2194,0
DA:2199,0
DA:2200,0
DA:2203,0
DA:2204,0
DA:2208,0
DA:2209,0
DA:2210,0
DA:2316,0
DA:2320,0
DA:2321,0
DA:2322,0
DA:2323,0
DA:2324,0
DA:2325,0
DA:2316,0
DA:2320,0
DA:2321,0
DA:2322,0
DA:2323,0
DA:2324,0
DA:2325,0
DA:2316,0
DA:2320,0
DA:2321,0
DA:2322,0
DA:2323,0
DA:2324,0
DA:2325,0
DA:2316,0
DA:2320,0
DA:2321,0
DA:2322,0
DA:2323,0
DA:2324,0
DA:2325,0
DA:2316,0
DA:2320,0
DA:2321,0
DA:2322,0
DA:2323,0
DA:2324,0
DA:2325,0
DA:2316,0
DA:2320,0
DA:2321,0
DA:2322,0
DA:2323,0
DA:2324,0
DA:2325,0
DA:2355,16
DA:2361,16
DA:2363,0
DA:2367,0
DA:2368,0
DA:2370,16
DA:2355,8
DA:2361,8
DA:2363,0
DA:2367,0
DA:2368,0
DA:2370,8
DA:2355,8
DA:2361,8
DA:2363,0
DA:2367,0
DA:2368,0
DA:2370,8
DA:2378,16
DA:2382,16
DA:2383,16
DA:2384,16
DA:2385,16
DA:2386,16
DA:2388,0
DA:2390,0
DA:2391,0
DA:2393,0
DA:2394,0
DA:2395,0
DA:2396,0
DA:2397,0
DA:2402,0
DA:2403,0
DA:2409,16
DA:2410,16
DA:2411,16
DA:2412,16
DA:2378,8
DA:2382,8
DA:2383,8
DA:2384,8
DA:2385,8
DA:2386,8
DA:2388,0
DA:2390,0
DA:2391,0
DA:2393,0
DA:2394,0
DA:2395,0
DA:2396,0
DA:2397,0
DA:2402,0
DA:2403,0
DA:2409,8
DA:2410,8
DA:2411,8
DA:2412,8
DA:2378,8
DA:2382,8
DA:2383,8
DA:2384,8
DA:2385,8
DA:2386,8
DA:2388,0
DA:2390,0
DA:2391,0
DA:2393,0
DA:2394,0
DA:2395,0
DA:2396,0
DA:2397,0
DA:2402,0
DA:2403,0
DA:2409,8
DA:2410,8
DA:2411,8
DA:2412,8
end_of_record
SF:/home/eric/2025MQ/MQproject/2025MQWorkSpace/src/common/exchange.hpp
DA:45,0
end_of_record
SF:/usr/include/c++/11/bits/allocated_ptr.h
FN:71,_ZNSt15__allocated_ptrISaISt23_Sp_counted_ptr_inplaceIN7hare_mq7bindingESaIS2_ELN9__gnu_cxx12_Lock_policyE2EEEED2Ev
FNDA:32,_ZNSt15__allocated_ptrISaISt23_Sp_counted_ptr_inplaceIN7hare_mq7bindingESaIS2_ELN9__gnu_cxx12_Lock_policyE2EEEED2Ev
FN:71,_ZNSt15__allocated_ptrISaISt23_Sp_counted_ptr_inplaceIN7hare_mq13queue_messageESaIS2_ELN9__gnu_cxx12_Lock_policyE2EEEED2Ev
FNDA:16,_ZNSt15__allocated_ptrISaISt23_Sp_counted_ptr_inplaceIN7hare_mq13queue_messageESaIS2_ELN9__gnu_cxx12_Lock_policyE2EEEED2Ev
FN:71,_ZNSt15__allocated_ptrISaISt23_Sp_counted_ptr_inplaceIN7hare_mq7MessageESaIS2_ELN9__gnu_cxx12_Lock_policyE2EEEED2Ev
FNDA:2014,_ZNSt15__allocated_ptrISaISt23_Sp_counted_ptr_inplaceIN7hare_mq7MessageESaIS2_ELN9__gnu_cxx12_Lock_policyE2EEEED2Ev
DA:53,1031
DA:54,2062
DA:71,32
DA:73,32
DA:74,16
DA:75,32
DA:71,16
DA:73,16
DA:74,8
DA:75,16
DA:71,2014
DA:73,2014
DA:74,1007
DA:75,2014
DA:79,1031
DA:81,1031
DA:86,1031
DA:96,1031
DA:98,1031
end_of_record
SF:/usr/include/c++/11/bits/cpp_type_traits.h
DA:560,0
DA:561,0
end_of_record
SF:/usr/include/x86_64-linux-gnu/bits/string_fortified.h
DA:26,3
DA:29,3
end_of_record
SF:/usr/include/c++/11/bits/charconv.h
FN:47,_ZNSt8__detail14__to_chars_lenImEEjT_i
FNDA:0,_ZNSt8__detail14__to_chars_lenImEEjT_i
FN:72,_ZNSt8__detail18__to_chars_10_implImEEvPcjT_
FNDA:0,_ZNSt8__detail18__to_chars_10_implImEEvPcjT_
DA:47,0
DA:52,0
DA:53,0
DA:54,0
DA:55,0
DA:56,0
DA:58,0
DA:59,0
DA:60,0
DA:61,0
DA:62,0
DA:63,0
DA:72,0
DA:83,0
DA:84,0
DA:86,0
DA:87,0
DA:88,0
DA:89,0
DA:90,0
DA:92,0
DA:94,0
DA:95,0
DA:96,0
DA:99,0
DA:100,0
end_of_record
SF:/usr/local/include/google/protobuf/metadata_lite.h
DA:116,3021
DA:117,3021
DA:118,0
DA:120,3021
DA:124,3021
DA:125,3021
DA:193,3021
DA:194,3021
DA:201,3021
DA:202,3021
end_of_record
SF:/usr/include/c++/11/ext/alloc_traits.h
DA:97,0
DA:98,0
end_of_record
SF:/usr/include/c++/11/utility
DA:178,0
DA:179,2
DA:188,1022
DA:189,1022
DA:203,2
DA:213,0
DA:223,0
DA:224,2
DA:233,1022
DA:234,1022
end_of_record
SF:/usr/include/c++/11/bits/basic_string.h
FN:237,_ZNSt7__cxx1112basic_stringIcSt11char_traitsIcESaIcEE10_M_disposeEv
FNDA:74,_ZNSt7__cxx1112basic_stringIcSt11char_traitsIcESaIcEE10_M_disposeEv
FN:354,_ZNSt7__cxx1112basic_stringIcSt11char_traitsIcESaIcEE7_S_copyEPcPKcm
FNDA:26,_ZNSt7__cxx1112basic_stringIcSt11char_traitsIcESaIcEE7_S_copyEPcPKcm
FN:372,_ZNSt7__cxx1112basic_stringIcSt11char_traitsIcESaIcEE9_S_assignEPcmc
FNDA:0,_ZNSt7__cxx1112basic_stringIcSt11char_traitsIcESaIcEE9_S_assignEPcmc
FN:456,_ZNSt7__cxx1112basic_stringIcSt11char_traitsIcESaIcEEC2ERKS4_
FNDA:0,_ZNSt7__cxx1112basic_stringIcSt11char_traitsIcESaIcEEC2ERKS4_
FN:484,_ZNSt7__cxx1112basic_stringIcSt11char_traitsIcESaIcEEC2ERKS4_mm
FNDA:0,_ZNSt7__cxx1112basic_stringIcSt11char_traitsIcESaIcEEC2ERKS4_mm
FN:533,_ZNSt7__cxx1112basic_stringIcSt11char_traitsIcESaIcEEC2IS3_EEPKcRKS3_
FNDA:26,_ZNSt7__cxx1112basic_stringIcSt11char_traitsIcESaIcEEC2IS3_EEPKcRKS3_
FN:2854,_ZNKSt7__cxx1112basic_stringIcSt11char_traitsIcESaIcEE6substrEmm
FNDA:0,_ZNKSt7__cxx1112basic_stringIcSt11char_traitsIcESaIcEE6substrEmm
FN:6234,_ZSteqIcEN9__gnu_cxx11__enable_ifIXsrSt9__is_charIT_E7__valueEbE6__typeERKNSt7__cxx1112basic_stringIS3_St11char_traitsIS3_ESaIS3_EEESE_
FNDA:2030,_ZSteqIcEN9__gnu_cxx11__enable_ifIXsrSt9__is_charIT_E7__valueEbE6__typeERKNSt7__cxx1112basic_stringIS3_St11char_traitsIS3_ESaIS3_EEESE_
FN:6690,_ZNSt7__cxx119to_stringEm
FNDA:0,_ZNSt7__cxx119to_stringEm
DA:158,26
DA:164,26
DA:165,26
DA:167,1
DA:168,1
DA:186,0
DA:187,0
DA:190,27
DA:191,27
DA:194,3227
DA:195,26
DA:198,27
DA:201,1
DA:208,74
DA:211,74
DA:218,0
DA:219,0
DA:222,27
DA:224,27
DA:225,1
DA:229,74
DA:230,74
DA:237,74
DA:239,74
DA:240,74
DA:241,74
DA:244,0
DA:245,0
DA:251,0
DA:255,0
DA:271,0
DA:274,0
DA:294,0
DA:295,0
DA:298,0
DA:299,0
DA:318,0
DA:320,0
DA:321,0
DA:337,0
DA:339,0
DA:354,26
DA:356,26
DA:357,26
DA:359,26
DA:360,26
DA:372,0
DA:374,0
DA:375,0
DA:377,0
DA:378,0
DA:400,0
DA:401,0
DA:404,26
DA:406,26
DA:409,0
DA:411,0
DA:413,0
DA:415,0
DA:418,0
DA:439,1
DA:441,1
DA:442,1
DA:456,0
DA:457,0
DA:458,0
DA:459,0
DA:484,0
DA:486,0
DA:488,0
DA:489,0
DA:490,0
DA:491,0
DA:533,26
DA:534,26
DA:536,26
DA:539,26
DA:540,26
DA:553,0
DA:554,0
DA:555,0
DA:671,0
DA:672,26
DA:920,3051
DA:921,0
DA:926,1071
DA:927,0
DA:1023,1020
DA:1024,1020
DA:1055,0
DA:1059,0
DA:1062,0
DA:2320,1
DA:2321,1
DA:2332,3100
DA:2333,3100
DA:2854,0
DA:2856,0
DA:6234,2030
DA:6236,2030
DA:6237,2030
DA:6238,2030
DA:6248,0
DA:6250,0
DA:6690,0
DA:6692,0
DA:6693,0
DA:6694,0
DA:6875,1071
DA:6876,1071
end_of_record
SF:/usr/include/c++/11/bits/stl_algobase.h
FN:400,_ZNSt11__copy_moveILb1ELb0ESt26random_access_iterator_tagE8__copy_mIPSt10shared_ptrIN7hare_mq7MessageEES7_EET0_T_S9_S8_
FNDA:0,_ZNSt11__copy_moveILb1ELb0ESt26random_access_iterator_tagE8__copy_mIPSt10shared_ptrIN7hare_mq7MessageEES7_EET0_T_S9_S8_
FN:527,_ZSt13__copy_move_aILb1ESt15_Deque_iteratorISt10shared_ptrIN7hare_mq7MessageEERS4_PS4_ES7_ET1_T0_S9_S8_
FNDA:0,_ZSt13__copy_move_aILb1ESt15_Deque_iteratorISt10shared_ptrIN7hare_mq7MessageEERS4_PS4_ES7_ET1_T0_S9_S8_
FN:611,_ZSt4copyIPPSt10shared_ptrIN7hare_mq7MessageEES5_ET0_T_S7_S6_
FNDA:3,_ZSt4copyIPPSt10shared_ptrIN7hare_mq7MessageEES5_ET0_T_S7_S6_
FN:644,_ZSt4moveISt15_Deque_iteratorISt10shared_ptrIN7hare_mq7MessageEERS4_PS4_ES7_ET0_T_S9_S8_
FNDA:0,_ZSt4moveISt15_Deque_iteratorISt10shared_ptrIN7hare_mq7MessageEERS4_PS4_ES7_ET0_T_S9_S8_
FN:714,_ZNSt20__copy_move_backwardILb1ELb0ESt26random_access_iterator_tagE13__copy_move_bIPSt10shared_ptrIN7hare_mq7MessageEES7_EET0_T_S9_S8_
FNDA:0,_ZNSt20__copy_move_backwardILb1ELb0ESt26random_access_iterator_tagE13__copy_move_bIPSt10shared_ptrIN7hare_mq7MessageEES7_EET0_T_S9_S8_
FN:731,_ZNSt20__copy_move_backwardILb0ELb1ESt26random_access_iterator_tagE13__copy_move_bIPSt10shared_ptrIN7hare_mq7MessageEEEEPT_PKS8_SB_S9_
FNDA:0,_ZNSt20__copy_move_backwardILb0ELb1ESt26random_access_iterator_tagE13__copy_move_bIPSt10shared_ptrIN7hare_mq7MessageEEEEPT_PKS8_SB_S9_
FN:796,_ZSt22__copy_move_backward_aILb1ESt15_Deque_iteratorISt10shared_ptrIN7hare_mq7MessageEERS4_PS4_ES7_ET1_T0_S9_S8_
FNDA:0,_ZSt22__copy_move_backward_aILb1ESt15_Deque_iteratorISt10shared_ptrIN7hare_mq7MessageEERS4_PS4_ES7_ET1_T0_S9_S8_
FN:884,_ZSt13move_backwardISt15_Deque_iteratorISt10shared_ptrIN7hare_mq7MessageEERS4_PS4_ES7_ET0_T_S9_S8_
FNDA:0,_ZSt13move_backwardISt15_Deque_iteratorISt10shared_ptrIN7hare_mq7MessageEERS4_PS4_ES7_ET0_T_S9_S8_
FN:2061,_ZSt9__find_ifISt15_Deque_iteratorISt10shared_ptrIN7hare_mq7MessageEERS4_PS4_EN9__gnu_cxx5__ops10_Iter_predIZNS2_13queue_message6removeERKNSt7__cxx1112basic_stringIcSt11char_traitsIcESaIcEEEEUlRKS4_E_EEET_SO_SO_T0_St26random_access_iterator_tag
FNDA:0,_ZSt9__find_ifISt15_Deque_iteratorISt10shared_ptrIN7hare_mq7MessageEERS4_PS4_EN9__gnu_cxx5__ops10_Iter_predIZNS2_13queue_message6removeERKNSt7__cxx1112basic_stringIcSt11char_traitsIcESaIcEEEEUlRKS4_E_EEET_SO_SO_T0_St26random_access_iterator_tag
FN:2112,_ZSt9__find_ifISt15_Deque_iteratorISt10shared_ptrIN7hare_mq7MessageEERS4_PS4_EN9__gnu_cxx5__ops10_Iter_predIZNS2_13queue_message6removeERKNSt7__cxx1112basic_stringIcSt11char_traitsIcESaIcEEEEUlRKS4_E_EEET_SO_SO_T0_
FNDA:0,_ZSt9__find_ifISt15_Deque_iteratorISt10shared_ptrIN7hare_mq7MessageEERS4_PS4_EN9__gnu_cxx5__ops10_Iter_predIZNS2_13queue_message6removeERKNSt7__cxx1112basic_stringIcSt11char_traitsIcESaIcEEEEUlRKS4_E_EEET_SO_SO_T0_
DA:230,0
DA:235,0
DA:236,0
DA:254,11
DA:259,11
DA:260,0
DA:313,0
DA:315,0
DA:335,0
DA:336,0
DA:400,0
DA:403,0
DA:405,0
DA:406,0
DA:407,0
DA:409,0
DA:420,3
DA:429,3
DA:430,3
DA:431,3
DA:432,3
DA:486,3
DA:495,3
DA:521,0
DA:522,0
DA:527,0
DA:529,6
DA:532,0
DA:611,3
DA:620,3
DA:644,0
DA:653,0
DA:714,0
DA:717,0
DA:718,0
DA:719,0
DA:720,0
DA:731,0
DA:740,0
DA:741,0
DA:742,0
DA:743,0
DA:750,0
DA:760,0
DA:768,0
DA:769,0
DA:796,0
DA:798,0
DA:801,0
DA:848,0
DA:859,0
DA:884,0
DA:896,0
DA:2061,0
DA:2065,0
DA:2067,0
DA:2069,0
DA:2070,0
DA:2071,0
DA:2073,0
DA:2074,0
DA:2075,0
DA:2077,0
DA:2078,0
DA:2079,0
DA:2081,0
DA:2082,0
DA:2083,0
DA:2086,0
DA:2088,0
DA:2089,0
DA:2090,0
DA:2091,0
DA:2093,0
DA:2094,0
DA:2095,0
DA:2096,0
DA:2098,0
DA:2099,0
DA:2100,0
DA:2101,0
DA:2103,0
DA:2105,0
DA:2112,0
DA:2115,0
end_of_record
SF:/usr/include/c++/11/bits/basic_string.tcc
FN:132,_ZNSt7__cxx1112basic_stringIcSt11char_traitsIcESaIcEE9_M_createERmm
FNDA:0,_ZNSt7__cxx1112basic_stringIcSt11char_traitsIcESaIcEE9_M_createERmm
FN:206,_ZNSt7__cxx1112basic_stringIcSt11char_traitsIcESaIcEE12_M_constructIPcEEvT_S7_St20forward_iterator_tag
FNDA:0,_ZNSt7__cxx1112basic_stringIcSt11char_traitsIcESaIcEE12_M_constructIPcEEvT_S7_St20forward_iterator_tag
FN:206,_ZNSt7__cxx1112basic_stringIcSt11char_traitsIcESaIcEE12_M_constructIPKcEEvT_S8_St20forward_iterator_tag
FNDA:26,_ZNSt7__cxx1112basic_stringIcSt11char_traitsIcESaIcEE12_M_constructIPKcEEvT_S8_St20forward_iterator_tag
FN:237,_ZNSt7__cxx1112basic_stringIcSt11char_traitsIcESaIcEE12_M_constructEmc
FNDA:0,_ZNSt7__cxx1112basic_stringIcSt11char_traitsIcESaIcEE12_M_constructEmc
FN:1243,_ZNKSt7__cxx1112basic_stringIcSt11char_traitsIcESaIcEE4findEcm
FNDA:0,_ZNKSt7__cxx1112basic_stringIcSt11char_traitsIcESaIcEE4findEcm
FN:1437,_ZNKSt7__cxx1112basic_stringIcSt11char_traitsIcESaIcEE7compareEPKc
FNDA:0,_ZNKSt7__cxx1112basic_stringIcSt11char_traitsIcESaIcEE7compareEPKc
DA:132,0
DA:137,0
DA:138,0
DA:143,0
DA:145,0
DA:147,0
DA:148,0
DA:153,0
DA:206,0
DA:211,0
DA:212,0
DA:215,0
DA:217,0
DA:219,0
DA:220,0
DA:225,0
DA:232,0
DA:233,0
DA:206,26
DA:211,26
DA:212,0
DA:215,26
DA:217,26
DA:219,0
DA:220,26
DA:225,26
DA:232,26
DA:233,26
DA:237,0
DA:240,0
DA:242,0
DA:243,0
DA:246,0
DA:247,0
DA:249,0
DA:250,0
DA:1243,0
DA:1246,0
DA:1247,0
DA:1248,0
DA:1250,0
DA:1251,0
DA:1252,0
DA:1253,0
DA:1254,0
DA:1256,0
DA:1437,0
DA:1441,0
DA:1442,0
DA:1443,0
DA:1444,0
DA:1445,0
DA:1446,0
DA:1447,0
end_of_record
SF:/usr/local/include/google/protobuf/arenastring.h
DA:182,1018
DA:183,2026
DA:203,1018
DA:288,1018
DA:290,1018
end_of_record
SF:/usr/include/c++/11/typeinfo
FN:120,_ZNKSt9type_infoeqERKS_
FNDA:0,_ZNKSt9type_infoeqERKS_
DA:120,0
DA:122,0
DA:123,0
DA:124,0
end_of_record
SF:/home/eric/2025MQ/MQproject/2025MQWorkSpace/src/common/binding.hpp
FN:18,_ZN7hare_mq7bindingC2ERKNSt7__cxx1112basic_stringIcSt11char_traitsIcESaIcEEES8_S8_
FNDA:16,_ZN7hare_mq7bindingC2ERKNSt7__cxx1112basic_stringIcSt11char_traitsIcESaIcEEES8_S8_
DA:18,16
DA:21,16
end_of_record
SF:/usr/include/c++/11/bits/hashtable_policy.h
FN:696,_ZNSt8__detail9_Map_baseINSt7__cxx1112basic_stringIcSt11char_traitsIcESaIcEEESt4pairIKS6_St10shared_ptrIN7hare_mq7bindingEEESaISD_ENS_10_Select1stESt8equal_toIS6_ESt4hashIS6_ENS_18_Mod_range_hashingENS_20_Default_ranged_hashENS_20_Prime_rehash_policyENS_17_Hashtable_traitsILb1ELb0ELb1EEELb1EEixERS8_
FNDA:16,_ZNSt8__detail9_Map_baseINSt7__cxx1112basic_stringIcSt11char_traitsIcESaIcEEESt4pairIKS6_St10shared_ptrIN7hare_mq7bindingEEESaISD_ENS_10_Select1stESt8equal_toIS6_ESt4hashIS6_ENS_18_Mod_range_hashingENS_20_Default_ranged_hashENS_20_Prime_rehash_policyENS_17_Hashtable_traitsILb1ELb0ELb1EEELb1EEixERS8_
FN:696,_ZNSt8__detail9_Map_baseINSt7__cxx1112basic_stringIcSt11char_traitsIcESaIcEEESt4pairIKS6_St13unordered_mapIS6_St10shared_ptrIN7hare_mq7bindingEESt4hashIS6_ESt8equal_toIS6_ESaIS7_IS8_SD_EEEESaISL_ENS_10_Select1stESH_SF_NS_18_Mod_range_hashingENS_20_Default_ranged_hashENS_20_Prime_rehash_policyENS_17_Hashtable_traitsILb1ELb0ELb1EEELb1EEixERS8_
FNDA:16,_ZNSt8__detail9_Map_baseINSt7__cxx1112basic_stringIcSt11char_traitsIcESaIcEEESt4pairIKS6_St13unordered_mapIS6_St10shared_ptrIN7hare_mq7bindingEESt4hashIS6_ESt8equal_toIS6_ESaIS7_IS8_SD_EEEESaISL_ENS_10_Select1stESH_SF_NS_18_Mod_range_hashingENS_20_Default_ranged_hashENS_20_Prime_rehash_policyENS_17_Hashtable_traitsILb1ELb0ELb1EEELb1EEixERS8_
FN:696,_ZNSt8__detail9_Map_baseINSt7__cxx1112basic_stringIcSt11char_traitsIcESaIcEEESt4pairIKS6_St10shared_ptrIN7hare_mq13queue_messageEEESaISD_ENS_10_Select1stESt8equal_toIS6_ESt4hashIS6_ENS_18_Mod_range_hashingENS_20_Default_ranged_hashENS_20_Prime_rehash_policyENS_17_Hashtable_traitsILb1ELb0ELb1EEELb1EEixERS8_
FNDA:8,_ZNSt8__detail9_Map_baseINSt7__cxx1112basic_stringIcSt11char_traitsIcESaIcEEESt4pairIKS6_St10shared_ptrIN7hare_mq13queue_messageEEESaISD_ENS_10_Select1stESt8equal_toIS6_ESt4hashIS6_ENS_18_Mod_range_hashingENS_20_Default_ranged_hashENS_20_Prime_rehash_policyENS_17_Hashtable_traitsILb1ELb0ELb1EEELb1EEixERS8_
FN:1870,_ZNSt8__detail16_Hashtable_allocISaINS_10_Hash_nodeISt4pairIKNSt7__cxx1112basic_stringIcSt11char_traitsIcESaIcEEESt10shared_ptrIN7hare_mq7bindingEEELb1EEEEE16_M_allocate_nodeIJRKSE_EEEPSF_DpOT_
FNDA:0,_ZNSt8__detail16_Hashtable_allocISaINS_10_Hash_nodeISt4pairIKNSt7__cxx1112basic_stringIcSt11char_traitsIcESaIcEEESt10shared_ptrIN7hare_mq7bindingEEELb1EEEEE16_M_allocate_nodeIJRKSE_EEEPSF_DpOT_
FN:1870,_ZNSt8__detail16_Hashtable_allocISaINS_10_Hash_nodeISt4pairIKNSt7__cxx1112basic_stringIcSt11char_traitsIcESaIcEEESt10shared_ptrIN7hare_mq7bindingEEELb1EEEEE16_M_allocate_nodeIJRKSt21piecewise_construct_tSt5tupleIJRS9_EESM_IJEEEEEPSF_DpOT_
FNDA:16,_ZNSt8__detail16_Hashtable_allocISaINS_10_Hash_nodeISt4pairIKNSt7__cxx1112basic_stringIcSt11char_traitsIcESaIcEEESt10shared_ptrIN7hare_mq7bindingEEELb1EEEEE16_M_allocate_nodeIJRKSt21piecewise_construct_tSt5tupleIJRS9_EESM_IJEEEEEPSF_DpOT_
FN:1870,_ZNSt8__detail16_Hashtable_allocISaINS_10_Hash_nodeISt4pairIKNSt7__cxx1112basic_stringIcSt11char_traitsIcESaIcEEESt13unordered_mapIS8_St10shared_ptrIN7hare_mq7bindingEESt4hashIS8_ESt8equal_toIS8_ESaIS2_IS9_SE_EEEELb1EEEEE16_M_allocate_nodeIJRKSt21piecewise_construct_tSt5tupleIJRS9_EESU_IJEEEEEPSN_DpOT_
FNDA:16,_ZNSt8__detail16_Hashtable_allocISaINS_10_Hash_nodeISt4pairIKNSt7__cxx1112basic_stringIcSt11char_traitsIcESaIcEEESt13unordered_mapIS8_St10shared_ptrIN7hare_mq7bindingEESt4hashIS8_ESt8equal_toIS8_ESaIS2_IS9_SE_EEEELb1EEEEE16_M_allocate_nodeIJRKSt21piecewise_construct_tSt5tupleIJRS9_EESU_IJEEEEEPSN_DpOT_
FN:1870,_ZNSt8__detail16_Hashtable_allocISaINS_10_Hash_nodeISt4pairIKNSt7__cxx1112basic_stringIcSt11char_traitsIcESaIcEEESt10shared_ptrIN7hare_mq13queue_messageEEELb1EEEEE16_M_allocate_nodeIJRKSt21piecewise_construct_tSt5tupleIJRS9_EESM_IJEEEEEPSF_DpOT_
FNDA:8,_ZNSt8__detail16_Hashtable_allocISaINS_10_Hash_nodeISt4pairIKNSt7__cxx1112basic_stringIcSt11char_traitsIcESaIcEEESt10shared_ptrIN7hare_mq13queue_messageEEELb1EEEEE16_M_allocate_nodeIJRKSt21piecewise_construct_tSt5tupleIJRS9_EESM_IJEEEEEPSF_DpOT_
FN:1892,_ZNSt8__detail16_Hashtable_allocISaINS_10_Hash_nodeISt4pairIKNSt7__cxx1112basic_stringIcSt11char_traitsIcESaIcEEESt10shared_ptrIN7hare_mq7bindingEEELb1EEEEE18_M_deallocate_nodeEPSF_
FNDA:0,_ZNSt8__detail16_Hashtable_allocISaINS_10_Hash_nodeISt4pairIKNSt7__cxx1112basic_stringIcSt11char_traitsIcESaIcEEESt10shared_ptrIN7hare_mq7bindingEEELb1EEEEE18_M_deallocate_nodeEPSF_
FN:1892,_ZNSt8__detail16_Hashtable_allocISaINS_10_Hash_nodeISt4pairIKNSt7__cxx1112basic_stringIcSt11char_traitsIcESaIcEEES8_ELb1EEEEE18_M_deallocate_nodeEPSB_
FNDA:0,_ZNSt8__detail16_Hashtable_allocISaINS_10_Hash_nodeISt4pairIKNSt7__cxx1112basic_stringIcSt11char_traitsIcESaIcEEES8_ELb1EEEEE18_M_deallocate_nodeEPSB_
FN:1892,_ZNSt8__detail16_Hashtable_allocISaINS_10_Hash_nodeISt4pairIKNSt7__cxx1112basic_stringIcSt11char_traitsIcESaIcEEESt10shared_ptrIN7hare_mq13queue_messageEEELb1EEEEE18_M_deallocate_nodeEPSF_
FNDA:0,_ZNSt8__detail16_Hashtable_allocISaINS_10_Hash_nodeISt4pairIKNSt7__cxx1112basic_stringIcSt11char_traitsIcESaIcEEESt10shared_ptrIN7hare_mq13queue_messageEEELb1EEEEE18_M_deallocate_nodeEPSF_
FN:1892,_ZNSt8__detail16_Hashtable_allocISaINS_10_Hash_nodeISt4pairIKNSt7__cxx1112basic_stringIcSt11char_traitsIcESaIcEEESt13unordered_mapIS8_St10shared_ptrIN7hare_mq7bindingEESt4hashIS8_ESt8equal_toIS8_ESaIS2_IS9_SE_EEEELb1EEEEE18_M_deallocate_nodeEPSN_
FNDA:0,_ZNSt8__detail16_Hashtable_allocISaINS_10_Hash_nodeISt4pairIKNSt7__cxx1112basic_stringIcSt11char_traitsIcESaIcEEESt13unordered_mapIS8_St10shared_ptrIN7hare_mq7bindingEESt4hashIS8_ESt8equal_toIS8_ESaIS2_IS9_SE_EEEELb1EEEEE18_M_deallocate_nodeEPSN_
FN:1892,_ZNSt8__detail16_Hashtable_allocISaINS_10_Hash_nodeISt4pairIKNSt7__cxx1112basic_stringIcSt11char_traitsIcESaIcEEESt10shared_ptrIN7hare_mq9msg_queueEEELb1EEEEE18_M_deallocate_nodeEPSF_
FNDA:0,_ZNSt8__detail16_Hashtable_allocISaINS_10_Hash_nodeISt4pairIKNSt7__cxx1112basic_stringIcSt11char_traitsIcESaIcEEESt10shared_ptrIN7hare_mq9msg_queueEEELb1EEEEE18_M_deallocate_nodeEPSF_
FN:1892,_ZNSt8__detail16_Hashtable_allocISaINS_10_Hash_nodeISt4pairIKNSt7__cxx1112basic_stringIcSt11char_traitsIcESaIcEEESt10shared_ptrIN7hare_mq8exchangeEEELb1EEEEE18_M_deallocate_nodeEPSF_
FNDA:0,_ZNSt8__detail16_Hashtable_allocISaINS_10_Hash_nodeISt4pairIKNSt7__cxx1112basic_stringIcSt11char_traitsIcESaIcEEESt10shared_ptrIN7hare_mq8exchangeEEELb1EEEEE18_M_deallocate_nodeEPSF_
FN:1922,_ZNSt8__detail16_Hashtable_allocISaINS_10_Hash_nodeISt4pairIKNSt7__cxx1112basic_stringIcSt11char_traitsIcESaIcEEESt13unordered_mapIS8_St10shared_ptrIN7hare_mq7bindingEESt4hashIS8_ESt8equal_toIS8_ESaIS2_IS9_SE_EEEELb1EEEEE19_M_allocate_bucketsEm
FNDA:8,_ZNSt8__detail16_Hashtable_allocISaINS_10_Hash_nodeISt4pairIKNSt7__cxx1112basic_stringIcSt11char_traitsIcESaIcEEESt13unordered_mapIS8_St10shared_ptrIN7hare_mq7bindingEESt4hashIS8_ESt8equal_toIS8_ESaIS2_IS9_SE_EEEELb1EEEEE19_M_allocate_bucketsEm
FN:1922,_ZNSt8__detail16_Hashtable_allocISaINS_10_Hash_nodeISt4pairIKNSt7__cxx1112basic_stringIcSt11char_traitsIcESaIcEEESt10shared_ptrIN7hare_mq13queue_messageEEELb1EEEEE19_M_allocate_bucketsEm
FNDA:8,_ZNSt8__detail16_Hashtable_allocISaINS_10_Hash_nodeISt4pairIKNSt7__cxx1112basic_stringIcSt11char_traitsIcESaIcEEESt10shared_ptrIN7hare_mq13queue_messageEEELb1EEEEE19_M_allocate_bucketsEm
FN:1922,_ZNSt8__detail16_Hashtable_allocISaINS_10_Hash_nodeISt4pairIKNSt7__cxx1112basic_stringIcSt11char_traitsIcESaIcEEESt10shared_ptrIN7hare_mq7bindingEEELb1EEEEE19_M_allocate_bucketsEm
FNDA:16,_ZNSt8__detail16_Hashtable_allocISaINS_10_Hash_nodeISt4pairIKNSt7__cxx1112basic_stringIcSt11char_traitsIcESaIcEEESt10shared_ptrIN7hare_mq7bindingEEELb1EEEEE19_M_allocate_bucketsEm
DA:93,1022
DA:95,1022
DA:162,0
DA:163,0
DA:167,0
DA:168,0
DA:219,0
DA:237,16
DA:238,1111
DA:242,1022
DA:245,0
DA:246,2
DA:277,40
DA:282,1
DA:283,0
DA:295,2105
DA:296,0
DA:299,1
DA:300,1
DA:303,9
DA:338,2097
DA:339,1034
DA:342,0
DA:343,2
DA:346,40
DA:347,1029
DA:350,1
DA:352,1
DA:353,1
DA:385,8
DA:386,8
DA:428,1111
DA:430,1111
DA:446,34
DA:447,18
DA:473,40
DA:474,40
DA:481,0
DA:482,0
DA:696,16
DA:701,16
DA:702,16
DA:703,16
DA:704,0
DA:705,0
DA:707,16
DA:710,16
DA:711,16
DA:714,16
DA:715,16
DA:716,16
DA:717,16
DA:696,16
DA:701,16
DA:702,16
DA:703,16
DA:704,0
DA:705,0
DA:707,16
DA:710,16
DA:711,16
DA:714,16
DA:715,16
DA:716,16
DA:717,16
DA:696,8
DA:701,8
DA:702,8
DA:703,8
DA:704,0
DA:705,0
DA:707,8
DA:710,8
DA:711,8
DA:714,8
DA:715,8
DA:716,8
DA:717,8
DA:1124,18
DA:1127,34
DA:1130,0
DA:1131,0
DA:1210,34
DA:1215,1071
DA:1219,1071
DA:1232,1103
DA:1233,1103
DA:1247,8
DA:1251,8
DA:1263,40
DA:1264,40
DA:1267,0
DA:1269,0
DA:1595,1022
DA:1596,1022
DA:1604,34
DA:1611,1022
DA:1617,1022
DA:1802,18
DA:1823,18
DA:1828,0
DA:1829,0
DA:1837,0
DA:1870,0
DA:1873,0
DA:1874,0
DA:1877,0
DA:1878,0
DA:1881,0
DA:1883,0
DA:1885,0
DA:1886,0
DA:1870,16
DA:1873,16
DA:1874,16
DA:1877,16
DA:1878,16
DA:1881,16
DA:1883,0
DA:1885,0
DA:1886,0
DA:1870,16
DA:1873,16
DA:1874,16
DA:1877,16
DA:1878,16
DA:1881,16
DA:1883,0
DA:1885,0
DA:1886,0
DA:1870,8
DA:1873,8
DA:1874,8
DA:1877,8
DA:1878,8
DA:1881,8
DA:1883,0
DA:1885,0
DA:1886,0
DA:1892,0
DA:1894,0
DA:1895,0
DA:1896,0
DA:1892,0
DA:1894,0
DA:1895,0
DA:1896,0
DA:1892,0
DA:1894,0
DA:1895,0
DA:1896,0
DA:1892,0
DA:1894,0
DA:1895,0
DA:1896,0
DA:1892,0
DA:1894,0
DA:1895,0
DA:1896,0
DA:1892,0
DA:1894,0
DA:1895,0
DA:1896,0
DA:1900,0
DA:1903,0
DA:1904,0
DA:1905,0
DA:1910,0
DA:1912,0
DA:1914,0
DA:1915,0
DA:1916,0
DA:1922,8
DA:1925,8
DA:1927,8
DA:1928,8
DA:1929,8
DA:1930,8
DA:1922,8
DA:1925,8
DA:1927,8
DA:1928,8
DA:1929,8
DA:1930,8
DA:1922,16
DA:1925,16
DA:1927,16
DA:1928,16
DA:1929,16
DA:1930,16
DA:1935,0
DA:1940,0
DA:1941,0
DA:1942,0
DA:1943,0
end_of_record
SF:/usr/include/c++/11/bits/move.h
DA:49,2062
DA:77,128
DA:104,988
DA:196,24
DA:204,24
DA:206,24
end_of_record
SF:/usr/include/c++/11/bits/deque.tcc
FN:164,_ZNSt5dequeISt10shared_ptrIN7hare_mq7MessageEESaIS3_EE12emplace_backIJS3_EEERS3_DpOT_
FNDA:1007,_ZNSt5dequeISt10shared_ptrIN7hare_mq7MessageEESaIS3_EE12emplace_backIJS3_EEERS3_DpOT_
FN:258,_ZNSt5dequeISt10shared_ptrIN7hare_mq7MessageEESaIS3_EE8_M_eraseESt15_Deque_iteratorIS3_RS3_PS3_ES9_
FNDA:0,_ZNSt5dequeISt10shared_ptrIN7hare_mq7MessageEESaIS3_EE8_M_eraseESt15_Deque_iteratorIS3_RS3_PS3_ES9_
FN:484,_ZNSt5dequeISt10shared_ptrIN7hare_mq7MessageEESaIS3_EE16_M_push_back_auxIJS3_EEEvDpOT_
FNDA:31,_ZNSt5dequeISt10shared_ptrIN7hare_mq7MessageEESaIS3_EE16_M_push_back_auxIJS3_EEEvDpOT_
FN:576,_ZNSt5dequeISt10shared_ptrIN7hare_mq7MessageEESaIS3_EE16_M_pop_front_auxEv
FNDA:0,_ZNSt5dequeISt10shared_ptrIN7hare_mq7MessageEESaIS3_EE16_M_pop_front_auxEv
FN:859,_ZNSt5dequeISt10shared_ptrIN7hare_mq7MessageEESaIS3_EE19_M_destroy_data_auxESt15_Deque_iteratorIS3_RS3_PS3_ES9_
FNDA:8,_ZNSt5dequeISt10shared_ptrIN7hare_mq7MessageEESaIS3_EE19_M_destroy_data_auxESt15_Deque_iteratorIS3_RS3_PS3_ES9_
FN:931,_ZNSt5dequeISt10shared_ptrIN7hare_mq7MessageEESaIS3_EE17_M_reallocate_mapEmb
FNDA:3,_ZNSt5dequeISt10shared_ptrIN7hare_mq7MessageEESaIS3_EE17_M_reallocate_mapEmb
FN:1003,_ZSt15__copy_move_ditILb1ESt10shared_ptrIN7hare_mq7MessageEERS3_PS3_St15_Deque_iteratorIS3_S4_S5_EET3_S6_IT0_T1_T2_ESC_S8_
FNDA:0,_ZSt15__copy_move_ditILb1ESt10shared_ptrIN7hare_mq7MessageEERS3_PS3_St15_Deque_iteratorIS3_S4_S5_EET3_S6_IT0_T1_T2_ESC_S8_
FN:1040,_ZSt14__copy_move_a1ILb1ESt10shared_ptrIN7hare_mq7MessageEERS3_PS3_S3_ESt15_Deque_iteratorIT3_RS7_PS7_ES6_IT0_T1_T2_ESE_SA_
FNDA:0,_ZSt14__copy_move_a1ILb1ESt10shared_ptrIN7hare_mq7MessageEERS3_PS3_S3_ESt15_Deque_iteratorIT3_RS7_PS7_ES6_IT0_T1_T2_ESE_SA_
FN:1049,_ZSt14__copy_move_a1ILb1EPSt10shared_ptrIN7hare_mq7MessageEES3_EN9__gnu_cxx11__enable_ifIXsrSt23__is_random_access_iterIT0_NSt15iterator_traitsIS8_E17iterator_categoryEE7__valueESt15_Deque_iteratorIT1_RSE_PSE_EE6__typeES8_S8_SH_
FNDA:0,_ZSt14__copy_move_a1ILb1EPSt10shared_ptrIN7hare_mq7MessageEES3_EN9__gnu_cxx11__enable_ifIXsrSt23__is_random_access_iterIT0_NSt15iterator_traitsIS8_E17iterator_categoryEE7__valueESt15_Deque_iteratorIT1_RSE_PSE_EE6__typeES8_S8_SH_
FN:1125,_ZSt24__copy_move_backward_ditILb1ESt10shared_ptrIN7hare_mq7MessageEERS3_PS3_St15_Deque_iteratorIS3_S4_S5_EET3_S6_IT0_T1_T2_ESC_S8_
FNDA:0,_ZSt24__copy_move_backward_ditILb1ESt10shared_ptrIN7hare_mq7MessageEERS3_PS3_St15_Deque_iteratorIS3_S4_S5_EET3_S6_IT0_T1_T2_ESC_S8_
FN:1161,_ZSt23__copy_move_backward_a1ILb1ESt10shared_ptrIN7hare_mq7MessageEERS3_PS3_S3_ESt15_Deque_iteratorIT3_RS7_PS7_ES6_IT0_T1_T2_ESE_SA_
FNDA:0,_ZSt23__copy_move_backward_a1ILb1ESt10shared_ptrIN7hare_mq7MessageEERS3_PS3_S3_ESt15_Deque_iteratorIT3_RS7_PS7_ES6_IT0_T1_T2_ESE_SA_
FN:1171,_ZSt23__copy_move_backward_a1ILb1EPSt10shared_ptrIN7hare_mq7MessageEES3_EN9__gnu_cxx11__enable_ifIXsrSt23__is_random_access_iterIT0_NSt15iterator_traitsIS8_E17iterator_categoryEE7__valueESt15_Deque_iteratorIT1_RSE_PSE_EE6__typeES8_S8_SH_
FNDA:0,_ZSt23__copy_move_backward_a1ILb1EPSt10shared_ptrIN7hare_mq7MessageEES3_EN9__gnu_cxx11__enable_ifIXsrSt23__is_random_access_iterIT0_NSt15iterator_traitsIS8_E17iterator_categoryEE7__valueESt15_Deque_iteratorIT1_RSE_PSE_EE6__typeES8_S8_SH_
DA:164,1007
DA:167,1007
DA:168,1007
DA:170,976
DA:173,976
DA:176,31
DA:178,1007
DA:258,0
DA:261,0
DA:262,0
DA:263,0
DA:265,0
DA:266,0
DA:270,0
DA:271,0
DA:272,0
DA:274,0
DA:275,0
DA:276,0
DA:280,0
DA:281,0
DA:282,0
DA:284,0
DA:484,31
DA:492,31
DA:493,0
DA:496,31
DA:497,31
DA:501,31
DA:507,31
DA:509,31
DA:516,31
DA:576,0
DA:579,0
DA:581,0
DA:582,0
DA:583,0
DA:584,0
DA:859,8
DA:862,8
DA:863,38
DA:864,30
DA:865,30
DA:867,8
DA:869,1
DA:870,1
DA:871,9
DA:872,1
DA:875,7
DA:876,7
DA:877,8
DA:931,3
DA:934,3
DA:935,3
DA:936,3
DA:939,3
DA:941,0
DA:942,0
DA:943,0
DA:944,0
DA:945,0
DA:949,0
DA:955,3
DA:956,3
DA:959,3
DA:960,6
DA:961,3
DA:962,3
DA:963,3
DA:965,3
DA:967,3
DA:968,3
DA:971,3
DA:972,3
DA:973,3
DA:1003,0
DA:1008,0
DA:1010,0
DA:1014,0
DA:1015,0
DA:1016,0
DA:1022,0
DA:1026,0
DA:1040,0
DA:1043,0
DA:1049,0
DA:1055,0
DA:1056,0
DA:1058,0
DA:1059,0
DA:1060,0
DA:1063,0
DA:1064,0
DA:1065,0
DA:1068,0
DA:1125,0
DA:1131,0
DA:1133,0
DA:1136,0
DA:1137,0
DA:1138,0
DA:1142,0
DA:1146,0
DA:1161,0
DA:1165,0
DA:1171,0
DA:1177,0
DA:1178,0
DA:1180,0
DA:1181,0
DA:1182,0
DA:1184,0
DA:1185,0
DA:1188,0
DA:1189,0
DA:1191,0
DA:1192,0
DA:1193,0
DA:1196,0
end_of_record
SF:/usr/include/c++/11/bits/char_traits.h
DA:356,27
DA:357,1
DA:372,2029
DA:374,2029
DA:377,2029
DA:389,2029
DA:393,26
DA:396,26
DA:399,26
DA:403,0
DA:405,0
DA:408,0
DA:413,0
DA:429,26
DA:431,26
DA:434,0
DA:437,0
DA:441,0
DA:443,0
DA:446,0
DA:449,0
end_of_record
SF:/usr/include/c++/11/bits/shared_ptr.h
FN:408,_ZNSt10shared_ptrIN7hare_mq7bindingEEC2ISaIS1_EJRKNSt7__cxx1112basic_stringIcSt11char_traitsIcESaIcEEESC_SC_EEESt20_Sp_alloc_shared_tagIT_EDpOT0_
FNDA:16,_ZNSt10shared_ptrIN7hare_mq7bindingEEC2ISaIS1_EJRKNSt7__cxx1112basic_stringIcSt11char_traitsIcESaIcEEESC_SC_EEESt20_Sp_alloc_shared_tagIT_EDpOT0_
FN:408,_ZNSt10shared_ptrIN7hare_mq13queue_messageEEC2ISaIS1_EJRNSt7__cxx1112basic_stringIcSt11char_traitsIcESaIcEEERKSA_EEESt20_Sp_alloc_shared_tagIT_EDpOT0_
FNDA:8,_ZNSt10shared_ptrIN7hare_mq13queue_messageEEC2ISaIS1_EJRNSt7__cxx1112basic_stringIcSt11char_traitsIcESaIcEEERKSA_EEESt20_Sp_alloc_shared_tagIT_EDpOT0_
FN:408,_ZNSt10shared_ptrIN7hare_mq7MessageEEC2ISaIS1_EJEEESt20_Sp_alloc_shared_tagIT_EDpOT0_
FNDA:1007,_ZNSt10shared_ptrIN7hare_mq7MessageEEC2ISaIS1_EJEEESt20_Sp_alloc_shared_tagIT_EDpOT0_
DA:122,5072
DA:148,24
DA:150,9
DA:304,1018
DA:305,987
DA:357,3
DA:383,24
DA:385,24
DA:408,16
DA:409,16
DA:410,16
DA:408,8
DA:409,8
DA:410,8
DA:408,1007
DA:409,1007
DA:410,1007
DA:858,1031
DA:863,1031
DA:875,1007
DA:878,1031
DA:879,1031
end_of_record
SF:/usr/include/c++/11/bits/predefined_ops.h
DA:310,0
DA:311,0
DA:317,0
DA:318,0
DA:324,0
DA:325,0
end_of_record
SF:/usr/include/c++/11/bits/stl_deque.h
FN:188,_ZNSt15_Deque_iteratorISt10shared_ptrIN7hare_mq7MessageEERS3_PS3_EppEv
FNDA:0,_ZNSt15_Deque_iteratorISt10shared_ptrIN7hare_mq7MessageEERS3_PS3_EppEv
FN:208,_ZNSt15_Deque_iteratorISt10shared_ptrIN7hare_mq7MessageEERS3_PS3_EmmEv
FNDA:1007,_ZNSt15_Deque_iteratorISt10shared_ptrIN7hare_mq7MessageEERS3_PS3_EmmEv
FN:228,_ZNSt15_Deque_iteratorISt10shared_ptrIN7hare_mq7MessageEERS3_PS3_EpLEl
FNDA:0,_ZNSt15_Deque_iteratorISt10shared_ptrIN7hare_mq7MessageEERS3_PS3_EpLEl
FN:353,_ZStmiRKSt15_Deque_iteratorISt10shared_ptrIN7hare_mq7MessageEERS3_PS3_ES8_
FNDA:33,_ZStmiRKSt15_Deque_iteratorISt10shared_ptrIN7hare_mq7MessageEERS3_PS3_ES8_
FN:437,_ZNSt11_Deque_baseISt10shared_ptrIN7hare_mq7MessageEESaIS3_EEC2Ev
FNDA:8,_ZNSt11_Deque_baseISt10shared_ptrIN7hare_mq7MessageEESaIS3_EEC2Ev
FN:596,_ZNSt11_Deque_baseISt10shared_ptrIN7hare_mq7MessageEESaIS3_EED2Ev
FNDA:8,_ZNSt11_Deque_baseISt10shared_ptrIN7hare_mq7MessageEESaIS3_EED2Ev
FN:617,_ZNSt11_Deque_baseISt10shared_ptrIN7hare_mq7MessageEESaIS3_EE17_M_initialize_mapEm
FNDA:8,_ZNSt11_Deque_baseISt10shared_ptrIN7hare_mq7MessageEESaIS3_EE17_M_initialize_mapEm
FN:656,_ZNSt11_Deque_baseISt10shared_ptrIN7hare_mq7MessageEESaIS3_EE15_M_create_nodesEPPS3_S7_
FNDA:8,_ZNSt11_Deque_baseISt10shared_ptrIN7hare_mq7MessageEESaIS3_EE15_M_create_nodesEPPS3_S7_
FN:674,_ZNSt11_Deque_baseISt10shared_ptrIN7hare_mq7MessageEESaIS3_EE16_M_destroy_nodesEPPS3_S7_
FNDA:8,_ZNSt11_Deque_baseISt10shared_ptrIN7hare_mq7MessageEESaIS3_EE16_M_destroy_nodesEPPS3_S7_
FN:1006,_ZNSt5dequeISt10shared_ptrIN7hare_mq7MessageEESaIS3_EED2Ev
FNDA:8,_ZNSt5dequeISt10shared_ptrIN7hare_mq7MessageEESaIS3_EED2Ev
FN:1427,_ZNSt5dequeISt10shared_ptrIN7hare_mq7MessageEESaIS3_EE4backEv
FNDA:1007,_ZNSt5dequeISt10shared_ptrIN7hare_mq7MessageEESaIS3_EE4backEv
FN:1532,_ZNSt5dequeISt10shared_ptrIN7hare_mq7MessageEESaIS3_EE9pop_frontEv
FNDA:9,_ZNSt5dequeISt10shared_ptrIN7hare_mq7MessageEESaIS3_EE9pop_frontEv
FN:1757,_ZNSt5dequeISt10shared_ptrIN7hare_mq7MessageEESaIS3_EE5eraseESt15_Deque_iteratorIS3_RKS3_PS7_ESA_
FNDA:0,_ZNSt5dequeISt10shared_ptrIN7hare_mq7MessageEESaIS3_EE5eraseESt15_Deque_iteratorIS3_RKS3_PS7_ESA_
FN:1793,_ZNSt5dequeISt10shared_ptrIN7hare_mq7MessageEESaIS3_EE5clearEv
FNDA:0,_ZNSt5dequeISt10shared_ptrIN7hare_mq7MessageEESaIS3_EE5clearEv
FN:2045,_ZNSt5dequeISt10shared_ptrIN7hare_mq7MessageEESaIS3_EE15_M_destroy_dataESt15_Deque_iteratorIS3_RS3_PS3_ES9_RKS4_
FNDA:8,_ZNSt5dequeISt10shared_ptrIN7hare_mq7MessageEESaIS3_EE15_M_destroy_dataESt15_Deque_iteratorIS3_RS3_PS3_ES9_RKS4_
FN:2054,_ZNSt5dequeISt10shared_ptrIN7hare_mq7MessageEESaIS3_EE17_M_erase_at_beginESt15_Deque_iteratorIS3_RS3_PS3_E
FNDA:0,_ZNSt5dequeISt10shared_ptrIN7hare_mq7MessageEESaIS3_EE17_M_erase_at_beginESt15_Deque_iteratorIS3_RS3_PS3_E
FN:2064,_ZNSt5dequeISt10shared_ptrIN7hare_mq7MessageEESaIS3_EE15_M_erase_at_endESt15_Deque_iteratorIS3_RS3_PS3_E
FNDA:0,_ZNSt5dequeISt10shared_ptrIN7hare_mq7MessageEESaIS3_EE15_M_erase_at_endESt15_Deque_iteratorIS3_RS3_PS3_E
FN:2126,_ZNSt5dequeISt10shared_ptrIN7hare_mq7MessageEESaIS3_EE22_M_reserve_map_at_backEm
FNDA:31,_ZNSt5dequeISt10shared_ptrIN7hare_mq7MessageEESaIS3_EE22_M_reserve_map_at_backEm
DA:131,0
DA:147,0
DA:148,0
DA:149,0
DA:151,8
DA:152,8
DA:164,9
DA:165,9
DA:166,0
DA:168,1023
DA:169,1023
DA:170,0
DA:176,0
DA:177,0
DA:180,1007
DA:181,0
DA:188,0
DA:190,0
DA:191,0
DA:193,0
DA:194,0
DA:196,0
DA:208,1007
DA:210,1007
DA:212,31
DA:213,31
DA:215,1007
DA:216,1007
DA:228,0
DA:230,0
DA:231,0
DA:232,0
DA:235,0
DA:236,0
DA:237,0
DA:238,0
DA:239,0
DA:240,0
DA:241,0
DA:243,0
DA:247,0
DA:248,0
DA:260,73
DA:262,73
DA:263,73
DA:264,31
DA:268,24
DA:269,0
DA:353,33
DA:356,33
DA:357,33
DA:358,33
DA:378,0
DA:380,0
DA:381,0
DA:386,0
DA:388,0
DA:389,0
DA:437,8
DA:438,8
DA:439,16
DA:495,8
DA:496,8
DA:521,8
DA:524,8
DA:526,8
DA:547,8
DA:548,38
DA:552,22
DA:555,22
DA:556,22
DA:559,39
DA:562,39
DA:566,39
DA:569,0
DA:573,3
DA:575,11
DA:576,11
DA:580,3
DA:582,11
DA:583,11
DA:584,8
DA:596,8
DA:599,8
DA:601,8
DA:602,8
DA:603,8
DA:605,8
DA:617,8
DA:620,8
DA:623,16
DA:624,8
DA:625,8
DA:632,8
DA:633,8
DA:634,8
DA:637,8
DA:638,0
DA:640,0
DA:641,0
DA:642,0
DA:643,0
DA:646,8
DA:647,8
DA:648,8
DA:649,8
DA:650,8
DA:651,8
DA:652,8
DA:656,8
DA:662,16
DA:663,8
DA:665,0
DA:667,0
DA:668,0
DA:670,8
DA:674,8
DA:678,47
DA:679,39
DA:680,8
DA:834,8
DA:1006,8
DA:1007,8
DA:1128,8
DA:1129,0
DA:1136,9
DA:1137,9
DA:1145,1015
DA:1146,8
DA:1233,33
DA:1234,33
DA:1239,31
DA:1311,24
DA:1312,24
DA:1416,9
DA:1419,9
DA:1427,1007
DA:1430,1007
DA:1431,1007
DA:1432,1007
DA:1511,1007
DA:1512,1007
DA:1532,9
DA:1535,9
DA:1536,9
DA:1538,9
DA:1540,9
DA:1543,0
DA:1544,9
DA:1757,0
DA:1761,0
DA:1793,0
DA:1794,0
DA:2045,8
DA:2049,8
DA:2050,8
DA:2054,0
DA:2056,0
DA:2057,0
DA:2058,0
DA:2059,0
DA:2064,0
DA:2066,0
DA:2067,0
DA:2068,0
DA:2069,0
DA:2070,0
DA:2126,31
DA:2128,31
DA:2129,31
DA:2130,3
DA:2131,31
end_of_record
SF:/usr/include/string.h
DA:266,1
DA:268,1
end_of_record
SF:/usr/include/c++/11/bits/stl_function.h
DA:369,1022
DA:370,1022
end_of_record
SF:/usr/include/c++/11/bits/allocator.h
DA:156,1066
DA:159,1058
DA:160,1057
DA:169,2116
DA:174,4191
DA:179,1153
DA:185,1153
DA:190,1081
DA:199,1081
end_of_record
SF:/usr/include/c++/11/ext/atomicity.h
DA:47,3023
DA:52,3023
DA:65,3012
DA:66,3012
DA:70,8
DA:71,8
DA:82,2
DA:84,2
DA:85,2
DA:86,2
DA:91,1
DA:92,1
DA:96,3014
DA:98,3014
DA:99,2
DA:101,3012
DA:106,9
DA:108,9
DA:109,1
DA:111,8
end_of_record
TN:
SF:/usr/local/include/google/protobuf/message_lite.h
DA:441,0
end_of_record
SF:/usr/include/c++/11/tuple
FN:1804,_ZNSt4pairIKSt10shared_ptrIN5muduo3net13TcpConnectionEES0_IN7hare_mq10connectionEEEC2IJRS5_EJEEESt21piecewise_construct_tSt5tupleIJDpT_EESD_IJDpT0_EE
FNDA:1,_ZNSt4pairIKSt10shared_ptrIN5muduo3net13TcpConnectionEES0_IN7hare_mq10connectionEEEC2IJRS5_EJEEESt21piecewise_construct_tSt5tupleIJDpT_EESD_IJDpT0_EE
DA:192,1
DA:193,1
DA:233,1
DA:424,1
DA:434,1
DA:435,1
DA:454,1
DA:456,1
DA:727,1
DA:729,1
DA:756,1
DA:1377,1
DA:1378,1
DA:1393,1
DA:1394,1
DA:1804,1
DA:1809,1
DA:1810,1
DA:1816,1
DA:1819,1
DA:1820,1
end_of_record
SF:/usr/include/c++/11/new
DA:174,2
DA:175,2
end_of_record
SF:/usr/include/c++/11/bits/unique_lock.h
FN:131,_ZNSt11unique_lockISt5mutexE4lockEv
FNDA:1,_ZNSt11unique_lockISt5mutexE4lockEv
FN:189,_ZNSt11unique_lockISt5mutexE6unlockEv
FNDA:1,_ZNSt11unique_lockISt5mutexE6unlockEv
DA:66,1
DA:67,1
DA:69,1
DA:70,1
DA:101,1
DA:104,1
DA:131,1
DA:133,1
DA:134,0
DA:135,1
DA:136,0
DA:139,1
DA:140,1
DA:142,1
DA:189,1
DA:191,1
DA:192,0
DA:193,1
DA:195,1
DA:196,1
DA:198,1
end_of_record
SF:/usr/include/c++/11/bits/shared_ptr_base.h
FN:140,_ZNSt16_Sp_counted_baseILN9__gnu_cxx12_Lock_policyE2EE10_M_destroyEv
FNDA:0,_ZNSt16_Sp_counted_baseILN9__gnu_cxx12_Lock_policyE2EE10_M_destroyEv
FN:147,_ZNSt16_Sp_counted_baseILN9__gnu_cxx12_Lock_policyE2EE15_M_add_ref_copyEv
FNDA:3,_ZNSt16_Sp_counted_baseILN9__gnu_cxx12_Lock_policyE2EE15_M_add_ref_copyEv
FN:161,_ZNSt16_Sp_counted_baseILN9__gnu_cxx12_Lock_policyE2EE10_M_releaseEv
FNDA:4,_ZNSt16_Sp_counted_baseILN9__gnu_cxx12_Lock_policyE2EE10_M_releaseEv
FN:375,_ZNSt15_Sp_counted_ptrIDnLN9__gnu_cxx12_Lock_policyE2EE10_M_disposeEv
FNDA:0,_ZNSt15_Sp_counted_ptrIDnLN9__gnu_cxx12_Lock_policyE2EE10_M_disposeEv
FN:523,_ZNSt23_Sp_counted_ptr_inplaceISt5mutexSaIS0_ELN9__gnu_cxx12_Lock_policyE2EED0Ev
FNDA:0,_ZNSt23_Sp_counted_ptr_inplaceISt5mutexSaIS0_ELN9__gnu_cxx12_Lock_policyE2EED0Ev
FN:523,_ZNSt23_Sp_counted_ptr_inplaceISt5mutexSaIS0_ELN9__gnu_cxx12_Lock_policyE2EED2Ev
FNDA:0,_ZNSt23_Sp_counted_ptr_inplaceISt5mutexSaIS0_ELN9__gnu_cxx12_Lock_policyE2EED2Ev
FN:523,_ZNSt23_Sp_counted_ptr_inplaceIN7hare_mq15channel_managerESaIS1_ELN9__gnu_cxx12_Lock_policyE2EED0Ev
FNDA:0,_ZNSt23_Sp_counted_ptr_inplaceIN7hare_mq15channel_managerESaIS1_ELN9__gnu_cxx12_Lock_policyE2EED0Ev
FN:523,_ZNSt23_Sp_counted_ptr_inplaceIN7hare_mq15channel_managerESaIS1_ELN9__gnu_cxx12_Lock_policyE2EED2Ev
FNDA:0,_ZNSt23_Sp_counted_ptr_inplaceIN7hare_mq15channel_managerESaIS1_ELN9__gnu_cxx12_Lock_policyE2EED2Ev
FN:523,_ZNSt23_Sp_counted_ptr_inplaceIN7hare_mq10connectionESaIS1_ELN9__gnu_cxx12_Lock_policyE2EED2Ev
FNDA:0,_ZNSt23_Sp_counted_ptr_inplaceIN7hare_mq10connectionESaIS1_ELN9__gnu_cxx12_Lock_policyE2EED2Ev
FN:523,_ZNSt23_Sp_counted_ptr_inplaceIN7hare_mq10connectionESaIS1_ELN9__gnu_cxx12_Lock_policyE2EED0Ev
FNDA:0,_ZNSt23_Sp_counted_ptr_inplaceIN7hare_mq10connectionESaIS1_ELN9__gnu_cxx12_Lock_policyE2EED0Ev
FN:526,_ZNSt23_Sp_counted_ptr_inplaceISt5mutexSaIS0_ELN9__gnu_cxx12_Lock_policyE2EE10_M_disposeEv
FNDA:0,_ZNSt23_Sp_counted_ptr_inplaceISt5mutexSaIS0_ELN9__gnu_cxx12_Lock_policyE2EE10_M_disposeEv
FN:526,_ZNSt23_Sp_counted_ptr_inplaceIN7hare_mq10connectionESaIS1_ELN9__gnu_cxx12_Lock_policyE2EE10_M_disposeEv
FNDA:1,_ZNSt23_Sp_counted_ptr_inplaceIN7hare_mq10connectionESaIS1_ELN9__gnu_cxx12_Lock_policyE2EE10_M_disposeEv
FN:526,_ZNSt23_Sp_counted_ptr_inplaceIN7hare_mq15channel_managerESaIS1_ELN9__gnu_cxx12_Lock_policyE2EE10_M_disposeEv
FNDA:1,_ZNSt23_Sp_counted_ptr_inplaceIN7hare_mq15channel_managerESaIS1_ELN9__gnu_cxx12_Lock_policyE2EE10_M_disposeEv
FN:533,_ZNSt23_Sp_counted_ptr_inplaceIN7hare_mq10connectionESaIS1_ELN9__gnu_cxx12_Lock_policyE2EE10_M_destroyEv
FNDA:1,_ZNSt23_Sp_counted_ptr_inplaceIN7hare_mq10connectionESaIS1_ELN9__gnu_cxx12_Lock_policyE2EE10_M_destroyEv
FN:533,_ZNSt23_Sp_counted_ptr_inplaceIN7hare_mq15channel_managerESaIS1_ELN9__gnu_cxx12_Lock_policyE2EE10_M_destroyEv
FNDA:1,_ZNSt23_Sp_counted_ptr_inplaceIN7hare_mq15channel_managerESaIS1_ELN9__gnu_cxx12_Lock_policyE2EE10_M_destroyEv
FN:533,_ZNSt23_Sp_counted_ptr_inplaceISt5mutexSaIS0_ELN9__gnu_cxx12_Lock_policyE2EE10_M_destroyEv
FNDA:0,_ZNSt23_Sp_counted_ptr_inplaceISt5mutexSaIS0_ELN9__gnu_cxx12_Lock_policyE2EE10_M_destroyEv
FN:546,_ZNSt23_Sp_counted_ptr_inplaceIN7hare_mq10connectionESaIS1_ELN9__gnu_cxx12_Lock_policyE2EE14_M_get_deleterERKSt9type_info
FNDA:0,_ZNSt23_Sp_counted_ptr_inplaceIN7hare_mq10connectionESaIS1_ELN9__gnu_cxx12_Lock_policyE2EE14_M_get_deleterERKSt9type_info
FN:546,_ZNSt23_Sp_counted_ptr_inplaceIN7hare_mq15channel_managerESaIS1_ELN9__gnu_cxx12_Lock_policyE2EE14_M_get_deleterERKSt9type_info
FNDA:0,_ZNSt23_Sp_counted_ptr_inplaceIN7hare_mq15channel_managerESaIS1_ELN9__gnu_cxx12_Lock_policyE2EE14_M_get_deleterERKSt9type_info
FN:643,_ZNSt14__shared_countILN9__gnu_cxx12_Lock_policyE2EEC2IN7hare_mq10connectionESaIS5_EJRKSt10shared_ptrINS4_12virtual_hostEERKS7_INS4_16consumer_managerEERKS7_I13ProtobufCodecERKS7_IN5muduo3net13TcpConnectionEERKS7_INS4_11thread_poolEEEEERPT_St20_Sp_alloc_shared_tagIT0_EDpOT1_
FNDA:1,_ZNSt14__shared_countILN9__gnu_cxx12_Lock_policyE2EEC2IN7hare_mq10connectionESaIS5_EJRKSt10shared_ptrINS4_12virtual_hostEERKS7_INS4_16consumer_managerEERKS7_I13ProtobufCodecERKS7_IN5muduo3net13TcpConnectionEERKS7_INS4_11thread_poolEEEEERPT_St20_Sp_alloc_shared_tagIT0_EDpOT1_
FN:643,_ZNSt14__shared_countILN9__gnu_cxx12_Lock_policyE2EEC2IN7hare_mq15channel_managerESaIS5_EJEEERPT_St20_Sp_alloc_shared_tagIT0_EDpOT1_
FNDA:1,_ZNSt14__shared_countILN9__gnu_cxx12_Lock_policyE2EEC2IN7hare_mq15channel_managerESaIS5_EJEEERPT_St20_Sp_alloc_shared_tagIT0_EDpOT1_
FN:1248,_ZNSt12__shared_ptrIN7hare_mq10connectionELN9__gnu_cxx12_Lock_policyE2EEaSEOS4_
FNDA:1,_ZNSt12__shared_ptrIN7hare_mq10connectionELN9__gnu_cxx12_Lock_policyE2EEaSEOS4_
DA:126,2
DA:127,2
DA:130,0
DA:140,0
DA:141,0
DA:147,3
DA:148,3
DA:161,4
DA:165,8
DA:168,2
DA:180,4
DA:184,2
DA:187,4
DA:375,0
DA:383,2
DA:385,2
DA:479,0
DA:481,0
DA:482,0
DA:497,2
DA:502,2
DA:514,2
DA:515,2
DA:519,2
DA:521,1
DA:523,0
DA:523,0
DA:523,0
DA:523,0
DA:523,0
DA:523,0
DA:523,2
DA:526,0
DA:528,0
DA:529,0
DA:526,1
DA:528,1
DA:529,1
DA:526,1
DA:528,1
DA:529,1
DA:533,0
DA:535,0
DA:536,0
DA:537,0
DA:538,0
DA:533,1
DA:535,1
DA:536,1
DA:537,1
DA:538,1
DA:533,1
DA:535,1
DA:536,1
DA:537,1
DA:538,1
DA:546,0
DA:548,0
DA:554,0
DA:556,0
DA:561,0
DA:546,0
DA:548,0
DA:554,0
DA:556,0
DA:561,0
DA:565,4
DA:587,2
DA:643,1
DA:647,1
DA:648,1
DA:649,1
DA:650,2
DA:651,1
DA:652,1
DA:653,1
DA:654,1
DA:655,1
DA:643,1
DA:647,1
DA:648,1
DA:649,1
DA:650,1
DA:652,1
DA:653,1
DA:654,1
DA:655,1
DA:702,8
DA:704,4
DA:705,4
DA:708,6
DA:709,6
DA:711,3
DA:712,3
DA:731,1
DA:733,1
DA:734,1
DA:984,0
DA:987,0
DA:992,0
DA:993,0
DA:1092,1
DA:1093,0
DA:1152,5
DA:1154,6
DA:1161,1
DA:1162,1
DA:1164,1
DA:1165,1
DA:1248,1
DA:1250,2
DA:1251,1
DA:1295,2
DA:1296,2
DA:1314,1
DA:1316,1
DA:1317,1
DA:1341,2
DA:1342,2
DA:1343,2
DA:1386,2
end_of_record
SF:/usr/include/c++/11/iostream
end_of_record
SF:/usr/include/c++/11/ext/aligned_buffer.h
DA:102,4
DA:104,5
DA:110,0
DA:114,4
DA:115,7
end_of_record
SF:/usr/include/c++/11/bits/alloc_traits.h
DA:463,4
DA:464,3
DA:495,2
DA:496,2
DA:511,3
DA:518,4
DA:531,2
DA:537,0
DA:845,0
end_of_record
SF:/usr/include/c++/11/bits/stl_construct.h
FN:94,_ZSt12construct_atIN7hare_mq15channel_managerEJEEDTgsnwcvPvLi0E_T_pispcl7declvalIT0_EEEEPS3_DpOS4_
FNDA:1,_ZSt12construct_atIN7hare_mq15channel_managerEJEEDTgsnwcvPvLi0E_T_pispcl7declvalIT0_EEEEPS3_DpOS4_
DA:80,1
DA:88,1
DA:94,3
DA:97,2
DA:109,0
end_of_record
SF:/usr/include/c++/11/bits/stl_vector.h
FN:333,_ZNSt12_Vector_baseIcSaIcEED2Ev
FNDA:0,_ZNSt12_Vector_baseIcSaIcEED2Ev
FN:359,_ZNSt12_Vector_baseIcSaIcEE17_M_create_storageEm
FNDA:0,_ZNSt12_Vector_baseIcSaIcEE17_M_create_storageEm
FN:510,_ZNSt6vectorIcSaIcEEC2EmRKS0_
FNDA:0,_ZNSt6vectorIcSaIcEEC2EmRKS0_
DA:97,0
DA:98,0
DA:128,0
DA:136,0
DA:137,0
DA:276,0
DA:277,0
DA:303,0
DA:304,0
DA:305,0
DA:333,0
DA:335,0
DA:336,0
DA:337,0
DA:343,0
DA:346,0
DA:350,0
DA:353,0
DA:354,0
DA:359,0
DA:361,0
DA:362,0
DA:363,0
DA:364,0
DA:510,0
DA:511,0
DA:512,0
DA:678,0
DA:680,0
DA:681,0
DA:683,0
DA:918,0
DA:919,0
DA:1603,0
DA:1605,0
DA:1606,0
DA:1607,0
DA:1767,0
DA:1769,0
DA:1770,0
end_of_record
SF:/usr/include/x86_64-linux-gnu/c++/11/bits/gthr-default.h
DA:746,1
DA:748,1
DA:749,1
DA:776,1
DA:778,1
DA:779,1
end_of_record
SF:/usr/include/c++/11/bits/stl_uninitialized.h
FN:595,_ZNSt27__uninitialized_default_n_1ILb1EE18__uninit_default_nIPcmEET_S3_T0_
FNDA:0,_ZNSt27__uninitialized_default_n_1ILb1EE18__uninit_default_nIPcmEET_S3_T0_
DA:595,0
DA:597,0
DA:600,0
DA:601,0
DA:602,0
DA:603,0
DA:605,0
DA:630,0
DA:635,0
DA:640,0
DA:702,0
DA:704,0
end_of_record
SF:/usr/include/c++/11/bits/unordered_map.h
DA:102,1
DA:141,1
DA:347,1
DA:348,1
DA:762,0
DA:763,0
DA:868,1
DA:869,1
DA:979,1
DA:980,1
end_of_record
SF:/home/eric/2025MQ/MQproject/2025MQWorkSpace/src/tools/muduo/_install/include/muduo/net/Buffer.h
FN:48,_ZN5muduo3net6BufferC2Em
FNDA:0,_ZN5muduo3net6BufferC2Em
DA:42,0
DA:48,0
DA:49,0
DA:50,0
DA:51,0
DA:53,0
DA:54,0
DA:55,0
DA:56,0
DA:68,0
DA:69,0
DA:71,0
DA:72,0
DA:74,0
DA:75,0
end_of_record
SF:/usr/include/c++/11/bits/stl_pair.h
end_of_record
SF:/home/eric/2025MQ/MQproject/2025MQWorkSpace/src/tools/muduo/_install/include/muduo/protoc/codec.h
FN:70,_ZN13ProtobufCodec4sendERKSt10shared_ptrIN5muduo3net13TcpConnectionEERKN6google8protobuf7MessageE
FNDA:0,_ZN13ProtobufCodec4sendERKSt10shared_ptrIN5muduo3net13TcpConnectionEERKN6google8protobuf7MessageE
DA:70,0
DA:74,0
DA:75,0
DA:76,0
DA:77,0
end_of_record
SF:/usr/include/c++/11/ext/new_allocator.h
FN:103,_ZN9__gnu_cxx13new_allocatorIPNSt8__detail15_Hash_node_baseEE8allocateEmPKv
FNDA:1,_ZN9__gnu_cxx13new_allocatorIPNSt8__detail15_Hash_node_baseEE8allocateEmPKv
FN:103,_ZN9__gnu_cxx13new_allocatorISt23_Sp_counted_ptr_inplaceIN7hare_mq10connectionESaIS3_ELNS_12_Lock_policyE2EEE8allocateEmPKv
FNDA:1,_ZN9__gnu_cxx13new_allocatorISt23_Sp_counted_ptr_inplaceIN7hare_mq10connectionESaIS3_ELNS_12_Lock_policyE2EEE8allocateEmPKv
FN:103,_ZN9__gnu_cxx13new_allocatorISt23_Sp_counted_ptr_inplaceIN7hare_mq15channel_managerESaIS3_ELNS_12_Lock_policyE2EEE8allocateEmPKv
FNDA:1,_ZN9__gnu_cxx13new_allocatorISt23_Sp_counted_ptr_inplaceIN7hare_mq15channel_managerESaIS3_ELNS_12_Lock_policyE2EEE8allocateEmPKv
FN:103,_ZN9__gnu_cxx13new_allocatorINSt8__detail10_Hash_nodeISt4pairIKSt10shared_ptrIN5muduo3net13TcpConnectionEES4_IN7hare_mq10connectionEEELb0EEEE8allocateEmPKv
FNDA:1,_ZN9__gnu_cxx13new_allocatorINSt8__detail10_Hash_nodeISt4pairIKSt10shared_ptrIN5muduo3net13TcpConnectionEES4_IN7hare_mq10connectionEEELb0EEEE8allocateEmPKv
FN:103,_ZN9__gnu_cxx13new_allocatorIcE8allocateEmPKv
FNDA:0,_ZN9__gnu_cxx13new_allocatorIcE8allocateEmPKv
FN:132,_ZN9__gnu_cxx13new_allocatorINSt8__detail10_Hash_nodeISt4pairIKNSt7__cxx1112basic_stringIcSt11char_traitsIcESaIcEEESt10shared_ptrIN7hare_mq7channelEEELb1EEEE10deallocateEPSG_m
FNDA:0,_ZN9__gnu_cxx13new_allocatorINSt8__detail10_Hash_nodeISt4pairIKNSt7__cxx1112basic_stringIcSt11char_traitsIcESaIcEEESt10shared_ptrIN7hare_mq7channelEEELb1EEEE10deallocateEPSG_m
FN:132,_ZN9__gnu_cxx13new_allocatorIPNSt8__detail15_Hash_node_baseEE10deallocateEPS3_m
FNDA:0,_ZN9__gnu_cxx13new_allocatorIPNSt8__detail15_Hash_node_baseEE10deallocateEPS3_m
FN:132,_ZN9__gnu_cxx13new_allocatorISt23_Sp_counted_ptr_inplaceIN7hare_mq10connectionESaIS3_ELNS_12_Lock_policyE2EEE10deallocateEPS6_m
FNDA:1,_ZN9__gnu_cxx13new_allocatorISt23_Sp_counted_ptr_inplaceIN7hare_mq10connectionESaIS3_ELNS_12_Lock_policyE2EEE10deallocateEPS6_m
FN:132,_ZN9__gnu_cxx13new_allocatorISt23_Sp_counted_ptr_inplaceIN7hare_mq15channel_managerESaIS3_ELNS_12_Lock_policyE2EEE10deallocateEPS6_m
FNDA:1,_ZN9__gnu_cxx13new_allocatorISt23_Sp_counted_ptr_inplaceIN7hare_mq15channel_managerESaIS3_ELNS_12_Lock_policyE2EEE10deallocateEPS6_m
FN:132,_ZN9__gnu_cxx13new_allocatorISt23_Sp_counted_ptr_inplaceISt5mutexSaIS2_ELNS_12_Lock_policyE2EEE10deallocateEPS5_m
FNDA:0,_ZN9__gnu_cxx13new_allocatorISt23_Sp_counted_ptr_inplaceISt5mutexSaIS2_ELNS_12_Lock_policyE2EEE10deallocateEPS5_m
FN:132,_ZN9__gnu_cxx13new_allocatorINSt8__detail10_Hash_nodeISt4pairIKSt10shared_ptrIN5muduo3net13TcpConnectionEES4_IN7hare_mq10connectionEEELb0EEEE10deallocateEPSE_m
FNDA:0,_ZN9__gnu_cxx13new_allocatorINSt8__detail10_Hash_nodeISt4pairIKSt10shared_ptrIN5muduo3net13TcpConnectionEES4_IN7hare_mq10connectionEEELb0EEEE10deallocateEPSE_m
FN:132,_ZN9__gnu_cxx13new_allocatorIcE10deallocateEPcm
FNDA:0,_ZN9__gnu_cxx13new_allocatorIcE10deallocateEPcm
DA:79,7
DA:82,2
DA:103,1
DA:111,1
DA:115,0
DA:116,0
DA:117,0
DA:127,1
DA:103,1
DA:111,1
DA:115,0
DA:116,0
DA:117,0
DA:127,1
DA:103,1
DA:111,1
DA:115,0
DA:116,0
DA:117,0
DA:127,1
DA:103,1
DA:111,1
DA:115,0
DA:116,0
DA:117,0
DA:127,1
DA:103,0
DA:111,0
DA:117,0
DA:127,0
DA:132,0
DA:145,0
DA:132,0
DA:145,0
DA:132,1
DA:145,1
DA:132,1
DA:145,1
DA:132,0
DA:145,0
DA:132,0
DA:145,0
DA:132,0
DA:145,0
end_of_record
SF:/usr/include/c++/11/bits/functional_hash.h
DA:110,2
DA:111,2
end_of_record
SF:/home/eric/2025MQ/MQproject/2025MQWorkSpace/src/common/protocol.pb.h
DA:2770,0
DA:3335,0
DA:3337,0
DA:3351,0
DA:3352,0
DA:3385,0
DA:3387,0
DA:3401,0
DA:3402,0
DA:3439,0
DA:3441,0
DA:3455,0
DA:3456,0
DA:3489,0
DA:3491,0
DA:3505,0
DA:3506,0
DA:5830,0
DA:5832,0
DA:5834,0
DA:5880,0
DA:5882,0
DA:5884,0
DA:5931,0
DA:5933,0
DA:5935,0
DA:5936,0
end_of_record
SF:/usr/local/include/google/protobuf/metadata_lite.h
DA:116,0
DA:117,0
DA:118,0
DA:120,0
DA:124,0
DA:125,0
DA:193,0
DA:194,0
DA:201,0
DA:202,0
end_of_record
SF:/usr/include/c++/11/bits/hashtable.h
FN:308,_ZNSt10_HashtableISt10shared_ptrIN5muduo3net13TcpConnectionEESt4pairIKS4_S0_IN7hare_mq10connectionEEESaISA_ENSt8__detail10_Select1stESt8equal_toIS4_ESt4hashIS4_ENSC_18_Mod_range_hashingENSC_20_Default_ranged_hashENSC_20_Prime_rehash_policyENSC_17_Hashtable_traitsILb0ELb0ELb1EEEE12_Scoped_nodeD2Ev
FNDA:1,_ZNSt10_HashtableISt10shared_ptrIN5muduo3net13TcpConnectionEESt4pairIKS4_S0_IN7hare_mq10connectionEEESaISA_ENSt8__detail10_Select1stESt8equal_toIS4_ESt4hashIS4_ENSC_18_Mod_range_hashingENSC_20_Default_ranged_hashENSC_20_Prime_rehash_policyENSC_17_Hashtable_traitsILb0ELb0ELb1EEEE12_Scoped_nodeD2Ev
FN:453,_ZNSt10_HashtableINSt7__cxx1112basic_stringIcSt11char_traitsIcESaIcEEESt4pairIKS5_St10shared_ptrIN7hare_mq7channelEEESaISC_ENSt8__detail10_Select1stESt8equal_toIS5_ESt4hashIS5_ENSE_18_Mod_range_hashingENSE_20_Default_ranged_hashENSE_20_Prime_rehash_policyENSE_17_Hashtable_traitsILb1ELb0ELb1EEEE21_M_deallocate_bucketsEv
FNDA:1,_ZNSt10_HashtableINSt7__cxx1112basic_stringIcSt11char_traitsIcESaIcEEESt4pairIKS5_St10shared_ptrIN7hare_mq7channelEEESaISC_ENSt8__detail10_Select1stESt8equal_toIS5_ESt4hashIS5_ENSE_18_Mod_range_hashingENSE_20_Default_ranged_hashENSE_20_Prime_rehash_policyENSE_17_Hashtable_traitsILb1ELb0ELb1EEEE21_M_deallocate_bucketsEv
FN:453,_ZNSt10_HashtableISt10shared_ptrIN5muduo3net13TcpConnectionEESt4pairIKS4_S0_IN7hare_mq10connectionEEESaISA_ENSt8__detail10_Select1stESt8equal_toIS4_ESt4hashIS4_ENSC_18_Mod_range_hashingENSC_20_Default_ranged_hashENSC_20_Prime_rehash_policyENSC_17_Hashtable_traitsILb0ELb0ELb1EEEE21_M_deallocate_bucketsEv
FNDA:1,_ZNSt10_HashtableISt10shared_ptrIN5muduo3net13TcpConnectionEESt4pairIKS4_S0_IN7hare_mq10connectionEEESaISA_ENSt8__detail10_Select1stESt8equal_toIS4_ESt4hashIS4_ENSC_18_Mod_range_hashingENSC_20_Default_ranged_hashENSC_20_Prime_rehash_policyENSC_17_Hashtable_traitsILb0ELb0ELb1EEEE21_M_deallocate_bucketsEv
FN:1588,_ZNSt10_HashtableISt10shared_ptrIN5muduo3net13TcpConnectionEESt4pairIKS4_S0_IN7hare_mq10connectionEEESaISA_ENSt8__detail10_Select1stESt8equal_toIS4_ESt4hashIS4_ENSC_18_Mod_range_hashingENSC_20_Default_ranged_hashENSC_20_Prime_rehash_policyENSC_17_Hashtable_traitsILb0ELb0ELb1EEEE4findERS6_
FNDA:1,_ZNSt10_HashtableISt10shared_ptrIN5muduo3net13TcpConnectionEESt4pairIKS4_S0_IN7hare_mq10connectionEEESaISA_ENSt8__detail10_Select1stESt8equal_toIS4_ESt4hashIS4_ENSC_18_Mod_range_hashingENSC_20_Default_ranged_hashENSC_20_Prime_rehash_policyENSC_17_Hashtable_traitsILb0ELb0ELb1EEEE4findERS6_
FN:1827,_ZNKSt10_HashtableISt10shared_ptrIN5muduo3net13TcpConnectionEESt4pairIKS4_S0_IN7hare_mq10connectionEEESaISA_ENSt8__detail10_Select1stESt8equal_toIS4_ESt4hashIS4_ENSC_18_Mod_range_hashingENSC_20_Default_ranged_hashENSC_20_Prime_rehash_policyENSC_17_Hashtable_traitsILb0ELb0ELb1EEEE19_M_find_before_nodeEmRS6_m
FNDA:2,_ZNKSt10_HashtableISt10shared_ptrIN5muduo3net13TcpConnectionEESt4pairIKS4_S0_IN7hare_mq10connectionEEESaISA_ENSt8__detail10_Select1stESt8equal_toIS4_ESt4hashIS4_ENSC_18_Mod_range_hashingENSC_20_Default_ranged_hashENSC_20_Prime_rehash_policyENSC_17_Hashtable_traitsILb0ELb0ELb1EEEE19_M_find_before_nodeEmRS6_m
FN:1886,_ZNSt10_HashtableISt10shared_ptrIN5muduo3net13TcpConnectionEESt4pairIKS4_S0_IN7hare_mq10connectionEEESaISA_ENSt8__detail10_Select1stESt8equal_toIS4_ESt4hashIS4_ENSC_18_Mod_range_hashingENSC_20_Default_ranged_hashENSC_20_Prime_rehash_policyENSC_17_Hashtable_traitsILb0ELb0ELb1EEEE22_M_insert_bucket_beginEmPNSC_10_Hash_nodeISA_Lb0EEE
FNDA:1,_ZNSt10_HashtableISt10shared_ptrIN5muduo3net13TcpConnectionEESt4pairIKS4_S0_IN7hare_mq10connectionEEESaISA_ENSt8__detail10_Select1stESt8equal_toIS4_ESt4hashIS4_ENSC_18_Mod_range_hashingENSC_20_Default_ranged_hashENSC_20_Prime_rehash_policyENSC_17_Hashtable_traitsILb0ELb0ELb1EEEE22_M_insert_bucket_beginEmPNSC_10_Hash_nodeISA_Lb0EEE
FN:1919,_ZNSt10_HashtableISt10shared_ptrIN5muduo3net13TcpConnectionEESt4pairIKS4_S0_IN7hare_mq10connectionEEESaISA_ENSt8__detail10_Select1stESt8equal_toIS4_ESt4hashIS4_ENSC_18_Mod_range_hashingENSC_20_Default_ranged_hashENSC_20_Prime_rehash_policyENSC_17_Hashtable_traitsILb0ELb0ELb1EEEE22_M_remove_bucket_beginEmPNSC_10_Hash_nodeISA_Lb0EEEm
FNDA:0,_ZNSt10_HashtableISt10shared_ptrIN5muduo3net13TcpConnectionEESt4pairIKS4_S0_IN7hare_mq10connectionEEESaISA_ENSt8__detail10_Select1stESt8equal_toIS4_ESt4hashIS4_ENSC_18_Mod_range_hashingENSC_20_Default_ranged_hashENSC_20_Prime_rehash_policyENSC_17_Hashtable_traitsILb0ELb0ELb1EEEE22_M_remove_bucket_beginEmPNSC_10_Hash_nodeISA_Lb0EEEm
FN:2008,_ZNSt10_HashtableISt10shared_ptrIN5muduo3net13TcpConnectionEESt4pairIKS4_S0_IN7hare_mq10connectionEEESaISA_ENSt8__detail10_Select1stESt8equal_toIS4_ESt4hashIS4_ENSC_18_Mod_range_hashingENSC_20_Default_ranged_hashENSC_20_Prime_rehash_policyENSC_17_Hashtable_traitsILb0ELb0ELb1EEEE21_M_insert_unique_nodeEmmPNSC_10_Hash_nodeISA_Lb0EEEm
FNDA:1,_ZNSt10_HashtableISt10shared_ptrIN5muduo3net13TcpConnectionEESt4pairIKS4_S0_IN7hare_mq10connectionEEESaISA_ENSt8__detail10_Select1stESt8equal_toIS4_ESt4hashIS4_ENSC_18_Mod_range_hashingENSC_20_Default_ranged_hashENSC_20_Prime_rehash_policyENSC_17_Hashtable_traitsILb0ELb0ELb1EEEE21_M_insert_unique_nodeEmmPNSC_10_Hash_nodeISA_Lb0EEEm
FN:2166,_ZNSt10_HashtableISt10shared_ptrIN5muduo3net13TcpConnectionEESt4pairIKS4_S0_IN7hare_mq10connectionEEESaISA_ENSt8__detail10_Select1stESt8equal_toIS4_ESt4hashIS4_ENSC_18_Mod_range_hashingENSC_20_Default_ranged_hashENSC_20_Prime_rehash_policyENSC_17_Hashtable_traitsILb0ELb0ELb1EEEE8_M_eraseEmPNSC_15_Hash_node_baseEPNSC_10_Hash_nodeISA_Lb0EEE
FNDA:0,_ZNSt10_HashtableISt10shared_ptrIN5muduo3net13TcpConnectionEESt4pairIKS4_S0_IN7hare_mq10connectionEEESaISA_ENSt8__detail10_Select1stESt8equal_toIS4_ESt4hashIS4_ENSC_18_Mod_range_hashingENSC_20_Default_ranged_hashENSC_20_Prime_rehash_policyENSC_17_Hashtable_traitsILb0ELb0ELb1EEEE8_M_eraseEmPNSC_15_Hash_node_baseEPNSC_10_Hash_nodeISA_Lb0EEE
FN:2194,_ZNSt10_HashtableISt10shared_ptrIN5muduo3net13TcpConnectionEESt4pairIKS4_S0_IN7hare_mq10connectionEEESaISA_ENSt8__detail10_Select1stESt8equal_toIS4_ESt4hashIS4_ENSC_18_Mod_range_hashingENSC_20_Default_ranged_hashENSC_20_Prime_rehash_policyENSC_17_Hashtable_traitsILb0ELb0ELb1EEEE8_M_eraseESt17integral_constantIbLb1EERS6_
FNDA:0,_ZNSt10_HashtableISt10shared_ptrIN5muduo3net13TcpConnectionEESt4pairIKS4_S0_IN7hare_mq10connectionEEESaISA_ENSt8__detail10_Select1stESt8equal_toIS4_ESt4hashIS4_ENSC_18_Mod_range_hashingENSC_20_Default_ranged_hashENSC_20_Prime_rehash_policyENSC_17_Hashtable_traitsILb0ELb0ELb1EEEE8_M_eraseESt17integral_constantIbLb1EERS6_
FN:2316,_ZNSt10_HashtableINSt7__cxx1112basic_stringIcSt11char_traitsIcESaIcEEESt4pairIKS5_St10shared_ptrIN7hare_mq7channelEEESaISC_ENSt8__detail10_Select1stESt8equal_toIS5_ESt4hashIS5_ENSE_18_Mod_range_hashingENSE_20_Default_ranged_hashENSE_20_Prime_rehash_policyENSE_17_Hashtable_traitsILb1ELb0ELb1EEEE5clearEv
FNDA:1,_ZNSt10_HashtableINSt7__cxx1112basic_stringIcSt11char_traitsIcESaIcEEESt4pairIKS5_St10shared_ptrIN7hare_mq7channelEEESaISC_ENSt8__detail10_Select1stESt8equal_toIS5_ESt4hashIS5_ENSE_18_Mod_range_hashingENSE_20_Default_ranged_hashENSE_20_Prime_rehash_policyENSE_17_Hashtable_traitsILb1ELb0ELb1EEEE5clearEv
FN:2355,_ZNSt10_HashtableISt10shared_ptrIN5muduo3net13TcpConnectionEESt4pairIKS4_S0_IN7hare_mq10connectionEEESaISA_ENSt8__detail10_Select1stESt8equal_toIS4_ESt4hashIS4_ENSC_18_Mod_range_hashingENSC_20_Default_ranged_hashENSC_20_Prime_rehash_policyENSC_17_Hashtable_traitsILb0ELb0ELb1EEEE9_M_rehashEmRKm
FNDA:1,_ZNSt10_HashtableISt10shared_ptrIN5muduo3net13TcpConnectionEESt4pairIKS4_S0_IN7hare_mq10connectionEEESaISA_ENSt8__detail10_Select1stESt8equal_toIS4_ESt4hashIS4_ENSC_18_Mod_range_hashingENSC_20_Default_ranged_hashENSC_20_Prime_rehash_policyENSC_17_Hashtable_traitsILb0ELb0ELb1EEEE9_M_rehashEmRKm
FN:2378,_ZNSt10_HashtableISt10shared_ptrIN5muduo3net13TcpConnectionEESt4pairIKS4_S0_IN7hare_mq10connectionEEESaISA_ENSt8__detail10_Select1stESt8equal_toIS4_ESt4hashIS4_ENSC_18_Mod_range_hashingENSC_20_Default_ranged_hashENSC_20_Prime_rehash_policyENSC_17_Hashtable_traitsILb0ELb0ELb1EEEE13_M_rehash_auxEmSt17integral_constantIbLb1EE
FNDA:1,_ZNSt10_HashtableISt10shared_ptrIN5muduo3net13TcpConnectionEESt4pairIKS4_S0_IN7hare_mq10connectionEEESaISA_ENSt8__detail10_Select1stESt8equal_toIS4_ESt4hashIS4_ENSC_18_Mod_range_hashingENSC_20_Default_ranged_hashENSC_20_Prime_rehash_policyENSC_17_Hashtable_traitsILb0ELb0ELb1EEEE13_M_rehash_auxEmSt17integral_constantIbLb1EE
DA:302,1
DA:303,1
DA:304,1
DA:308,1
DA:421,2
DA:422,2
DA:432,1
DA:434,1
DA:436,0
DA:437,0
DA:440,1
DA:444,2
DA:446,2
DA:449,2
DA:453,1
DA:454,1
DA:453,1
DA:454,1
DA:462,2
DA:463,2
DA:528,1
DA:629,1
DA:630,1
DA:790,0
DA:791,0
DA:794,3
DA:795,2
DA:807,2
DA:810,2
DA:811,1
DA:812,0
DA:937,0
DA:938,0
DA:1528,1
DA:1532,1
DA:1533,1
DA:1534,1
DA:1588,1
DA:1593,1
DA:1594,1
DA:1595,1
DA:1827,2
DA:1833,2
DA:1834,2
DA:1837,0
DA:1840,0
DA:1841,0
DA:1843,0
DA:1886,1
DA:1890,1
DA:1894,0
DA:1895,0
DA:1902,1
DA:1903,1
DA:1905,1
DA:1908,0
DA:1910,1
DA:1912,1
DA:1919,0
DA:1924,0
DA:1928,0
DA:1929,0
DA:1932,0
DA:1933,0
DA:1934,0
DA:1936,0
DA:2008,1
DA:2014,1
DA:2016,1
DA:2019,1
DA:2021,1
DA:2022,1
DA:2028,1
DA:2029,1
DA:2030,1
DA:2166,0
DA:2171,0
DA:2172,0
DA:2173,0
DA:2174,0
DA:2176,0
DA:2177,0
DA:2178,0
DA:2181,0
DA:2182,0
DA:2183,0
DA:2184,0
DA:2186,0
DA:2194,0
DA:2199,0
DA:2200,0
DA:2203,0
DA:2204,0
DA:2208,0
DA:2209,0
DA:2210,0
DA:2316,1
DA:2320,1
DA:2321,1
DA:2322,1
DA:2323,1
DA:2324,1
DA:2325,1
DA:2355,1
DA:2361,1
DA:2363,0
DA:2367,0
DA:2368,0
DA:2370,1
DA:2378,1
DA:2382,1
DA:2383,1
DA:2384,1
DA:2385,1
DA:2386,1
DA:2388,0
DA:2390,0
DA:2391,0
DA:2393,0
DA:2394,0
DA:2395,0
DA:2396,0
DA:2397,0
DA:2402,0
DA:2403,0
DA:2409,1
DA:2410,1
DA:2411,1
DA:2412,1
end_of_record
SF:/usr/include/c++/11/bits/allocated_ptr.h
FN:71,_ZNSt15__allocated_ptrISaISt23_Sp_counted_ptr_inplaceIN7hare_mq10connectionESaIS2_ELN9__gnu_cxx12_Lock_policyE2EEEED2Ev
FNDA:2,_ZNSt15__allocated_ptrISaISt23_Sp_counted_ptr_inplaceIN7hare_mq10connectionESaIS2_ELN9__gnu_cxx12_Lock_policyE2EEEED2Ev
FN:71,_ZNSt15__allocated_ptrISaISt23_Sp_counted_ptr_inplaceIN7hare_mq15channel_managerESaIS2_ELN9__gnu_cxx12_Lock_policyE2EEEED2Ev
FNDA:2,_ZNSt15__allocated_ptrISaISt23_Sp_counted_ptr_inplaceIN7hare_mq15channel_managerESaIS2_ELN9__gnu_cxx12_Lock_policyE2EEEED2Ev
FN:71,_ZNSt15__allocated_ptrISaISt23_Sp_counted_ptr_inplaceISt5mutexSaIS1_ELN9__gnu_cxx12_Lock_policyE2EEEED2Ev
FNDA:0,_ZNSt15__allocated_ptrISaISt23_Sp_counted_ptr_inplaceISt5mutexSaIS1_ELN9__gnu_cxx12_Lock_policyE2EEEED2Ev
DA:53,2
DA:54,4
DA:71,2
DA:73,2
DA:74,1
DA:75,2
DA:71,2
DA:73,2
DA:74,1
DA:75,2
DA:71,0
DA:73,0
DA:74,0
DA:75,0
DA:79,2
DA:81,2
DA:86,2
DA:96,2
DA:98,2
end_of_record
SF:/home/eric/2025MQ/MQproject/2025MQWorkSpace/src/server/channel.hpp
DA:101,1
end_of_record
SF:/usr/include/c++/11/bits/stl_algobase.h
FN:932,_ZSt9__fill_a1IcEN9__gnu_cxx11__enable_ifIXsrSt9__is_byteIT_E7__valueEvE6__typeEPS3_S7_RKS3_
FNDA:0,_ZSt9__fill_a1IcEN9__gnu_cxx11__enable_ifIXsrSt9__is_byteIT_E7__valueEvE6__typeEPS3_S7_RKS3_
DA:932,0
DA:934,0
DA:943,0
DA:944,0
DA:968,0
DA:969,0
DA:1109,0
DA:1115,0
DA:1120,0
DA:1121,0
DA:1144,0
DA:1149,0
end_of_record
SF:/usr/include/c++/11/utility
DA:189,0
end_of_record
SF:/usr/include/c++/11/bits/basic_string.h
FN:237,_ZNSt7__cxx1112basic_stringIcSt11char_traitsIcESaIcEE10_M_disposeEv
FNDA:0,_ZNSt7__cxx1112basic_stringIcSt11char_traitsIcESaIcEE10_M_disposeEv
DA:194,0
DA:195,0
DA:208,0
DA:211,0
DA:229,0
DA:230,0
DA:237,0
DA:239,0
DA:240,0
DA:241,0
DA:244,0
DA:245,0
DA:294,0
DA:295,0
end_of_record
SF:/usr/include/c++/11/bits/hashtable_policy.h
FN:696,_ZNSt8__detail9_Map_baseISt10shared_ptrIN5muduo3net13TcpConnectionEESt4pairIKS5_S1_IN7hare_mq10connectionEEESaISB_ENS_10_Select1stESt8equal_toIS5_ESt4hashIS5_ENS_18_Mod_range_hashingENS_20_Default_ranged_hashENS_20_Prime_rehash_policyENS_17_Hashtable_traitsILb0ELb0ELb1EEELb1EEixERS7_
FNDA:1,_ZNSt8__detail9_Map_baseISt10shared_ptrIN5muduo3net13TcpConnectionEESt4pairIKS5_S1_IN7hare_mq10connectionEEESaISB_ENS_10_Select1stESt8equal_toIS5_ESt4hashIS5_ENS_18_Mod_range_hashingENS_20_Default_ranged_hashENS_20_Prime_rehash_policyENS_17_Hashtable_traitsILb0ELb0ELb1EEELb1EEixERS7_
FN:1870,_ZNSt8__detail16_Hashtable_allocISaINS_10_Hash_nodeISt4pairIKSt10shared_ptrIN5muduo3net13TcpConnectionEES3_IN7hare_mq10connectionEEELb0EEEEE16_M_allocate_nodeIJRKSt21piecewise_construct_tSt5tupleIJRS8_EESK_IJEEEEEPSD_DpOT_
FNDA:1,_ZNSt8__detail16_Hashtable_allocISaINS_10_Hash_nodeISt4pairIKSt10shared_ptrIN5muduo3net13TcpConnectionEES3_IN7hare_mq10connectionEEELb0EEEEE16_M_allocate_nodeIJRKSt21piecewise_construct_tSt5tupleIJRS8_EESK_IJEEEEEPSD_DpOT_
FN:1892,_ZNSt8__detail16_Hashtable_allocISaINS_10_Hash_nodeISt4pairIKNSt7__cxx1112basic_stringIcSt11char_traitsIcESaIcEEESt10shared_ptrIN7hare_mq7channelEEELb1EEEEE18_M_deallocate_nodeEPSF_
FNDA:0,_ZNSt8__detail16_Hashtable_allocISaINS_10_Hash_nodeISt4pairIKNSt7__cxx1112basic_stringIcSt11char_traitsIcESaIcEEESt10shared_ptrIN7hare_mq7channelEEELb1EEEEE18_M_deallocate_nodeEPSF_
FN:1892,_ZNSt8__detail16_Hashtable_allocISaINS_10_Hash_nodeISt4pairIKSt10shared_ptrIN5muduo3net13TcpConnectionEES3_IN7hare_mq10connectionEEELb0EEEEE18_M_deallocate_nodeEPSD_
FNDA:0,_ZNSt8__detail16_Hashtable_allocISaINS_10_Hash_nodeISt4pairIKSt10shared_ptrIN5muduo3net13TcpConnectionEES3_IN7hare_mq10connectionEEELb0EEEEE18_M_deallocate_nodeEPSD_
FN:1922,_ZNSt8__detail16_Hashtable_allocISaINS_10_Hash_nodeISt4pairIKSt10shared_ptrIN5muduo3net13TcpConnectionEES3_IN7hare_mq10connectionEEELb0EEEEE19_M_allocate_bucketsEm
FNDA:1,_ZNSt8__detail16_Hashtable_allocISaINS_10_Hash_nodeISt4pairIKSt10shared_ptrIN5muduo3net13TcpConnectionEES3_IN7hare_mq10connectionEEELb0EEEEE19_M_allocate_bucketsEm
DA:219,2
DA:237,1
DA:238,2
DA:242,0
DA:246,0
DA:277,1
DA:282,0
DA:283,0
DA:295,3
DA:296,0
DA:338,3
DA:339,1
DA:346,1
DA:347,0
DA:428,3
DA:430,0
DA:446,1
DA:447,1
DA:473,1
DA:474,1
DA:481,0
DA:482,0
DA:696,1
DA:701,1
DA:702,1
DA:703,1
DA:704,0
DA:705,0
DA:707,1
DA:710,1
DA:711,1
DA:714,1
DA:715,1
DA:716,1
DA:717,1
DA:1124,1
DA:1127,1
DA:1210,1
DA:1215,2
DA:1219,2
DA:1232,3
DA:1233,3
DA:1236,0
DA:1242,0
DA:1604,1
DA:1611,0
DA:1617,0
DA:1802,1
DA:1823,1
DA:1870,1
DA:1873,1
DA:1874,1
DA:1877,1
DA:1878,1
DA:1881,1
DA:1892,0
DA:1894,0
DA:1895,0
DA:1896,0
DA:1892,0
DA:1894,0
DA:1895,0
DA:1896,0
DA:1900,0
DA:1903,0
DA:1904,0
DA:1905,0
DA:1910,1
DA:1912,1
DA:1914,0
DA:1915,0
DA:1916,0
DA:1922,1
DA:1925,1
DA:1927,1
DA:1928,1
DA:1929,1
DA:1930,1
DA:1935,0
DA:1940,0
DA:1941,0
DA:1942,0
DA:1943,0
end_of_record
SF:/usr/include/c++/11/bits/move.h
DA:49,5
DA:77,4
DA:196,1
DA:204,1
DA:206,1
end_of_record
SF:/home/eric/2025MQ/MQproject/2025MQWorkSpace/src/server/connection.cpp
FN:11,_ZN7hare_mq10connectionC2ERKSt10shared_ptrINS_12virtual_hostEERKS1_INS_16consumer_managerEERKS1_I13ProtobufCodecERKS1_IN5muduo3net13TcpConnectionEERKS1_INS_11thread_poolEE
FNDA:1,_ZN7hare_mq10connectionC2ERKSt10shared_ptrINS_12virtual_hostEERKS1_INS_16consumer_managerEERKS1_I13ProtobufCodecERKS1_IN5muduo3net13TcpConnectionEERKS1_INS_11thread_poolEE
FN:19,_ZN7hare_mq10connectionD2Ev
FNDA:1,_ZN7hare_mq10connectionD2Ev
FN:21,_ZN7hare_mq10connection14basic_responseEbRKNSt7__cxx1112basic_stringIcSt11char_traitsIcESaIcEEES8_
FNDA:0,_ZN7hare_mq10connection14basic_responseEbRKNSt7__cxx1112basic_stringIcSt11char_traitsIcESaIcEEES8_
FN:30,_ZN7hare_mq10connection12open_channelERKSt10shared_ptrINS_18openChannelRequestEE
FNDA:0,_ZN7hare_mq10connection12open_channelERKSt10shared_ptrINS_18openChannelRequestEE
FN:36,_ZN7hare_mq10connection13close_channelERKSt10shared_ptrINS_19closeChannelRequestEE
FNDA:0,_ZN7hare_mq10connection13close_channelERKSt10shared_ptrINS_19closeChannelRequestEE
FN:42,_ZN7hare_mq10connection14select_channelERKNSt7__cxx1112basic_stringIcSt11char_traitsIcESaIcEEE
FNDA:0,_ZN7hare_mq10connection14select_channelERKNSt7__cxx1112basic_stringIcSt11char_traitsIcESaIcEEE
FN:50,_ZN7hare_mq18connection_manager14new_connectionERKSt10shared_ptrINS_12virtual_hostEERKS1_INS_16consumer_managerEERKS1_I13ProtobufCodecERKS1_IN5muduo3net13TcpConnectionEERKS1_INS_11thread_poolEE
FNDA:1,_ZN7hare_mq18connection_manager14new_connectionERKSt10shared_ptrINS_12virtual_hostEERKS1_INS_16consumer_managerEERKS1_I13ProtobufCodecERKS1_IN5muduo3net13TcpConnectionEERKS1_INS_11thread_poolEE
FN:62,_ZN7hare_mq18connection_manager17delete_connectionERKSt10shared_ptrIN5muduo3net13TcpConnectionEE
FNDA:0,_ZN7hare_mq18connection_manager17delete_connectionERKSt10shared_ptrIN5muduo3net13TcpConnectionEE
FN:68,_ZN7hare_mq18connection_manager17select_connectionERKSt10shared_ptrIN5muduo3net13TcpConnectionEE
FNDA:0,_ZN7hare_mq18connection_manager17select_connectionERKSt10shared_ptrIN5muduo3net13TcpConnectionEE
DA:11,1
DA:15,1
DA:16,4
DA:17,1
DA:19,5
DA:21,0
DA:23,0
DA:24,0
DA:25,0
DA:26,0
DA:27,0
DA:28,0
DA:30,0
DA:32,0
DA:33,0
DA:34,0
DA:36,0
DA:38,0
DA:39,0
DA:40,0
DA:42,0
DA:44,0
DA:50,1
DA:56,1
DA:57,1
DA:59,1
DA:60,1
DA:62,0
DA:64,0
DA:65,0
DA:66,0
DA:68,0
DA:70,0
DA:71,0
DA:72,0
DA:73,0
end_of_record
SF:/usr/local/include/google/protobuf/arenastring.h
DA:182,0
DA:183,0
DA:203,0
DA:288,0
DA:290,0
end_of_record
SF:/usr/include/c++/11/typeinfo
FN:120,_ZNKSt9type_infoeqERKS_
FNDA:0,_ZNKSt9type_infoeqERKS_
DA:120,0
DA:122,0
DA:123,0
DA:124,0
end_of_record
SF:/usr/include/c++/11/bits/stl_function.h
DA:369,0
DA:370,0
end_of_record
SF:/usr/include/c++/11/bits/allocator.h
DA:156,2
DA:159,2
DA:160,2
DA:169,5
DA:174,7
DA:179,4
DA:185,4
DA:190,2
DA:199,2
end_of_record
SF:/usr/include/c++/11/ext/atomicity.h
DA:47,9
DA:52,9
DA:65,6
DA:66,6
DA:70,3
DA:71,3
DA:82,0
DA:84,0
DA:85,0
DA:86,0
DA:91,0
DA:92,0
DA:96,6
DA:98,6
DA:99,0
DA:101,6
DA:106,3
DA:108,3
DA:109,0
DA:111,3
end_of_record
SF:/usr/include/c++/11/bits/shared_ptr.h
FN:408,_ZNSt10shared_ptrIN7hare_mq10connectionEEC2ISaIS1_EJRKS_INS0_12virtual_hostEERKS_INS0_16consumer_managerEERKS_I13ProtobufCodecERKS_IN5muduo3net13TcpConnectionEERKS_INS0_11thread_poolEEEEESt20_Sp_alloc_shared_tagIT_EDpOT0_
FNDA:1,_ZNSt10shared_ptrIN7hare_mq10connectionEEC2ISaIS1_EJRKS_INS0_12virtual_hostEERKS_INS0_16consumer_managerEERKS_I13ProtobufCodecERKS_IN5muduo3net13TcpConnectionEERKS_INS0_11thread_poolEEEEESt20_Sp_alloc_shared_tagIT_EDpOT0_
FN:408,_ZNSt10shared_ptrIN7hare_mq15channel_managerEEC2ISaIS1_EJEEESt20_Sp_alloc_shared_tagIT_EDpOT0_
FNDA:1,_ZNSt10shared_ptrIN7hare_mq15channel_managerEEC2ISaIS1_EJEEESt20_Sp_alloc_shared_tagIT_EDpOT0_
DA:122,6
DA:148,1
DA:150,5
DA:357,0
DA:383,1
DA:385,1
DA:408,1
DA:409,1
DA:410,1
DA:408,1
DA:409,1
DA:410,1
DA:437,0
DA:438,0
DA:858,2
DA:863,2
DA:875,1
DA:878,2
DA:879,2
DA:888,2
DA:890,2
end_of_record
SF:/usr/include/c++/11/bits/std_mutex.h
FN:98,_ZNSt5mutex4lockEv
FNDA:1,_ZNSt5mutex4lockEv
DA:65,1
DA:91,1
DA:98,1
DA:100,1
DA:103,1
DA:104,0
DA:105,1
DA:115,1
DA:118,1
end_of_record
TN:
SF:/home/eric/2025MQ/MQproject/2025MQWorkSpace/src/tools/muduo/_install/include/muduo/base/Logging.h
FN:36,_ZN5muduo6Logger10SourceFileC2ILi23EEERAT__Kc
FNDA:0,_ZN5muduo6Logger10SourceFileC2ILi23EEERAT__Kc
DA:36,0
DA:37,0
DA:38,0
DA:40,0
DA:41,0
DA:43,0
DA:44,0
DA:46,0
DA:69,0
end_of_record
SF:/usr/include/c++/11/bits/unique_lock.h
FN:131,_ZNSt11unique_lockISt5mutexE4lockEv
FNDA:0,_ZNSt11unique_lockISt5mutexE4lockEv
FN:189,_ZNSt11unique_lockISt5mutexE6unlockEv
FNDA:0,_ZNSt11unique_lockISt5mutexE6unlockEv
DA:66,0
DA:67,0
DA:69,0
DA:70,0
DA:101,0
DA:104,0
DA:131,0
DA:133,0
DA:134,0
DA:135,0
DA:136,0
DA:139,0
DA:140,0
DA:142,0
DA:189,0
DA:191,0
DA:192,0
DA:193,0
DA:195,0
DA:196,0
DA:198,0
end_of_record
SF:/usr/include/c++/11/bits/invoke.h
FN:71,_ZSt13__invoke_implIvRMN7hare_mq7channelEFvRKNSt7__cxx1112basic_stringIcSt11char_traitsIcESaIcEEEPKNS0_15BasicPropertiesES9_ERPS1_JS9_SC_S9_EET_St21__invoke_memfun_derefOT0_OT1_DpOT2_
FNDA:0,_ZSt13__invoke_implIvRMN7hare_mq7channelEFvRKNSt7__cxx1112basic_stringIcSt11char_traitsIcESaIcEEEPKNS0_15BasicPropertiesES9_ERPS1_JS9_SC_S9_EET_St21__invoke_memfun_derefOT0_OT1_DpOT2_
FN:71,_ZSt13__invoke_implIvRMN7hare_mq7channelEFvRKNSt7__cxx1112basic_stringIcSt11char_traitsIcESaIcEEEERPS1_JRS7_EET_St21__invoke_memfun_derefOT0_OT1_DpOT2_
FNDA:0,_ZSt13__invoke_implIvRMN7hare_mq7channelEFvRKNSt7__cxx1112basic_stringIcSt11char_traitsIcESaIcEEEERPS1_JRS7_EET_St21__invoke_memfun_derefOT0_OT1_DpOT2_
DA:60,0
DA:61,0
DA:71,0
DA:74,0
DA:71,0
DA:74,0
DA:90,0
DA:96,0
DA:104,0
DA:111,0
end_of_record
SF:/usr/include/c++/11/new
DA:174,0
DA:175,0
end_of_record
SF:/usr/include/c++/11/tuple
DA:83,0
DA:124,0
DA:187,0
DA:192,0
DA:193,0
DA:195,0
DA:199,0
DA:200,0
DA:233,0
DA:258,0
DA:268,0
DA:283,0
DA:284,0
DA:290,0
DA:292,0
DA:295,0
DA:416,0
DA:424,0
DA:434,0
DA:435,0
DA:444,0
DA:454,0
DA:456,0
DA:727,0
DA:729,0
DA:742,0
DA:744,0
DA:756,0
DA:981,0
DA:1077,0
DA:1079,0
DA:1088,0
DA:1377,0
DA:1378,0
DA:1393,0
DA:1394,0
DA:1405,0
DA:1408,0
DA:1617,0
DA:1618,0
DA:1804,0
DA:1809,0
DA:1816,0
DA:1819,0
DA:1820,0
end_of_record
SF:/usr/local/include/google/protobuf/message_lite.h
DA:425,0
DA:426,0
DA:441,0
end_of_record
SF:/usr/include/c++/11/string_view
FN:312,_ZNKSt17basic_string_viewIcSt11char_traitsIcEE7compareES2_
FNDA:0,_ZNKSt17basic_string_viewIcSt11char_traitsIcEE7compareES2_
FN:535,_ZSteqIcSt11char_traitsIcEEbSt17basic_string_viewIT_T0_ES5_
FNDA:0,_ZSteqIcSt11char_traitsIcEEbSt17basic_string_viewIT_T0_ES5_
FN:549,_ZStssIcSt11char_traitsIcEEDTcl21__char_traits_cmp_catIT0_ELi0EEESt17basic_string_viewIT_S2_ES6_
FNDA:0,_ZStssIcSt11char_traitsIcEEDTcl21__char_traits_cmp_catIT0_ELi0EEESt17basic_string_viewIT_S2_ES6_
DA:137,0
DA:211,0
DA:212,0
DA:312,0
DA:314,0
DA:315,0
DA:316,0
DA:317,0
DA:318,0
DA:500,0
DA:503,0
DA:504,0
DA:506,0
DA:508,0
DA:535,0
DA:537,0
DA:549,0
DA:552,0
DA:694,0
DA:695,0
end_of_record
SF:/usr/include/c++/11/bits/alloc_traits.h
DA:463,0
DA:464,0
DA:495,0
DA:496,0
DA:511,0
DA:518,0
DA:520,0
DA:531,0
DA:537,0
DA:562,0
DA:563,0
DA:845,0
end_of_record
SF:/home/eric/2025MQ/MQproject/2025MQWorkSpace/src/tools/muduo/_install/include/muduo/base/LogStream.h
FN:39,_ZN5muduo6detail11FixedBufferILi4000EE6appendEPKcm
FNDA:0,_ZN5muduo6detail11FixedBufferILi4000EE6appendEPKcm
FN:120,_ZN5muduo9LogStreamlsEPKc
FNDA:0,_ZN5muduo9LogStreamlsEPKc
DA:39,0
DA:42,0
DA:44,0
DA:45,0
DA:47,0
DA:54,0
DA:68,0
DA:120,0
DA:122,0
DA:124,0
DA:128,0
DA:130,0
DA:138,0
DA:140,0
DA:141,0
end_of_record
SF:/usr/include/c++/11/bits/stl_construct.h
FN:94,_ZSt12construct_atIN7hare_mq7channelEJRKNSt7__cxx1112basic_stringIcSt11char_traitsIcESaIcEEERKSt10shared_ptrINS0_12virtual_hostEERKSA_INS0_16consumer_managerEERKSA_I13ProtobufCodecERKSA_IN5muduo3net13TcpConnectionEERKSA_INS0_11thread_poolEEEEDTgsnwcvPvLi0E_T_pispcl7declvalIT0_EEEEPSY_DpOSZ_
FNDA:0,_ZSt12construct_atIN7hare_mq7channelEJRKNSt7__cxx1112basic_stringIcSt11char_traitsIcESaIcEEERKSt10shared_ptrINS0_12virtual_hostEERKSA_INS0_16consumer_managerEERKSA_I13ProtobufCodecERKSA_IN5muduo3net13TcpConnectionEERKSA_INS0_11thread_poolEEEEDTgsnwcvPvLi0E_T_pispcl7declvalIT0_EEEEPSY_DpOSZ_
DA:80,0
DA:88,0
DA:94,0
DA:97,0
DA:109,0
end_of_record
SF:/usr/include/c++/11/bits/stl_tree.h
FN:1303,_ZNKSt8_Rb_treeISt17reference_wrapperIKNSt7__cxx1112basic_stringIcSt11char_traitsIcESaIcEEEESt4pairIKS8_PvESt10_Select1stISC_EN6google8protobuf8internal18TransparentSupportIS6_E4lessENSH_12MapAllocatorISC_EEE10_M_find_trIS6_vEESt23_Rb_tree_const_iteratorISC_ERKT_
FNDA:0,_ZNKSt8_Rb_treeISt17reference_wrapperIKNSt7__cxx1112basic_stringIcSt11char_traitsIcESaIcEEEESt4pairIKS8_PvESt10_Select1stISC_EN6google8protobuf8internal18TransparentSupportIS6_E4lessENSH_12MapAllocatorISC_EEE10_M_find_trIS6_vEESt23_Rb_tree_const_iteratorISC_ERKT_
FN:1332,_ZNKSt8_Rb_treeISt17reference_wrapperIKNSt7__cxx1112basic_stringIcSt11char_traitsIcESaIcEEEESt4pairIKS8_PvESt10_Select1stISC_EN6google8protobuf8internal18TransparentSupportIS6_E4lessENSH_12MapAllocatorISC_EEE17_M_lower_bound_trIS6_vEESt23_Rb_tree_const_iteratorISC_ERKT_
FNDA:0,_ZNKSt8_Rb_treeISt17reference_wrapperIKNSt7__cxx1112basic_stringIcSt11char_traitsIcESaIcEEEESt4pairIKS8_PvESt10_Select1stISC_EN6google8protobuf8internal18TransparentSupportIS6_E4lessENSH_12MapAllocatorISC_EEE17_M_lower_bound_trIS6_vEESt23_Rb_tree_const_iteratorISC_ERKT_
DA:235,0
DA:239,0
DA:269,0
DA:270,0
DA:273,0
DA:281,0
DA:285,0
DA:287,0
DA:315,0
DA:347,0
DA:354,0
DA:355,0
DA:396,0
DA:742,0
DA:745,0
DA:753,0
DA:754,0
DA:757,0
DA:775,0
DA:783,0
DA:784,0
DA:791,0
DA:792,0
DA:795,0
DA:796,0
DA:995,0
DA:996,0
DA:1003,0
DA:1004,0
DA:1007,0
DA:1008,0
DA:1027,0
DA:1028,0
DA:1294,0
DA:1296,0
DA:1297,0
DA:1303,0
DA:1305,0
DA:1306,0
DA:1308,0
DA:1332,0
DA:1334,0
DA:1335,0
DA:1336,0
DA:1337,0
DA:1339,0
DA:1340,0
DA:1343,0
DA:1344,0
end_of_record
SF:/usr/include/c++/11/ext/aligned_buffer.h
DA:69,0
DA:102,0
DA:104,0
DA:110,0
DA:114,0
DA:115,0
end_of_record
SF:/usr/include/c++/11/iostream
end_of_record
SF:/home/eric/2025MQ/MQproject/2025MQWorkSpace/src/server/route.hpp
FN:17,_ZN7hare_mq6router11match_routeENS_12ExchangeTypeERKNSt7__cxx1112basic_stringIcSt11char_traitsIcESaIcEEES9_
FNDA:0,_ZN7hare_mq6router11match_routeENS_12ExchangeTypeERKNSt7__cxx1112basic_stringIcSt11char_traitsIcESaIcEEES9_
FN:32,_ZZN7hare_mq6router11match_routeENS_12ExchangeTypeERKNSt7__cxx1112basic_stringIcSt11char_traitsIcESaIcEEES9_ENKUlS9_S9_E_clES9_S9_
FNDA:0,_ZZN7hare_mq6router11match_routeENS_12ExchangeTypeERKNSt7__cxx1112basic_stringIcSt11char_traitsIcESaIcEEES9_ENKUlS9_S9_E_clES9_S9_
DA:17,0
DA:21,0
DA:22,0
DA:24,0
DA:30,0
DA:32,0
DA:34,0
DA:35,0
DA:36,0
DA:37,0
DA:39,0
DA:41,0
DA:42,0
DA:44,0
DA:46,0
DA:47,0
DA:50,0
DA:52,0
DA:55,0
DA:56,0
DA:57,0
DA:58,0
DA:60,0
DA:63,0
DA:64,0
end_of_record
SF:/usr/include/c++/11/bits/shared_ptr_base.h
FN:140,_ZNSt16_Sp_counted_baseILN9__gnu_cxx12_Lock_policyE2EE10_M_destroyEv
FNDA:0,_ZNSt16_Sp_counted_baseILN9__gnu_cxx12_Lock_policyE2EE10_M_destroyEv
FN:147,_ZNSt16_Sp_counted_baseILN9__gnu_cxx12_Lock_policyE2EE15_M_add_ref_copyEv
FNDA:0,_ZNSt16_Sp_counted_baseILN9__gnu_cxx12_Lock_policyE2EE15_M_add_ref_copyEv
FN:161,_ZNSt16_Sp_counted_baseILN9__gnu_cxx12_Lock_policyE2EE10_M_releaseEv
FNDA:0,_ZNSt16_Sp_counted_baseILN9__gnu_cxx12_Lock_policyE2EE10_M_releaseEv
FN:375,_ZNSt15_Sp_counted_ptrIDnLN9__gnu_cxx12_Lock_policyE2EE10_M_disposeEv
FNDA:0,_ZNSt15_Sp_counted_ptrIDnLN9__gnu_cxx12_Lock_policyE2EE10_M_disposeEv
FN:523,_ZNSt23_Sp_counted_ptr_inplaceISt5mutexSaIS0_ELN9__gnu_cxx12_Lock_policyE2EED0Ev
FNDA:0,_ZNSt23_Sp_counted_ptr_inplaceISt5mutexSaIS0_ELN9__gnu_cxx12_Lock_policyE2EED0Ev
FN:523,_ZNSt23_Sp_counted_ptr_inplaceISt5mutexSaIS0_ELN9__gnu_cxx12_Lock_policyE2EED2Ev
FNDA:0,_ZNSt23_Sp_counted_ptr_inplaceISt5mutexSaIS0_ELN9__gnu_cxx12_Lock_policyE2EED2Ev
FN:523,_ZNSt23_Sp_counted_ptr_inplaceIN7hare_mq7channelESaIS1_ELN9__gnu_cxx12_Lock_policyE2EED0Ev
FNDA:0,_ZNSt23_Sp_counted_ptr_inplaceIN7hare_mq7channelESaIS1_ELN9__gnu_cxx12_Lock_policyE2EED0Ev
FN:523,_ZNSt23_Sp_counted_ptr_inplaceIN7hare_mq7channelESaIS1_ELN9__gnu_cxx12_Lock_policyE2EED2Ev
FNDA:0,_ZNSt23_Sp_counted_ptr_inplaceIN7hare_mq7channelESaIS1_ELN9__gnu_cxx12_Lock_policyE2EED2Ev
FN:526,_ZNSt23_Sp_counted_ptr_inplaceISt5mutexSaIS0_ELN9__gnu_cxx12_Lock_policyE2EE10_M_disposeEv
FNDA:0,_ZNSt23_Sp_counted_ptr_inplaceISt5mutexSaIS0_ELN9__gnu_cxx12_Lock_policyE2EE10_M_disposeEv
FN:526,_ZNSt23_Sp_counted_ptr_inplaceIN7hare_mq7channelESaIS1_ELN9__gnu_cxx12_Lock_policyE2EE10_M_disposeEv
FNDA:0,_ZNSt23_Sp_counted_ptr_inplaceIN7hare_mq7channelESaIS1_ELN9__gnu_cxx12_Lock_policyE2EE10_M_disposeEv
FN:533,_ZNSt23_Sp_counted_ptr_inplaceISt5mutexSaIS0_ELN9__gnu_cxx12_Lock_policyE2EE10_M_destroyEv
FNDA:0,_ZNSt23_Sp_counted_ptr_inplaceISt5mutexSaIS0_ELN9__gnu_cxx12_Lock_policyE2EE10_M_destroyEv
FN:533,_ZNSt23_Sp_counted_ptr_inplaceIN7hare_mq7channelESaIS1_ELN9__gnu_cxx12_Lock_policyE2EE10_M_destroyEv
FNDA:0,_ZNSt23_Sp_counted_ptr_inplaceIN7hare_mq7channelESaIS1_ELN9__gnu_cxx12_Lock_policyE2EE10_M_destroyEv
FN:546,_ZNSt23_Sp_counted_ptr_inplaceIN7hare_mq7channelESaIS1_ELN9__gnu_cxx12_Lock_policyE2EE14_M_get_deleterERKSt9type_info
FNDA:0,_ZNSt23_Sp_counted_ptr_inplaceIN7hare_mq7channelESaIS1_ELN9__gnu_cxx12_Lock_policyE2EE14_M_get_deleterERKSt9type_info
FN:643,_ZNSt14__shared_countILN9__gnu_cxx12_Lock_policyE2EEC2IN7hare_mq7channelESaIS5_EJRKNSt7__cxx1112basic_stringIcSt11char_traitsIcESaIcEEERKSt10shared_ptrINS4_12virtual_hostEERKSF_INS4_16consumer_managerEERKSF_I13ProtobufCodecERKSF_IN5muduo3net13TcpConnectionEERKSF_INS4_11thread_poolEEEEERPT_St20_Sp_alloc_shared_tagIT0_EDpOT1_
FNDA:0,_ZNSt14__shared_countILN9__gnu_cxx12_Lock_policyE2EEC2IN7hare_mq7channelESaIS5_EJRKNSt7__cxx1112basic_stringIcSt11char_traitsIcESaIcEEERKSt10shared_ptrINS4_12virtual_hostEERKSF_INS4_16consumer_managerEERKSF_I13ProtobufCodecERKSF_IN5muduo3net13TcpConnectionEERKSF_INS4_11thread_poolEEEEERPT_St20_Sp_alloc_shared_tagIT0_EDpOT1_
FN:1248,_ZNSt12__shared_ptrIN7hare_mq7channelELN9__gnu_cxx12_Lock_policyE2EEaSEOS4_
FNDA:0,_ZNSt12__shared_ptrIN7hare_mq7channelELN9__gnu_cxx12_Lock_policyE2EEaSEOS4_
FN:1248,_ZNSt12__shared_ptrIN7hare_mq8consumerELN9__gnu_cxx12_Lock_policyE2EEaSEOS4_
FNDA:0,_ZNSt12__shared_ptrIN7hare_mq8consumerELN9__gnu_cxx12_Lock_policyE2EEaSEOS4_
DA:126,0
DA:127,0
DA:130,0
DA:140,0
DA:141,0
DA:147,0
DA:148,0
DA:161,0
DA:165,0
DA:168,0
DA:180,0
DA:184,0
DA:187,0
DA:375,0
DA:383,0
DA:385,0
DA:479,0
DA:481,0
DA:482,0
DA:497,0
DA:502,0
DA:514,0
DA:515,0
DA:519,0
DA:521,0
DA:523,0
DA:523,0
DA:523,0
DA:523,0
DA:523,0
DA:526,0
DA:528,0
DA:529,0
DA:526,0
DA:528,0
DA:529,0
DA:533,0
DA:535,0
DA:536,0
DA:537,0
DA:538,0
DA:533,0
DA:535,0
DA:536,0
DA:537,0
DA:538,0
DA:546,0
DA:548,0
DA:554,0
DA:556,0
DA:561,0
DA:565,0
DA:587,0
DA:643,0
DA:647,0
DA:648,0
DA:649,0
DA:650,0
DA:651,0
DA:652,0
DA:653,0
DA:654,0
DA:655,0
DA:702,0
DA:704,0
DA:705,0
DA:708,0
DA:709,0
DA:711,0
DA:712,0
DA:731,0
DA:733,0
DA:734,0
DA:984,0
DA:987,0
DA:992,0
DA:993,0
DA:1092,0
DA:1093,0
DA:1152,0
DA:1154,0
DA:1161,0
DA:1162,0
DA:1164,0
DA:1165,0
DA:1248,0
DA:1250,0
DA:1251,0
DA:1248,0
DA:1250,0
DA:1251,0
DA:1295,0
DA:1296,0
DA:1299,0
DA:1300,0
DA:1314,0
DA:1316,0
DA:1317,0
DA:1341,0
DA:1342,0
DA:1343,0
DA:1386,0
end_of_record
SF:/usr/include/c++/11/bits/unordered_map.h
FN:172,_ZNSt13unordered_mapINSt7__cxx1112basic_stringIcSt11char_traitsIcESaIcEEES5_St4hashIS5_ESt8equal_toIS5_ESaISt4pairIKS5_S5_EEEC2IN6google8protobuf3MapIS5_S5_E14const_iteratorEEET_SL_mRKS7_RKS9_RKSD_
FNDA:0,_ZNSt13unordered_mapINSt7__cxx1112basic_stringIcSt11char_traitsIcESaIcEEES5_St4hashIS5_ESt8equal_toIS5_ESaISt4pairIKS5_S5_EEEC2IN6google8protobuf3MapIS5_S5_E14const_iteratorEEET_SL_mRKS7_RKS9_RKSD_
DA:102,0
DA:172,0
DA:177,0
DA:178,0
DA:325,0
DA:326,0
DA:347,0
DA:348,0
DA:762,0
DA:763,0
DA:868,0
DA:869,0
DA:901,0
DA:902,0
DA:979,0
DA:980,0
end_of_record
SF:/home/eric/2025MQ/MQproject/2025MQWorkSpace/src/tools/muduo/_install/include/muduo/base/Types.h
DA:80,0
DA:82,0
end_of_record
SF:/usr/include/c++/11/bits/stl_uninitialized.h
FN:595,_ZNSt27__uninitialized_default_n_1ILb1EE18__uninit_default_nIPcmEET_S3_T0_
FNDA:0,_ZNSt27__uninitialized_default_n_1ILb1EE18__uninit_default_nIPcmEET_S3_T0_
DA:595,0
DA:597,0
DA:600,0
DA:601,0
DA:602,0
DA:603,0
DA:605,0
DA:630,0
DA:635,0
DA:640,0
DA:702,0
DA:704,0
end_of_record
SF:/usr/include/c++/11/bits/stl_vector.h
FN:333,_ZNSt12_Vector_baseIcSaIcEED2Ev
FNDA:0,_ZNSt12_Vector_baseIcSaIcEED2Ev
FN:359,_ZNSt12_Vector_baseIcSaIcEE17_M_create_storageEm
FNDA:0,_ZNSt12_Vector_baseIcSaIcEE17_M_create_storageEm
FN:510,_ZNSt6vectorIcSaIcEEC2EmRKS0_
FNDA:0,_ZNSt6vectorIcSaIcEEC2EmRKS0_
DA:97,0
DA:98,0
DA:128,0
DA:136,0
DA:137,0
DA:276,0
DA:277,0
DA:303,0
DA:304,0
DA:305,0
DA:333,0
DA:335,0
DA:336,0
DA:337,0
DA:343,0
DA:346,0
DA:350,0
DA:353,0
DA:354,0
DA:359,0
DA:361,0
DA:362,0
DA:363,0
DA:364,0
DA:510,0
DA:511,0
DA:512,0
DA:678,0
DA:680,0
DA:681,0
DA:683,0
DA:918,0
DA:919,0
DA:1603,0
DA:1605,0
DA:1606,0
DA:1607,0
DA:1767,0
DA:1769,0
DA:1770,0
end_of_record
SF:/usr/include/x86_64-linux-gnu/c++/11/bits/gthr-default.h
DA:746,0
DA:748,0
DA:749,0
DA:776,0
DA:778,0
DA:779,0
end_of_record
SF:/home/eric/2025MQ/MQproject/2025MQWorkSpace/src/common/protocol.pb.h
FN:5046,_ZN7hare_mq19basicPublishRequest28_internal_mutable_propertiesEv
FNDA:0,_ZN7hare_mq19basicPublishRequest28_internal_mutable_propertiesEv
FN:6145,_ZN7hare_mq20basicConsumeResponse28_internal_mutable_propertiesEv
FNDA:0,_ZN7hare_mq20basicConsumeResponse28_internal_mutable_propertiesEv
DA:1831,0
DA:1832,0
DA:2770,0
DA:2945,0
DA:3145,0
DA:3545,0
DA:3547,0
DA:3561,0
DA:3562,0
DA:3595,0
DA:3597,0
DA:3611,0
DA:3612,0
DA:3645,0
DA:3647,0
DA:3661,0
DA:3662,0
DA:3695,0
DA:3696,0
DA:3698,0
DA:3700,0
DA:3715,0
DA:3716,0
DA:3718,0
DA:3720,0
DA:3735,0
DA:3736,0
DA:3738,0
DA:3740,0
DA:3762,0
DA:3763,0
DA:3766,0
DA:3768,0
DA:3788,0
DA:3790,0
DA:3804,0
DA:3805,0
DA:3838,0
DA:3840,0
DA:3854,0
DA:3855,0
DA:3888,0
DA:3890,0
DA:3904,0
DA:3905,0
DA:3944,0
DA:3946,0
DA:3960,0
DA:3961,0
DA:3994,0
DA:3996,0
DA:4010,0
DA:4011,0
DA:4044,0
DA:4046,0
DA:4060,0
DA:4061,0
DA:4094,0
DA:4095,0
DA:4097,0
DA:4099,0
DA:4114,0
DA:4115,0
DA:4117,0
DA:4119,0
DA:4134,0
DA:4135,0
DA:4137,0
DA:4139,0
DA:4161,0
DA:4162,0
DA:4165,0
DA:4167,0
DA:4187,0
DA:4189,0
DA:4203,0
DA:4204,0
DA:4237,0
DA:4239,0
DA:4253,0
DA:4254,0
DA:4287,0
DA:4289,0
DA:4303,0
DA:4304,0
DA:4341,0
DA:4343,0
DA:4357,0
DA:4358,0
DA:4391,0
DA:4393,0
DA:4407,0
DA:4408,0
DA:4441,0
DA:4443,0
DA:4457,0
DA:4458,0
DA:4491,0
DA:4493,0
DA:4507,0
DA:4508,0
DA:4541,0
DA:4543,0
DA:4557,0
DA:4558,0
DA:4595,0
DA:4597,0
DA:4611,0
DA:4612,0
DA:4645,0
DA:4647,0
DA:4661,0
DA:4662,0
DA:4695,0
DA:4697,0
DA:4711,0
DA:4712,0
DA:4745,0
DA:4747,0
DA:4761,0
DA:4762,0
DA:4799,0
DA:4801,0
DA:4815,0
DA:4816,0
DA:4849,0
DA:4851,0
DA:4865,0
DA:4866,0
DA:4899,0
DA:4901,0
DA:4915,0
DA:4916,0
DA:4949,0
DA:4951,0
DA:4965,0
DA:4966,0
DA:4996,0
DA:4997,0
DA:4999,0
DA:5000,0
DA:5046,0
DA:5048,0
DA:5049,0
DA:5050,0
DA:5052,0
DA:5054,0
DA:5055,0
DA:5057,0
DA:5088,0
DA:5090,0
DA:5104,0
DA:5105,0
DA:5138,0
DA:5140,0
DA:5154,0
DA:5155,0
DA:5188,0
DA:5190,0
DA:5204,0
DA:5205,0
DA:5238,0
DA:5240,0
DA:5254,0
DA:5255,0
DA:5292,0
DA:5294,0
DA:5308,0
DA:5309,0
DA:5342,0
DA:5344,0
DA:5358,0
DA:5359,0
DA:5392,0
DA:5394,0
DA:5408,0
DA:5409,0
DA:5442,0
DA:5444,0
DA:5458,0
DA:5459,0
DA:5492,0
DA:5493,0
DA:5495,0
DA:5497,0
DA:5516,0
DA:5518,0
DA:5532,0
DA:5533,0
DA:5566,0
DA:5568,0
DA:5582,0
DA:5583,0
DA:5616,0
DA:5618,0
DA:5632,0
DA:5633,0
DA:5666,0
DA:5668,0
DA:5682,0
DA:5683,0
DA:5720,0
DA:5722,0
DA:5736,0
DA:5737,0
DA:5830,0
DA:5832,0
DA:5834,0
DA:5880,0
DA:5882,0
DA:5884,0
DA:5931,0
DA:5933,0
DA:5935,0
DA:5936,0
DA:5954,0
DA:5956,0
DA:5958,0
DA:6004,0
DA:6006,0
DA:6008,0
DA:6054,0
DA:6056,0
DA:6058,0
DA:6145,0
DA:6147,0
DA:6148,0
DA:6149,0
DA:6151,0
DA:6153,0
DA:6154,0
DA:6156,0
DA:6193,0
DA:6195,0
DA:6197,0
DA:6243,0
DA:6245,0
DA:6247,0
DA:6293,0
DA:6295,0
DA:6297,0
end_of_record
SF:/usr/include/c++/11/bits/functional_hash.h
DA:196,0
DA:198,0
end_of_record
SF:/home/eric/2025MQ/MQproject/2025MQWorkSpace/src/common/msg.pb.h
FN:816,_ZN7hare_mq14MessagePayload28_internal_mutable_propertiesEv
FNDA:0,_ZN7hare_mq14MessagePayload28_internal_mutable_propertiesEv
FN:1010,_ZN7hare_mq7Message25_internal_mutable_payloadEv
FNDA:0,_ZN7hare_mq7Message25_internal_mutable_payloadEv
DA:639,0
DA:641,0
DA:645,0
DA:647,0
DA:649,0
DA:655,0
DA:656,0
DA:689,0
DA:690,0
DA:692,0
DA:694,0
DA:696,0
DA:698,0
DA:700,0
DA:701,0
DA:709,0
DA:711,0
DA:715,0
DA:717,0
DA:719,0
DA:725,0
DA:726,0
DA:772,0
DA:773,0
DA:774,0
DA:777,0
DA:779,0
DA:816,0
DA:818,0
DA:819,0
DA:820,0
DA:822,0
DA:824,0
DA:825,0
DA:827,0
DA:853,0
DA:855,0
DA:869,0
DA:870,0
DA:966,0
DA:967,0
DA:968,0
DA:971,0
DA:973,0
DA:1010,0
DA:1012,0
DA:1013,0
DA:1014,0
DA:1016,0
DA:1018,0
DA:1019,0
DA:1021,0
end_of_record
SF:/home/eric/2025MQ/MQproject/2025MQWorkSpace/src/tools/muduo/_install/include/muduo/protoc/codec.h
FN:70,_ZN13ProtobufCodec4sendERKSt10shared_ptrIN5muduo3net13TcpConnectionEERKN6google8protobuf7MessageE
FNDA:0,_ZN13ProtobufCodec4sendERKSt10shared_ptrIN5muduo3net13TcpConnectionEERKN6google8protobuf7MessageE
DA:70,0
DA:74,0
DA:75,0
DA:76,0
DA:77,0
end_of_record
SF:/usr/include/c++/11/ext/new_allocator.h
FN:103,_ZN9__gnu_cxx13new_allocatorINSt8__detail10_Hash_nodeISt4pairIKNSt7__cxx1112basic_stringIcSt11char_traitsIcESaIcEEES9_ELb1EEEE8allocateEmPKv
FNDA:0,_ZN9__gnu_cxx13new_allocatorINSt8__detail10_Hash_nodeISt4pairIKNSt7__cxx1112basic_stringIcSt11char_traitsIcESaIcEEES9_ELb1EEEE8allocateEmPKv
FN:103,_ZN9__gnu_cxx13new_allocatorISt23_Sp_counted_ptr_inplaceIN7hare_mq7channelESaIS3_ELNS_12_Lock_policyE2EEE8allocateEmPKv
FNDA:0,_ZN9__gnu_cxx13new_allocatorISt23_Sp_counted_ptr_inplaceIN7hare_mq7channelESaIS3_ELNS_12_Lock_policyE2EEE8allocateEmPKv
FN:103,_ZN9__gnu_cxx13new_allocatorIPNSt8__detail15_Hash_node_baseEE8allocateEmPKv
FNDA:0,_ZN9__gnu_cxx13new_allocatorIPNSt8__detail15_Hash_node_baseEE8allocateEmPKv
FN:103,_ZN9__gnu_cxx13new_allocatorINSt8__detail10_Hash_nodeISt4pairIKNSt7__cxx1112basic_stringIcSt11char_traitsIcESaIcEEESt10shared_ptrIN7hare_mq7channelEEELb1EEEE8allocateEmPKv
FNDA:0,_ZN9__gnu_cxx13new_allocatorINSt8__detail10_Hash_nodeISt4pairIKNSt7__cxx1112basic_stringIcSt11char_traitsIcESaIcEEESt10shared_ptrIN7hare_mq7channelEEELb1EEEE8allocateEmPKv
FN:103,_ZN9__gnu_cxx13new_allocatorIcE8allocateEmPKv
FNDA:0,_ZN9__gnu_cxx13new_allocatorIcE8allocateEmPKv
FN:132,_ZN9__gnu_cxx13new_allocatorISt23_Sp_counted_ptr_inplaceIN7hare_mq7channelESaIS3_ELNS_12_Lock_policyE2EEE10deallocateEPS6_m
FNDA:0,_ZN9__gnu_cxx13new_allocatorISt23_Sp_counted_ptr_inplaceIN7hare_mq7channelESaIS3_ELNS_12_Lock_policyE2EEE10deallocateEPS6_m
FN:132,_ZN9__gnu_cxx13new_allocatorISt23_Sp_counted_ptr_inplaceISt5mutexSaIS2_ELNS_12_Lock_policyE2EEE10deallocateEPS5_m
FNDA:0,_ZN9__gnu_cxx13new_allocatorISt23_Sp_counted_ptr_inplaceISt5mutexSaIS2_ELNS_12_Lock_policyE2EEE10deallocateEPS5_m
FN:132,_ZN9__gnu_cxx13new_allocatorINSt8__detail10_Hash_nodeISt4pairIKNSt7__cxx1112basic_stringIcSt11char_traitsIcESaIcEEESt10shared_ptrIN7hare_mq7bindingEEELb1EEEE10deallocateEPSG_m
FNDA:0,_ZN9__gnu_cxx13new_allocatorINSt8__detail10_Hash_nodeISt4pairIKNSt7__cxx1112basic_stringIcSt11char_traitsIcESaIcEEESt10shared_ptrIN7hare_mq7bindingEEELb1EEEE10deallocateEPSG_m
FN:132,_ZN9__gnu_cxx13new_allocatorINSt8__detail10_Hash_nodeISt4pairIKNSt7__cxx1112basic_stringIcSt11char_traitsIcESaIcEEES9_ELb1EEEE10deallocateEPSC_m
FNDA:0,_ZN9__gnu_cxx13new_allocatorINSt8__detail10_Hash_nodeISt4pairIKNSt7__cxx1112basic_stringIcSt11char_traitsIcESaIcEEES9_ELb1EEEE10deallocateEPSC_m
FN:132,_ZN9__gnu_cxx13new_allocatorINSt8__detail10_Hash_nodeISt4pairIKNSt7__cxx1112basic_stringIcSt11char_traitsIcESaIcEEESt10shared_ptrIN7hare_mq7channelEEELb1EEEE10deallocateEPSG_m
FNDA:0,_ZN9__gnu_cxx13new_allocatorINSt8__detail10_Hash_nodeISt4pairIKNSt7__cxx1112basic_stringIcSt11char_traitsIcESaIcEEESt10shared_ptrIN7hare_mq7channelEEELb1EEEE10deallocateEPSG_m
FN:132,_ZN9__gnu_cxx13new_allocatorIPNSt8__detail15_Hash_node_baseEE10deallocateEPS3_m
FNDA:0,_ZN9__gnu_cxx13new_allocatorIPNSt8__detail15_Hash_node_baseEE10deallocateEPS3_m
FN:132,_ZN9__gnu_cxx13new_allocatorIcE10deallocateEPcm
FNDA:0,_ZN9__gnu_cxx13new_allocatorIcE10deallocateEPcm
DA:79,0
DA:82,0
DA:103,0
DA:111,0
DA:115,0
DA:116,0
DA:117,0
DA:127,0
DA:103,0
DA:111,0
DA:115,0
DA:116,0
DA:117,0
DA:127,0
DA:103,0
DA:111,0
DA:115,0
DA:116,0
DA:117,0
DA:127,0
DA:103,0
DA:111,0
DA:115,0
DA:116,0
DA:117,0
DA:127,0
DA:103,0
DA:111,0
DA:117,0
DA:127,0
DA:132,0
DA:145,0
DA:132,0
DA:145,0
DA:132,0
DA:145,0
DA:132,0
DA:145,0
DA:132,0
DA:145,0
DA:132,0
DA:145,0
DA:132,0
DA:145,0
end_of_record
SF:/usr/local/include/google/protobuf/map.h
FN:246,_ZNK6google8protobuf8internal18TransparentSupportINSt7__cxx1112basic_stringIcSt11char_traitsIcESaIcEEEE4lessclISt17reference_wrapperIKS8_ES8_EEbRKT_RKT0_
FNDA:0,_ZNK6google8protobuf8internal18TransparentSupportINSt7__cxx1112basic_stringIcSt11char_traitsIcESaIcEEEE4lessclISt17reference_wrapperIKS8_ES8_EEbRKT_RKT0_
FN:246,_ZNK6google8protobuf8internal18TransparentSupportINSt7__cxx1112basic_stringIcSt11char_traitsIcESaIcEEEE4lessclIS8_St17reference_wrapperIKS8_EEEbRKT_RKT0_
FNDA:0,_ZNK6google8protobuf8internal18TransparentSupportINSt7__cxx1112basic_stringIcSt11char_traitsIcESaIcEEEE4lessclIS8_St17reference_wrapperIKS8_EEEbRKT_RKT0_
FN:252,_ZN6google8protobuf8internal18TransparentSupportINSt7__cxx1112basic_stringIcSt11char_traitsIcESaIcEEEE6EqualsIS8_S8_EEbRKT_RKT0_
FNDA:0,_ZN6google8protobuf8internal18TransparentSupportINSt7__cxx1112basic_stringIcSt11char_traitsIcESaIcEEEE6EqualsIS8_S8_EEbRKT_RKT0_
FN:269,_ZN6google8protobuf8internal24TableEntryIsNonEmptyListEPKPvm
FNDA:0,_ZN6google8protobuf8internal24TableEntryIsNonEmptyListEPKPvm
FN:272,_ZN6google8protobuf8internal16TableEntryIsTreeEPKPvm
FNDA:0,_ZN6google8protobuf8internal16TableEntryIsTreeEPKPvm
FN:528,_ZN6google8protobuf3MapINSt7__cxx1112basic_stringIcSt11char_traitsIcESaIcEEES7_E8InnerMap13iterator_baseIKNS0_7MapPairIS7_S7_EEEC2ESt17_Rb_tree_iteratorISt4pairIKSt17reference_wrapperIKS7_EPvEEPKS9_m
FNDA:0,_ZN6google8protobuf3MapINSt7__cxx1112basic_stringIcSt11char_traitsIcESaIcEEES7_E8InnerMap13iterator_baseIKNS0_7MapPairIS7_S7_EEEC2ESt17_Rb_tree_iteratorISt4pairIKSt17reference_wrapperIKS7_EPvEEPKS9_m
FN:537,_ZN6google8protobuf3MapINSt7__cxx1112basic_stringIcSt11char_traitsIcESaIcEEES7_E8InnerMap13iterator_baseIKNS0_7MapPairIS7_S7_EEE10SearchFromEm
FNDA:0,_ZN6google8protobuf3MapINSt7__cxx1112basic_stringIcSt11char_traitsIcESaIcEEES7_E8InnerMap13iterator_baseIKNS0_7MapPairIS7_S7_EEE10SearchFromEm
FN:565,_ZN6google8protobuf3MapINSt7__cxx1112basic_stringIcSt11char_traitsIcESaIcEEES7_E8InnerMap13iterator_baseIKNS0_7MapPairIS7_S7_EEEppEv
FNDA:0,_ZN6google8protobuf3MapINSt7__cxx1112basic_stringIcSt11char_traitsIcESaIcEEES7_E8InnerMap13iterator_baseIKNS0_7MapPairIS7_S7_EEEppEv
FN:596,_ZN6google8protobuf3MapINSt7__cxx1112basic_stringIcSt11char_traitsIcESaIcEEES7_E8InnerMap13iterator_baseIKNS0_7MapPairIS7_S7_EEE23revalidate_if_necessaryEPSt17_Rb_tree_iteratorISt4pairIKSt17reference_wrapperIKS7_EPvEE
FNDA:0,_ZN6google8protobuf3MapINSt7__cxx1112basic_stringIcSt11char_traitsIcESaIcEEES7_E8InnerMap13iterator_baseIKNS0_7MapPairIS7_S7_EEE23revalidate_if_necessaryEPSt17_Rb_tree_iteratorISt4pairIKSt17reference_wrapperIKS7_EPvEE
FN:770,_ZNK6google8protobuf3MapINSt7__cxx1112basic_stringIcSt11char_traitsIcESaIcEEES7_E8InnerMap4findERKS7_PSt17_Rb_tree_iteratorISt4pairIKSt17reference_wrapperISA_EPvEE
FNDA:0,_ZNK6google8protobuf3MapINSt7__cxx1112basic_stringIcSt11char_traitsIcESaIcEEES7_E8InnerMap4findERKS7_PSt17_Rb_tree_iteratorISt4pairIKSt17reference_wrapperISA_EPvEE
FN:778,_ZNK6google8protobuf3MapINSt7__cxx1112basic_stringIcSt11char_traitsIcESaIcEEES7_E8InnerMap10FindHelperIS7_EESt4pairINS9_13iterator_baseIKNS0_7MapPairIS7_S7_EEEEmERKT_PSt17_Rb_tree_iteratorISB_IKSt17reference_wrapperIKS7_EPvEE
FNDA:0,_ZNK6google8protobuf3MapINSt7__cxx1112basic_stringIcSt11char_traitsIcESaIcEEES7_E8InnerMap10FindHelperIS7_EESt4pairINS9_13iterator_baseIKNS0_7MapPairIS7_S7_EEEEmERKT_PSt17_Rb_tree_iteratorISB_IKSt17reference_wrapperIKS7_EPvEE
FN:1030,_ZNK6google8protobuf3MapINSt7__cxx1112basic_stringIcSt11char_traitsIcESaIcEEES7_E8InnerMap12BucketNumberIS7_EEmRKT_
FNDA:0,_ZNK6google8protobuf3MapINSt7__cxx1112basic_stringIcSt11char_traitsIcESaIcEEES7_E8InnerMap12BucketNumberIS7_EEmRKT_
FN:1205,_ZNK6google8protobuf3MapINSt7__cxx1112basic_stringIcSt11char_traitsIcESaIcEEES7_E5beginEv
FNDA:0,_ZNK6google8protobuf3MapINSt7__cxx1112basic_stringIcSt11char_traitsIcESaIcEEES7_E5beginEv
DA:227,0
DA:228,0
DA:235,0
DA:236,0
DA:246,0
DA:247,0
DA:246,0
DA:247,0
DA:252,0
DA:253,0
DA:266,0
DA:267,0
DA:269,0
DA:270,0
DA:272,0
DA:273,0
DA:275,0
DA:276,0
DA:355,0
DA:356,0
DA:494,0
DA:495,0
DA:512,0
DA:514,0
DA:515,0
DA:525,0
DA:528,0
DA:529,0
DA:532,0
DA:533,0
DA:537,0
DA:538,0
DA:540,0
DA:541,0
DA:543,0
DA:544,0
DA:545,0
DA:546,0
DA:547,0
DA:548,0
DA:549,0
DA:550,0
DA:553,0
DA:555,0
DA:558,0
DA:559,0
DA:565,0
DA:566,0
DA:567,0
DA:568,0
DA:569,0
DA:570,0
DA:572,0
DA:573,0
DA:574,0
DA:575,0
DA:577,0
DA:581,0
DA:583,0
DA:596,0
DA:597,0
DA:599,0
DA:601,0
DA:604,0
DA:606,0
DA:607,0
DA:616,0
DA:617,0
DA:618,0
DA:643,0
DA:644,0
DA:770,0
DA:771,0
DA:778,0
DA:780,0
DA:781,0
DA:782,0
DA:784,0
DA:785,0
DA:787,0
DA:789,0
DA:790,0
DA:791,0
DA:792,0
DA:793,0
DA:794,0
DA:795,0
DA:796,0
DA:797,0
DA:800,0
DA:979,0
DA:980,0
DA:982,0
DA:983,0
DA:985,0
DA:986,0
DA:1030,0
DA:1033,0
DA:1038,0
DA:1039,0
DA:1141,0
DA:1143,0
DA:1146,0
DA:1147,0
DA:1148,0
DA:1152,0
DA:1153,0
DA:1155,0
DA:1156,0
DA:1205,0
DA:1206,0
end_of_record
SF:/usr/include/c++/11/functional
FN:418,_ZNSt5_BindIFMN7hare_mq7channelEFvRKNSt7__cxx1112basic_stringIcSt11char_traitsIcESaIcEEEPKNS0_15BasicPropertiesES9_EPS1_St12_PlaceholderILi1EESG_ILi2EESG_ILi3EEEE6__callIvJS9_OSC_S9_EJLm0ELm1ELm2ELm3EEEET_OSt5tupleIJDpT0_EESt12_Index_tupleIJXspT1_EEE
FNDA:0,_ZNSt5_BindIFMN7hare_mq7channelEFvRKNSt7__cxx1112basic_stringIcSt11char_traitsIcESaIcEEEPKNS0_15BasicPropertiesES9_EPS1_St12_PlaceholderILi1EESG_ILi2EESG_ILi3EEEE6__callIvJS9_OSC_S9_EJLm0ELm1ELm2ELm3EEEET_OSt5tupleIJDpT0_EESt12_Index_tupleIJXspT1_EEE
DA:363,0
DA:366,0
DA:405,0
DA:418,0
DA:420,0
DA:421,0
DA:422,0
DA:489,0
DA:490,0
DA:493,0
DA:501,0
DA:503,0
DA:789,0
DA:793,0
end_of_record
SF:/usr/include/c++/11/bits/stl_pair.h
FN:266,_ZNSt4pairIKNSt7__cxx1112basic_stringIcSt11char_traitsIcESaIcEEES5_EC2IS6_S5_Lb1EEERS6_S9_
FNDA:0,_ZNSt4pairIKNSt7__cxx1112basic_stringIcSt11char_traitsIcESaIcEEES5_EC2IS6_S5_Lb1EEERS6_S9_
DA:211,0
DA:266,0
DA:267,0
DA:352,0
DA:353,0
DA:567,0
DA:572,0
end_of_record
SF:/home/eric/2025MQ/MQproject/2025MQWorkSpace/src/server/channel.cpp
FN:20,_ZN7hare_mq7channelC2ERKNSt7__cxx1112basic_stringIcSt11char_traitsIcESaIcEEERKSt10shared_ptrINS_12virtual_hostEERKS9_INS_16consumer_managerEERKS9_I13ProtobufCodecES9_IN5muduo3net13TcpConnectionEERKS9_INS_11thread_poolEE
FNDA:0,_ZN7hare_mq7channelC2ERKNSt7__cxx1112basic_stringIcSt11char_traitsIcESaIcEEERKSt10shared_ptrINS_12virtual_hostEERKS9_INS_16consumer_managerEERKS9_I13ProtobufCodecES9_IN5muduo3net13TcpConnectionEERKS9_INS_11thread_poolEE
FN:31,_ZN7hare_mq7channelD2Ev
FNDA:0,_ZN7hare_mq7channelD2Ev
FN:41,_ZN7hare_mq7channel14basic_responseEbRKNSt7__cxx1112basic_stringIcSt11char_traitsIcESaIcEEES8_
FNDA:0,_ZN7hare_mq7channel14basic_responseEbRKNSt7__cxx1112basic_stringIcSt11char_traitsIcESaIcEEES8_
FN:50,_ZN7hare_mq7channel7consumeERKNSt7__cxx1112basic_stringIcSt11char_traitsIcESaIcEEE
FNDA:0,_ZN7hare_mq7channel7consumeERKNSt7__cxx1112basic_stringIcSt11char_traitsIcESaIcEEE
FN:72,_ZN7hare_mq7channel10consume_cbERKNSt7__cxx1112basic_stringIcSt11char_traitsIcESaIcEEEPKNS_15BasicPropertiesES8_
FNDA:0,_ZN7hare_mq7channel10consume_cbERKNSt7__cxx1112basic_stringIcSt11char_traitsIcESaIcEEEPKNS_15BasicPropertiesES8_
FN:92,_ZN7hare_mq7channel16declare_exchangeERKSt10shared_ptrINS_22declareExchangeRequestEE
FNDA:0,_ZN7hare_mq7channel16declare_exchangeERKSt10shared_ptrINS_22declareExchangeRequestEE
FN:100,_ZN7hare_mq7channel15delete_exchangeERKSt10shared_ptrINS_21deleteExchangeRequestEE
FNDA:0,_ZN7hare_mq7channel15delete_exchangeERKSt10shared_ptrINS_21deleteExchangeRequestEE
FN:109,_ZN7hare_mq7channel13declare_queueERKSt10shared_ptrINS_19declareQueueRequestEE
FNDA:0,_ZN7hare_mq7channel13declare_queueERKSt10shared_ptrINS_19declareQueueRequestEE
FN:122,_ZN7hare_mq7channel12delete_queueERKSt10shared_ptrINS_18deleteQueueRequestEE
FNDA:0,_ZN7hare_mq7channel12delete_queueERKSt10shared_ptrINS_18deleteQueueRequestEE
FN:132,_ZN7hare_mq7channel4bindERKSt10shared_ptrINS_11bindRequestEE
FNDA:0,_ZN7hare_mq7channel4bindERKSt10shared_ptrINS_11bindRequestEE
FN:138,_ZN7hare_mq7channel6unbindERKSt10shared_ptrINS_13unbindRequestEE
FNDA:0,_ZN7hare_mq7channel6unbindERKSt10shared_ptrINS_13unbindRequestEE
FN:147,_ZN7hare_mq7channel13basic_publishERKSt10shared_ptrINS_19basicPublishRequestEE
FNDA:0,_ZN7hare_mq7channel13basic_publishERKSt10shared_ptrINS_19basicPublishRequestEE
FN:178,_ZN7hare_mq7channel9basic_ackERKSt10shared_ptrINS_15basicAckRequestEE
FNDA:0,_ZN7hare_mq7channel9basic_ackERKSt10shared_ptrINS_15basicAckRequestEE
FN:184,_ZN7hare_mq7channel13basic_consumeERKSt10shared_ptrINS_19basicConsumeRequestEE
FNDA:0,_ZN7hare_mq7channel13basic_consumeERKSt10shared_ptrINS_19basicConsumeRequestEE
FN:198,_ZN7hare_mq7channel12basic_cancelERKSt10shared_ptrINS_18basicCancelRequestEE
FNDA:0,_ZN7hare_mq7channel12basic_cancelERKSt10shared_ptrINS_18basicCancelRequestEE
FN:204,_ZN7hare_mq7channel11basic_queryERKSt10shared_ptrINS_17basicQueryRequestEE
FNDA:0,_ZN7hare_mq7channel11basic_queryERKSt10shared_ptrINS_17basicQueryRequestEE
FN:217,_ZN7hare_mq15channel_manager12open_channelERKNSt7__cxx1112basic_stringIcSt11char_traitsIcESaIcEEERKSt10shared_ptrINS_12virtual_hostEERKS9_INS_16consumer_managerEERKS9_I13ProtobufCodecES9_IN5muduo3net13TcpConnectionEERKS9_INS_11thread_poolEE
FNDA:0,_ZN7hare_mq15channel_manager12open_channelERKNSt7__cxx1112basic_stringIcSt11char_traitsIcESaIcEEERKSt10shared_ptrINS_12virtual_hostEERKS9_INS_16consumer_managerEERKS9_I13ProtobufCodecES9_IN5muduo3net13TcpConnectionEERKS9_INS_11thread_poolEE
FN:231,_ZN7hare_mq15channel_manager13close_channelERKNSt7__cxx1112basic_stringIcSt11char_traitsIcESaIcEEE
FNDA:0,_ZN7hare_mq15channel_manager13close_channelERKNSt7__cxx1112basic_stringIcSt11char_traitsIcESaIcEEE
FN:237,_ZN7hare_mq15channel_manager14select_channelERKNSt7__cxx1112basic_stringIcSt11char_traitsIcESaIcEEE
FNDA:0,_ZN7hare_mq15channel_manager14select_channelERKNSt7__cxx1112basic_stringIcSt11char_traitsIcESaIcEEE
DA:20,0
DA:25,0
DA:26,0
DA:29,0
DA:31,0
DA:33,0
DA:34,0
DA:36,0
DA:41,0
DA:43,0
DA:44,0
DA:45,0
DA:46,0
DA:47,0
DA:48,0
DA:50,0
DA:53,0
DA:54,0
DA:55,0
DA:56,0
DA:59,0
DA:60,0
DA:61,0
DA:62,0
DA:65,0
DA:67,0
DA:68,0
DA:70,0
DA:72,0
DA:76,0
DA:77,0
DA:78,0
DA:79,0
DA:81,0
DA:82,0
DA:83,0
DA:84,0
DA:86,0
DA:87,0
DA:92,0
DA:94,0
DA:95,0
DA:96,0
DA:97,0
DA:98,0
DA:100,0
DA:102,0
DA:103,0
DA:104,0
DA:109,0
DA:111,0
DA:112,0
DA:113,0
DA:114,0
DA:115,0
DA:116,0
DA:118,0
DA:119,0
DA:120,0
DA:122,0
DA:124,0
DA:125,0
DA:126,0
DA:127,0
DA:132,0
DA:134,0
DA:135,0
DA:136,0
DA:138,0
DA:140,0
DA:141,0
DA:142,0
DA:147,0
DA:150,0
DA:151,0
DA:152,0
DA:153,0
DA:157,0
DA:159,0
DA:160,0
DA:161,0
DA:162,0
DA:163,0
DA:166,0
DA:167,0
DA:169,0
DA:171,0
DA:172,0
DA:173,0
DA:175,0
DA:176,0
DA:178,0
DA:180,0
DA:181,0
DA:182,0
DA:184,0
DA:186,0
DA:187,0
DA:188,0
DA:191,0
DA:192,0
DA:193,0
DA:194,0
DA:195,0
DA:198,0
DA:200,0
DA:201,0
DA:202,0
DA:204,0
DA:206,0
DA:207,0
DA:208,0
DA:209,0
DA:210,0
DA:211,0
DA:212,0
DA:217,0
DA:224,0
DA:225,0
DA:227,0
DA:228,0
DA:229,0
DA:231,0
DA:233,0
DA:234,0
DA:235,0
DA:237,0
DA:239,0
DA:240,0
DA:241,0
DA:242,0
end_of_record
SF:/home/eric/2025MQ/MQproject/2025MQWorkSpace/src/tools/muduo/_install/include/muduo/net/Buffer.h
FN:48,_ZN5muduo3net6BufferC2Em
FNDA:0,_ZN5muduo3net6BufferC2Em
DA:42,0
DA:48,0
DA:49,0
DA:50,0
DA:51,0
DA:53,0
DA:54,0
DA:55,0
DA:56,0
DA:68,0
DA:69,0
DA:71,0
DA:72,0
DA:74,0
DA:75,0
end_of_record
SF:/usr/include/c++/11/bits/stl_iterator_base_funcs.h
DA:98,0
DA:104,0
DA:138,0
DA:141,0
end_of_record
SF:/usr/include/x86_64-linux-gnu/bits/string_fortified.h
DA:26,0
DA:29,0
end_of_record
SF:/usr/include/c++/11/bits/allocated_ptr.h
FN:71,_ZNSt15__allocated_ptrISaISt23_Sp_counted_ptr_inplaceIN7hare_mq7channelESaIS2_ELN9__gnu_cxx12_Lock_policyE2EEEED2Ev
FNDA:0,_ZNSt15__allocated_ptrISaISt23_Sp_counted_ptr_inplaceIN7hare_mq7channelESaIS2_ELN9__gnu_cxx12_Lock_policyE2EEEED2Ev
FN:71,_ZNSt15__allocated_ptrISaISt23_Sp_counted_ptr_inplaceISt5mutexSaIS1_ELN9__gnu_cxx12_Lock_policyE2EEEED2Ev
FNDA:0,_ZNSt15__allocated_ptrISaISt23_Sp_counted_ptr_inplaceISt5mutexSaIS1_ELN9__gnu_cxx12_Lock_policyE2EEEED2Ev
DA:53,0
DA:54,0
DA:71,0
DA:73,0
DA:74,0
DA:75,0
DA:71,0
DA:73,0
DA:74,0
DA:75,0
DA:79,0
DA:81,0
DA:86,0
DA:96,0
DA:98,0
end_of_record
SF:/usr/local/include/google/protobuf/map_field.h
DA:589,0
DA:590,0
DA:591,0
end_of_record
SF:/usr/include/c++/11/bits/hashtable.h
FN:308,_ZNSt10_HashtableINSt7__cxx1112basic_stringIcSt11char_traitsIcESaIcEEESt4pairIKS5_S5_ESaIS8_ENSt8__detail10_Select1stESt8equal_toIS5_ESt4hashIS5_ENSA_18_Mod_range_hashingENSA_20_Default_ranged_hashENSA_20_Prime_rehash_policyENSA_17_Hashtable_traitsILb1ELb0ELb1EEEE12_Scoped_nodeD2Ev
FNDA:0,_ZNSt10_HashtableINSt7__cxx1112basic_stringIcSt11char_traitsIcESaIcEEESt4pairIKS5_S5_ESaIS8_ENSt8__detail10_Select1stESt8equal_toIS5_ESt4hashIS5_ENSA_18_Mod_range_hashingENSA_20_Default_ranged_hashENSA_20_Prime_rehash_policyENSA_17_Hashtable_traitsILb1ELb0ELb1EEEE12_Scoped_nodeD2Ev
FN:308,_ZNSt10_HashtableINSt7__cxx1112basic_stringIcSt11char_traitsIcESaIcEEESt4pairIKS5_St10shared_ptrIN7hare_mq7channelEEESaISC_ENSt8__detail10_Select1stESt8equal_toIS5_ESt4hashIS5_ENSE_18_Mod_range_hashingENSE_20_Default_ranged_hashENSE_20_Prime_rehash_policyENSE_17_Hashtable_traitsILb1ELb0ELb1EEEE12_Scoped_nodeD2Ev
FNDA:0,_ZNSt10_HashtableINSt7__cxx1112basic_stringIcSt11char_traitsIcESaIcEEESt4pairIKS5_St10shared_ptrIN7hare_mq7channelEEESaISC_ENSt8__detail10_Select1stESt8equal_toIS5_ESt4hashIS5_ENSE_18_Mod_range_hashingENSE_20_Default_ranged_hashENSE_20_Prime_rehash_policyENSE_17_Hashtable_traitsILb1ELb0ELb1EEEE12_Scoped_nodeD2Ev
FN:453,_ZNSt10_HashtableINSt7__cxx1112basic_stringIcSt11char_traitsIcESaIcEEESt4pairIKS5_S5_ESaIS8_ENSt8__detail10_Select1stESt8equal_toIS5_ESt4hashIS5_ENSA_18_Mod_range_hashingENSA_20_Default_ranged_hashENSA_20_Prime_rehash_policyENSA_17_Hashtable_traitsILb1ELb0ELb1EEEE21_M_deallocate_bucketsEv
FNDA:0,_ZNSt10_HashtableINSt7__cxx1112basic_stringIcSt11char_traitsIcESaIcEEESt4pairIKS5_S5_ESaIS8_ENSt8__detail10_Select1stESt8equal_toIS5_ESt4hashIS5_ENSA_18_Mod_range_hashingENSA_20_Default_ranged_hashENSA_20_Prime_rehash_policyENSA_17_Hashtable_traitsILb1ELb0ELb1EEEE21_M_deallocate_bucketsEv
FN:453,_ZNSt10_HashtableINSt7__cxx1112basic_stringIcSt11char_traitsIcESaIcEEESt4pairIKS5_St10shared_ptrIN7hare_mq7channelEEESaISC_ENSt8__detail10_Select1stESt8equal_toIS5_ESt4hashIS5_ENSE_18_Mod_range_hashingENSE_20_Default_ranged_hashENSE_20_Prime_rehash_policyENSE_17_Hashtable_traitsILb1ELb0ELb1EEEE21_M_deallocate_bucketsEv
FNDA:0,_ZNSt10_HashtableINSt7__cxx1112basic_stringIcSt11char_traitsIcESaIcEEESt4pairIKS5_St10shared_ptrIN7hare_mq7channelEEESaISC_ENSt8__detail10_Select1stESt8equal_toIS5_ESt4hashIS5_ENSE_18_Mod_range_hashingENSE_20_Default_ranged_hashENSE_20_Prime_rehash_policyENSE_17_Hashtable_traitsILb1ELb0ELb1EEEE21_M_deallocate_bucketsEv
FN:453,_ZNSt10_HashtableINSt7__cxx1112basic_stringIcSt11char_traitsIcESaIcEEESt4pairIKS5_St10shared_ptrIN7hare_mq7bindingEEESaISC_ENSt8__detail10_Select1stESt8equal_toIS5_ESt4hashIS5_ENSE_18_Mod_range_hashingENSE_20_Default_ranged_hashENSE_20_Prime_rehash_policyENSE_17_Hashtable_traitsILb1ELb0ELb1EEEE21_M_deallocate_bucketsEv
FNDA:0,_ZNSt10_HashtableINSt7__cxx1112basic_stringIcSt11char_traitsIcESaIcEEESt4pairIKS5_St10shared_ptrIN7hare_mq7bindingEEESaISC_ENSt8__detail10_Select1stESt8equal_toIS5_ESt4hashIS5_ENSE_18_Mod_range_hashingENSE_20_Default_ranged_hashENSE_20_Prime_rehash_policyENSE_17_Hashtable_traitsILb1ELb0ELb1EEEE21_M_deallocate_bucketsEv
FN:1120,_ZNSt10_HashtableINSt7__cxx1112basic_stringIcSt11char_traitsIcESaIcEEESt4pairIKS5_S5_ESaIS8_ENSt8__detail10_Select1stESt8equal_toIS5_ESt4hashIS5_ENSA_18_Mod_range_hashingENSA_20_Default_ranged_hashENSA_20_Prime_rehash_policyENSA_17_Hashtable_traitsILb1ELb0ELb1EEEEC2EmRKSF_RKSD_RKS9_
FNDA:0,_ZNSt10_HashtableINSt7__cxx1112basic_stringIcSt11char_traitsIcESaIcEEESt4pairIKS5_S5_ESaIS8_ENSt8__detail10_Select1stESt8equal_toIS5_ESt4hashIS5_ENSA_18_Mod_range_hashingENSA_20_Default_ranged_hashENSA_20_Prime_rehash_policyENSA_17_Hashtable_traitsILb1ELb0ELb1EEEEC2EmRKSF_RKSD_RKS9_
FN:1139,_ZNSt10_HashtableINSt7__cxx1112basic_stringIcSt11char_traitsIcESaIcEEESt4pairIKS5_S5_ESaIS8_ENSt8__detail10_Select1stESt8equal_toIS5_ESt4hashIS5_ENSA_18_Mod_range_hashingENSA_20_Default_ranged_hashENSA_20_Prime_rehash_policyENSA_17_Hashtable_traitsILb1ELb0ELb1EEEEC2IN6google8protobuf3MapIS5_S5_E14const_iteratorEEET_SS_mRKSF_RKSD_RKS9_St17integral_constantIbLb1EE
FNDA:0,_ZNSt10_HashtableINSt7__cxx1112basic_stringIcSt11char_traitsIcESaIcEEESt4pairIKS5_S5_ESaIS8_ENSt8__detail10_Select1stESt8equal_toIS5_ESt4hashIS5_ENSA_18_Mod_range_hashingENSA_20_Default_ranged_hashENSA_20_Prime_rehash_policyENSA_17_Hashtable_traitsILb1ELb0ELb1EEEEC2IN6google8protobuf3MapIS5_S5_E14const_iteratorEEET_SS_mRKSF_RKSD_RKS9_St17integral_constantIbLb1EE
FN:1588,_ZNSt10_HashtableINSt7__cxx1112basic_stringIcSt11char_traitsIcESaIcEEESt4pairIKS5_St10shared_ptrIN7hare_mq7channelEEESaISC_ENSt8__detail10_Select1stESt8equal_toIS5_ESt4hashIS5_ENSE_18_Mod_range_hashingENSE_20_Default_ranged_hashENSE_20_Prime_rehash_policyENSE_17_Hashtable_traitsILb1ELb0ELb1EEEE4findERS7_
FNDA:0,_ZNSt10_HashtableINSt7__cxx1112basic_stringIcSt11char_traitsIcESaIcEEESt4pairIKS5_St10shared_ptrIN7hare_mq7channelEEESaISC_ENSt8__detail10_Select1stESt8equal_toIS5_ESt4hashIS5_ENSE_18_Mod_range_hashingENSE_20_Default_ranged_hashENSE_20_Prime_rehash_policyENSE_17_Hashtable_traitsILb1ELb0ELb1EEEE4findERS7_
FN:1603,_ZNKSt10_HashtableINSt7__cxx1112basic_stringIcSt11char_traitsIcESaIcEEESt4pairIKS5_St10shared_ptrIN7hare_mq7channelEEESaISC_ENSt8__detail10_Select1stESt8equal_toIS5_ESt4hashIS5_ENSE_18_Mod_range_hashingENSE_20_Default_ranged_hashENSE_20_Prime_rehash_policyENSE_17_Hashtable_traitsILb1ELb0ELb1EEEE4findERS7_
FNDA:0,_ZNKSt10_HashtableINSt7__cxx1112basic_stringIcSt11char_traitsIcESaIcEEESt4pairIKS5_St10shared_ptrIN7hare_mq7channelEEESaISC_ENSt8__detail10_Select1stESt8equal_toIS5_ESt4hashIS5_ENSE_18_Mod_range_hashingENSE_20_Default_ranged_hashENSE_20_Prime_rehash_policyENSE_17_Hashtable_traitsILb1ELb0ELb1EEEE4findERS7_
FN:1827,_ZNKSt10_HashtableINSt7__cxx1112basic_stringIcSt11char_traitsIcESaIcEEESt4pairIKS5_S5_ESaIS8_ENSt8__detail10_Select1stESt8equal_toIS5_ESt4hashIS5_ENSA_18_Mod_range_hashingENSA_20_Default_ranged_hashENSA_20_Prime_rehash_policyENSA_17_Hashtable_traitsILb1ELb0ELb1EEEE19_M_find_before_nodeEmRS7_m
FNDA:0,_ZNKSt10_HashtableINSt7__cxx1112basic_stringIcSt11char_traitsIcESaIcEEESt4pairIKS5_S5_ESaIS8_ENSt8__detail10_Select1stESt8equal_toIS5_ESt4hashIS5_ENSA_18_Mod_range_hashingENSA_20_Default_ranged_hashENSA_20_Prime_rehash_policyENSA_17_Hashtable_traitsILb1ELb0ELb1EEEE19_M_find_before_nodeEmRS7_m
FN:1827,_ZNKSt10_HashtableINSt7__cxx1112basic_stringIcSt11char_traitsIcESaIcEEESt4pairIKS5_St10shared_ptrIN7hare_mq7channelEEESaISC_ENSt8__detail10_Select1stESt8equal_toIS5_ESt4hashIS5_ENSE_18_Mod_range_hashingENSE_20_Default_ranged_hashENSE_20_Prime_rehash_policyENSE_17_Hashtable_traitsILb1ELb0ELb1EEEE19_M_find_before_nodeEmRS7_m
FNDA:0,_ZNKSt10_HashtableINSt7__cxx1112basic_stringIcSt11char_traitsIcESaIcEEESt4pairIKS5_St10shared_ptrIN7hare_mq7channelEEESaISC_ENSt8__detail10_Select1stESt8equal_toIS5_ESt4hashIS5_ENSE_18_Mod_range_hashingENSE_20_Default_ranged_hashENSE_20_Prime_rehash_policyENSE_17_Hashtable_traitsILb1ELb0ELb1EEEE19_M_find_before_nodeEmRS7_m
FN:1886,_ZNSt10_HashtableINSt7__cxx1112basic_stringIcSt11char_traitsIcESaIcEEESt4pairIKS5_S5_ESaIS8_ENSt8__detail10_Select1stESt8equal_toIS5_ESt4hashIS5_ENSA_18_Mod_range_hashingENSA_20_Default_ranged_hashENSA_20_Prime_rehash_policyENSA_17_Hashtable_traitsILb1ELb0ELb1EEEE22_M_insert_bucket_beginEmPNSA_10_Hash_nodeIS8_Lb1EEE
FNDA:0,_ZNSt10_HashtableINSt7__cxx1112basic_stringIcSt11char_traitsIcESaIcEEESt4pairIKS5_S5_ESaIS8_ENSt8__detail10_Select1stESt8equal_toIS5_ESt4hashIS5_ENSA_18_Mod_range_hashingENSA_20_Default_ranged_hashENSA_20_Prime_rehash_policyENSA_17_Hashtable_traitsILb1ELb0ELb1EEEE22_M_insert_bucket_beginEmPNSA_10_Hash_nodeIS8_Lb1EEE
FN:1886,_ZNSt10_HashtableINSt7__cxx1112basic_stringIcSt11char_traitsIcESaIcEEESt4pairIKS5_St10shared_ptrIN7hare_mq7channelEEESaISC_ENSt8__detail10_Select1stESt8equal_toIS5_ESt4hashIS5_ENSE_18_Mod_range_hashingENSE_20_Default_ranged_hashENSE_20_Prime_rehash_policyENSE_17_Hashtable_traitsILb1ELb0ELb1EEEE22_M_insert_bucket_beginEmPNSE_10_Hash_nodeISC_Lb1EEE
FNDA:0,_ZNSt10_HashtableINSt7__cxx1112basic_stringIcSt11char_traitsIcESaIcEEESt4pairIKS5_St10shared_ptrIN7hare_mq7channelEEESaISC_ENSt8__detail10_Select1stESt8equal_toIS5_ESt4hashIS5_ENSE_18_Mod_range_hashingENSE_20_Default_ranged_hashENSE_20_Prime_rehash_policyENSE_17_Hashtable_traitsILb1ELb0ELb1EEEE22_M_insert_bucket_beginEmPNSE_10_Hash_nodeISC_Lb1EEE
FN:1919,_ZNSt10_HashtableINSt7__cxx1112basic_stringIcSt11char_traitsIcESaIcEEESt4pairIKS5_St10shared_ptrIN7hare_mq7channelEEESaISC_ENSt8__detail10_Select1stESt8equal_toIS5_ESt4hashIS5_ENSE_18_Mod_range_hashingENSE_20_Default_ranged_hashENSE_20_Prime_rehash_policyENSE_17_Hashtable_traitsILb1ELb0ELb1EEEE22_M_remove_bucket_beginEmPNSE_10_Hash_nodeISC_Lb1EEEm
FNDA:0,_ZNSt10_HashtableINSt7__cxx1112basic_stringIcSt11char_traitsIcESaIcEEESt4pairIKS5_St10shared_ptrIN7hare_mq7channelEEESaISC_ENSt8__detail10_Select1stESt8equal_toIS5_ESt4hashIS5_ENSE_18_Mod_range_hashingENSE_20_Default_ranged_hashENSE_20_Prime_rehash_policyENSE_17_Hashtable_traitsILb1ELb0ELb1EEEE22_M_remove_bucket_beginEmPNSE_10_Hash_nodeISC_Lb1EEEm
FN:1960,_ZNSt10_HashtableINSt7__cxx1112basic_stringIcSt11char_traitsIcESaIcEEESt4pairIKS5_S5_ESaIS8_ENSt8__detail10_Select1stESt8equal_toIS5_ESt4hashIS5_ENSA_18_Mod_range_hashingENSA_20_Default_ranged_hashENSA_20_Prime_rehash_policyENSA_17_Hashtable_traitsILb1ELb0ELb1EEEE10_M_emplaceIJRKN6google8protobuf7MapPairIS5_S5_EEEEES6_INSA_14_Node_iteratorIS8_Lb0ELb1EEEbESt17integral_constantIbLb1EEDpOT_
FNDA:0,_ZNSt10_HashtableINSt7__cxx1112basic_stringIcSt11char_traitsIcESaIcEEESt4pairIKS5_S5_ESaIS8_ENSt8__detail10_Select1stESt8equal_toIS5_ESt4hashIS5_ENSA_18_Mod_range_hashingENSA_20_Default_ranged_hashENSA_20_Prime_rehash_policyENSA_17_Hashtable_traitsILb1ELb0ELb1EEEE10_M_emplaceIJRKN6google8protobuf7MapPairIS5_S5_EEEEES6_INSA_14_Node_iteratorIS8_Lb0ELb1EEEbESt17integral_constantIbLb1EEDpOT_
FN:2008,_ZNSt10_HashtableINSt7__cxx1112basic_stringIcSt11char_traitsIcESaIcEEESt4pairIKS5_St10shared_ptrIN7hare_mq7channelEEESaISC_ENSt8__detail10_Select1stESt8equal_toIS5_ESt4hashIS5_ENSE_18_Mod_range_hashingENSE_20_Default_ranged_hashENSE_20_Prime_rehash_policyENSE_17_Hashtable_traitsILb1ELb0ELb1EEEE21_M_insert_unique_nodeEmmPNSE_10_Hash_nodeISC_Lb1EEEm
FNDA:0,_ZNSt10_HashtableINSt7__cxx1112basic_stringIcSt11char_traitsIcESaIcEEESt4pairIKS5_St10shared_ptrIN7hare_mq7channelEEESaISC_ENSt8__detail10_Select1stESt8equal_toIS5_ESt4hashIS5_ENSE_18_Mod_range_hashingENSE_20_Default_ranged_hashENSE_20_Prime_rehash_policyENSE_17_Hashtable_traitsILb1ELb0ELb1EEEE21_M_insert_unique_nodeEmmPNSE_10_Hash_nodeISC_Lb1EEEm
FN:2008,_ZNSt10_HashtableINSt7__cxx1112basic_stringIcSt11char_traitsIcESaIcEEESt4pairIKS5_S5_ESaIS8_ENSt8__detail10_Select1stESt8equal_toIS5_ESt4hashIS5_ENSA_18_Mod_range_hashingENSA_20_Default_ranged_hashENSA_20_Prime_rehash_policyENSA_17_Hashtable_traitsILb1ELb0ELb1EEEE21_M_insert_unique_nodeEmmPNSA_10_Hash_nodeIS8_Lb1EEEm
FNDA:0,_ZNSt10_HashtableINSt7__cxx1112basic_stringIcSt11char_traitsIcESaIcEEESt4pairIKS5_S5_ESaIS8_ENSt8__detail10_Select1stESt8equal_toIS5_ESt4hashIS5_ENSA_18_Mod_range_hashingENSA_20_Default_ranged_hashENSA_20_Prime_rehash_policyENSA_17_Hashtable_traitsILb1ELb0ELb1EEEE21_M_insert_unique_nodeEmmPNSA_10_Hash_nodeIS8_Lb1EEEm
FN:2166,_ZNSt10_HashtableINSt7__cxx1112basic_stringIcSt11char_traitsIcESaIcEEESt4pairIKS5_St10shared_ptrIN7hare_mq7channelEEESaISC_ENSt8__detail10_Select1stESt8equal_toIS5_ESt4hashIS5_ENSE_18_Mod_range_hashingENSE_20_Default_ranged_hashENSE_20_Prime_rehash_policyENSE_17_Hashtable_traitsILb1ELb0ELb1EEEE8_M_eraseEmPNSE_15_Hash_node_baseEPNSE_10_Hash_nodeISC_Lb1EEE
FNDA:0,_ZNSt10_HashtableINSt7__cxx1112basic_stringIcSt11char_traitsIcESaIcEEESt4pairIKS5_St10shared_ptrIN7hare_mq7channelEEESaISC_ENSt8__detail10_Select1stESt8equal_toIS5_ESt4hashIS5_ENSE_18_Mod_range_hashingENSE_20_Default_ranged_hashENSE_20_Prime_rehash_policyENSE_17_Hashtable_traitsILb1ELb0ELb1EEEE8_M_eraseEmPNSE_15_Hash_node_baseEPNSE_10_Hash_nodeISC_Lb1EEE
FN:2194,_ZNSt10_HashtableINSt7__cxx1112basic_stringIcSt11char_traitsIcESaIcEEESt4pairIKS5_St10shared_ptrIN7hare_mq7channelEEESaISC_ENSt8__detail10_Select1stESt8equal_toIS5_ESt4hashIS5_ENSE_18_Mod_range_hashingENSE_20_Default_ranged_hashENSE_20_Prime_rehash_policyENSE_17_Hashtable_traitsILb1ELb0ELb1EEEE8_M_eraseESt17integral_constantIbLb1EERS7_
FNDA:0,_ZNSt10_HashtableINSt7__cxx1112basic_stringIcSt11char_traitsIcESaIcEEESt4pairIKS5_St10shared_ptrIN7hare_mq7channelEEESaISC_ENSt8__detail10_Select1stESt8equal_toIS5_ESt4hashIS5_ENSE_18_Mod_range_hashingENSE_20_Default_ranged_hashENSE_20_Prime_rehash_policyENSE_17_Hashtable_traitsILb1ELb0ELb1EEEE8_M_eraseESt17integral_constantIbLb1EERS7_
FN:2316,_ZNSt10_HashtableINSt7__cxx1112basic_stringIcSt11char_traitsIcESaIcEEESt4pairIKS5_St10shared_ptrIN7hare_mq7bindingEEESaISC_ENSt8__detail10_Select1stESt8equal_toIS5_ESt4hashIS5_ENSE_18_Mod_range_hashingENSE_20_Default_ranged_hashENSE_20_Prime_rehash_policyENSE_17_Hashtable_traitsILb1ELb0ELb1EEEE5clearEv
FNDA:0,_ZNSt10_HashtableINSt7__cxx1112basic_stringIcSt11char_traitsIcESaIcEEESt4pairIKS5_St10shared_ptrIN7hare_mq7bindingEEESaISC_ENSt8__detail10_Select1stESt8equal_toIS5_ESt4hashIS5_ENSE_18_Mod_range_hashingENSE_20_Default_ranged_hashENSE_20_Prime_rehash_policyENSE_17_Hashtable_traitsILb1ELb0ELb1EEEE5clearEv
FN:2316,_ZNSt10_HashtableINSt7__cxx1112basic_stringIcSt11char_traitsIcESaIcEEESt4pairIKS5_S5_ESaIS8_ENSt8__detail10_Select1stESt8equal_toIS5_ESt4hashIS5_ENSA_18_Mod_range_hashingENSA_20_Default_ranged_hashENSA_20_Prime_rehash_policyENSA_17_Hashtable_traitsILb1ELb0ELb1EEEE5clearEv
FNDA:0,_ZNSt10_HashtableINSt7__cxx1112basic_stringIcSt11char_traitsIcESaIcEEESt4pairIKS5_S5_ESaIS8_ENSt8__detail10_Select1stESt8equal_toIS5_ESt4hashIS5_ENSA_18_Mod_range_hashingENSA_20_Default_ranged_hashENSA_20_Prime_rehash_policyENSA_17_Hashtable_traitsILb1ELb0ELb1EEEE5clearEv
FN:2355,_ZNSt10_HashtableINSt7__cxx1112basic_stringIcSt11char_traitsIcESaIcEEESt4pairIKS5_St10shared_ptrIN7hare_mq7channelEEESaISC_ENSt8__detail10_Select1stESt8equal_toIS5_ESt4hashIS5_ENSE_18_Mod_range_hashingENSE_20_Default_ranged_hashENSE_20_Prime_rehash_policyENSE_17_Hashtable_traitsILb1ELb0ELb1EEEE9_M_rehashEmRKm
FNDA:0,_ZNSt10_HashtableINSt7__cxx1112basic_stringIcSt11char_traitsIcESaIcEEESt4pairIKS5_St10shared_ptrIN7hare_mq7channelEEESaISC_ENSt8__detail10_Select1stESt8equal_toIS5_ESt4hashIS5_ENSE_18_Mod_range_hashingENSE_20_Default_ranged_hashENSE_20_Prime_rehash_policyENSE_17_Hashtable_traitsILb1ELb0ELb1EEEE9_M_rehashEmRKm
FN:2355,_ZNSt10_HashtableINSt7__cxx1112basic_stringIcSt11char_traitsIcESaIcEEESt4pairIKS5_S5_ESaIS8_ENSt8__detail10_Select1stESt8equal_toIS5_ESt4hashIS5_ENSA_18_Mod_range_hashingENSA_20_Default_ranged_hashENSA_20_Prime_rehash_policyENSA_17_Hashtable_traitsILb1ELb0ELb1EEEE9_M_rehashEmRKm
FNDA:0,_ZNSt10_HashtableINSt7__cxx1112basic_stringIcSt11char_traitsIcESaIcEEESt4pairIKS5_S5_ESaIS8_ENSt8__detail10_Select1stESt8equal_toIS5_ESt4hashIS5_ENSA_18_Mod_range_hashingENSA_20_Default_ranged_hashENSA_20_Prime_rehash_policyENSA_17_Hashtable_traitsILb1ELb0ELb1EEEE9_M_rehashEmRKm
FN:2378,_ZNSt10_HashtableINSt7__cxx1112basic_stringIcSt11char_traitsIcESaIcEEESt4pairIKS5_St10shared_ptrIN7hare_mq7channelEEESaISC_ENSt8__detail10_Select1stESt8equal_toIS5_ESt4hashIS5_ENSE_18_Mod_range_hashingENSE_20_Default_ranged_hashENSE_20_Prime_rehash_policyENSE_17_Hashtable_traitsILb1ELb0ELb1EEEE13_M_rehash_auxEmSt17integral_constantIbLb1EE
FNDA:0,_ZNSt10_HashtableINSt7__cxx1112basic_stringIcSt11char_traitsIcESaIcEEESt4pairIKS5_St10shared_ptrIN7hare_mq7channelEEESaISC_ENSt8__detail10_Select1stESt8equal_toIS5_ESt4hashIS5_ENSE_18_Mod_range_hashingENSE_20_Default_ranged_hashENSE_20_Prime_rehash_policyENSE_17_Hashtable_traitsILb1ELb0ELb1EEEE13_M_rehash_auxEmSt17integral_constantIbLb1EE
FN:2378,_ZNSt10_HashtableINSt7__cxx1112basic_stringIcSt11char_traitsIcESaIcEEESt4pairIKS5_S5_ESaIS8_ENSt8__detail10_Select1stESt8equal_toIS5_ESt4hashIS5_ENSA_18_Mod_range_hashingENSA_20_Default_ranged_hashENSA_20_Prime_rehash_policyENSA_17_Hashtable_traitsILb1ELb0ELb1EEEE13_M_rehash_auxEmSt17integral_constantIbLb1EE
FNDA:0,_ZNSt10_HashtableINSt7__cxx1112basic_stringIcSt11char_traitsIcESaIcEEESt4pairIKS5_S5_ESaIS8_ENSt8__detail10_Select1stESt8equal_toIS5_ESt4hashIS5_ENSA_18_Mod_range_hashingENSA_20_Default_ranged_hashENSA_20_Prime_rehash_policyENSA_17_Hashtable_traitsILb1ELb0ELb1EEEE13_M_rehash_auxEmSt17integral_constantIbLb1EE
DA:302,0
DA:303,0
DA:304,0
DA:308,0
DA:308,0
DA:421,0
DA:422,0
DA:432,0
DA:434,0
DA:436,0
DA:437,0
DA:440,0
DA:444,0
DA:446,0
DA:449,0
DA:453,0
DA:454,0
DA:453,0
DA:454,0
DA:453,0
DA:454,0
DA:462,0
DA:463,0
DA:484,0
DA:487,0
DA:488,0
DA:560,0
DA:566,0
DA:621,0
DA:622,0
DA:629,0
DA:630,0
DA:790,0
DA:791,0
DA:794,0
DA:795,0
DA:807,0
DA:810,0
DA:811,0
DA:812,0
DA:937,0
DA:938,0
DA:1120,0
DA:1124,0
DA:1126,0
DA:1127,0
DA:1129,0
DA:1130,0
DA:1132,0
DA:1139,0
DA:1145,0
DA:1147,0
DA:1148,0
DA:1149,0
DA:1528,0
DA:1532,0
DA:1533,0
DA:1534,0
DA:1588,0
DA:1593,0
DA:1594,0
DA:1595,0
DA:1603,0
DA:1608,0
DA:1609,0
DA:1610,0
DA:1652,0
DA:1657,0
DA:1658,0
DA:1827,0
DA:1833,0
DA:1834,0
DA:1837,0
DA:1840,0
DA:1841,0
DA:1843,0
DA:1827,0
DA:1833,0
DA:1834,0
DA:1837,0
DA:1840,0
DA:1841,0
DA:1843,0
DA:1886,0
DA:1890,0
DA:1894,0
DA:1895,0
DA:1902,0
DA:1903,0
DA:1905,0
DA:1908,0
DA:1910,0
DA:1912,0
DA:1886,0
DA:1890,0
DA:1894,0
DA:1895,0
DA:1902,0
DA:1903,0
DA:1905,0
DA:1908,0
DA:1910,0
DA:1912,0
DA:1919,0
DA:1924,0
DA:1928,0
DA:1929,0
DA:1932,0
DA:1933,0
DA:1934,0
DA:1936,0
DA:1960,0
DA:1966,0
DA:1967,0
DA:1968,0
DA:1969,0
DA:1970,0
DA:1972,0
DA:1975,0
DA:1976,0
DA:1977,0
DA:1978,0
DA:2008,0
DA:2014,0
DA:2016,0
DA:2019,0
DA:2021,0
DA:2022,0
DA:2025,0
DA:2028,0
DA:2029,0
DA:2030,0
DA:2008,0
DA:2014,0
DA:2016,0
DA:2019,0
DA:2021,0
DA:2022,0
DA:2025,0
DA:2028,0
DA:2029,0
DA:2030,0
DA:2166,0
DA:2171,0
DA:2172,0
DA:2173,0
DA:2174,0
DA:2176,0
DA:2177,0
DA:2178,0
DA:2181,0
DA:2182,0
DA:2183,0
DA:2184,0
DA:2186,0
DA:2194,0
DA:2199,0
DA:2200,0
DA:2203,0
DA:2204,0
DA:2208,0
DA:2209,0
DA:2210,0
DA:2316,0
DA:2320,0
DA:2321,0
DA:2322,0
DA:2323,0
DA:2324,0
DA:2325,0
DA:2316,0
DA:2320,0
DA:2321,0
DA:2322,0
DA:2323,0
DA:2324,0
DA:2325,0
DA:2355,0
DA:2361,0
DA:2363,0
DA:2367,0
DA:2368,0
DA:2370,0
DA:2355,0
DA:2361,0
DA:2363,0
DA:2367,0
DA:2368,0
DA:2370,0
DA:2378,0
DA:2382,0
DA:2383,0
DA:2384,0
DA:2385,0
DA:2386,0
DA:2388,0
DA:2390,0
DA:2391,0
DA:2393,0
DA:2394,0
DA:2395,0
DA:2396,0
DA:2397,0
DA:2402,0
DA:2403,0
DA:2409,0
DA:2410,0
DA:2411,0
DA:2412,0
DA:2378,0
DA:2382,0
DA:2383,0
DA:2384,0
DA:2385,0
DA:2386,0
DA:2388,0
DA:2390,0
DA:2391,0
DA:2393,0
DA:2394,0
DA:2395,0
DA:2396,0
DA:2397,0
DA:2402,0
DA:2403,0
DA:2409,0
DA:2410,0
DA:2411,0
DA:2412,0
end_of_record
SF:/usr/include/c++/11/ext/alloc_traits.h
DA:97,0
DA:98,0
end_of_record
SF:/usr/local/include/google/protobuf/metadata_lite.h
DA:116,0
DA:117,0
DA:118,0
DA:120,0
DA:124,0
DA:125,0
DA:193,0
DA:194,0
DA:201,0
DA:202,0
end_of_record
SF:/usr/include/c++/11/bits/refwrap.h
DA:332,0
DA:333,0
DA:337,0
DA:338,0
end_of_record
SF:/usr/include/c++/11/bits/stl_map.h
DA:356,0
DA:357,0
DA:374,0
DA:375,0
DA:465,0
DA:466,0
DA:1175,0
DA:1176,0
end_of_record
SF:/usr/include/c++/11/bits/basic_string.h
FN:237,_ZNSt7__cxx1112basic_stringIcSt11char_traitsIcESaIcEE10_M_disposeEv
FNDA:0,_ZNSt7__cxx1112basic_stringIcSt11char_traitsIcESaIcEE10_M_disposeEv
FN:354,_ZNSt7__cxx1112basic_stringIcSt11char_traitsIcESaIcEE7_S_copyEPcPKcm
FNDA:0,_ZNSt7__cxx1112basic_stringIcSt11char_traitsIcESaIcEE7_S_copyEPcPKcm
FN:456,_ZNSt7__cxx1112basic_stringIcSt11char_traitsIcESaIcEEC2ERKS4_
FNDA:0,_ZNSt7__cxx1112basic_stringIcSt11char_traitsIcESaIcEEC2ERKS4_
FN:484,_ZNSt7__cxx1112basic_stringIcSt11char_traitsIcESaIcEEC2ERKS4_mm
FNDA:0,_ZNSt7__cxx1112basic_stringIcSt11char_traitsIcESaIcEEC2ERKS4_mm
FN:2854,_ZNKSt7__cxx1112basic_stringIcSt11char_traitsIcESaIcEE6substrEmm
FNDA:0,_ZNKSt7__cxx1112basic_stringIcSt11char_traitsIcESaIcEE6substrEmm
FN:6234,_ZSteqIcEN9__gnu_cxx11__enable_ifIXsrSt9__is_charIT_E7__valueEbE6__typeERKNSt7__cxx1112basic_stringIS3_St11char_traitsIS3_ESaIS3_EEESE_
FNDA:0,_ZSteqIcEN9__gnu_cxx11__enable_ifIXsrSt9__is_charIT_E7__valueEbE6__typeERKNSt7__cxx1112basic_stringIS3_St11char_traitsIS3_ESaIS3_EEESE_
DA:158,0
DA:167,0
DA:168,0
DA:186,0
DA:187,0
DA:190,0
DA:191,0
DA:194,0
DA:195,0
DA:198,0
DA:201,0
DA:208,0
DA:211,0
DA:218,0
DA:219,0
DA:222,0
DA:224,0
DA:225,0
DA:226,0
DA:229,0
DA:230,0
DA:237,0
DA:239,0
DA:240,0
DA:241,0
DA:244,0
DA:245,0
DA:251,0
DA:255,0
DA:271,0
DA:274,0
DA:294,0
DA:295,0
DA:298,0
DA:299,0
DA:318,0
DA:320,0
DA:321,0
DA:337,0
DA:339,0
DA:354,0
DA:356,0
DA:357,0
DA:359,0
DA:360,0
DA:400,0
DA:401,0
DA:404,0
DA:406,0
DA:409,0
DA:411,0
DA:413,0
DA:415,0
DA:418,0
DA:439,0
DA:441,0
DA:442,0
DA:456,0
DA:457,0
DA:458,0
DA:459,0
DA:484,0
DA:486,0
DA:488,0
DA:489,0
DA:490,0
DA:491,0
DA:671,0
DA:672,0
DA:679,0
DA:681,0
DA:806,0
DA:807,0
DA:920,0
DA:921,0
DA:926,0
DA:927,0
DA:976,0
DA:978,0
DA:1356,0
DA:1387,0
DA:2320,0
DA:2321,0
DA:2332,0
DA:2333,0
DA:2854,0
DA:2856,0
DA:6234,0
DA:6236,0
DA:6237,0
DA:6238,0
DA:6248,0
DA:6250,0
DA:6875,0
DA:6876,0
end_of_record
SF:/usr/include/c++/11/utility
DA:178,0
DA:179,0
DA:188,0
DA:189,0
DA:213,0
DA:223,0
DA:224,0
DA:233,0
DA:234,0
end_of_record
SF:/usr/include/c++/11/bits/stl_algobase.h
FN:932,_ZSt9__fill_a1IcEN9__gnu_cxx11__enable_ifIXsrSt9__is_byteIT_E7__valueEvE6__typeEPS3_S7_RKS3_
FNDA:0,_ZSt9__fill_a1IcEN9__gnu_cxx11__enable_ifIXsrSt9__is_byteIT_E7__valueEvE6__typeEPS3_S7_RKS3_
DA:230,0
DA:235,0
DA:236,0
DA:932,0
DA:934,0
DA:943,0
DA:944,0
DA:968,0
DA:969,0
DA:1109,0
DA:1115,0
DA:1120,0
DA:1121,0
DA:1144,0
DA:1149,0
end_of_record
SF:/usr/local/include/google/protobuf/map_field_lite.h
DA:95,0
end_of_record
SF:/usr/include/c++/11/typeinfo
FN:120,_ZNKSt9type_infoeqERKS_
FNDA:0,_ZNKSt9type_infoeqERKS_
DA:120,0
DA:122,0
DA:123,0
DA:124,0
end_of_record
SF:/usr/local/include/google/protobuf/arenastring.h
DA:182,0
DA:183,0
DA:203,0
DA:288,0
DA:290,0
end_of_record
SF:/usr/include/c++/11/bits/basic_string.tcc
FN:132,_ZNSt7__cxx1112basic_stringIcSt11char_traitsIcESaIcEE9_M_createERmm
FNDA:0,_ZNSt7__cxx1112basic_stringIcSt11char_traitsIcESaIcEE9_M_createERmm
FN:206,_ZNSt7__cxx1112basic_stringIcSt11char_traitsIcESaIcEE12_M_constructIPcEEvT_S7_St20forward_iterator_tag
FNDA:0,_ZNSt7__cxx1112basic_stringIcSt11char_traitsIcESaIcEE12_M_constructIPcEEvT_S7_St20forward_iterator_tag
FN:206,_ZNSt7__cxx1112basic_stringIcSt11char_traitsIcESaIcEE12_M_constructIPKcEEvT_S8_St20forward_iterator_tag
FNDA:0,_ZNSt7__cxx1112basic_stringIcSt11char_traitsIcESaIcEE12_M_constructIPKcEEvT_S8_St20forward_iterator_tag
FN:254,_ZNSt7__cxx1112basic_stringIcSt11char_traitsIcESaIcEE9_M_assignERKS4_
FNDA:0,_ZNSt7__cxx1112basic_stringIcSt11char_traitsIcESaIcEE9_M_assignERKS4_
FN:1243,_ZNKSt7__cxx1112basic_stringIcSt11char_traitsIcESaIcEE4findEcm
FNDA:0,_ZNKSt7__cxx1112basic_stringIcSt11char_traitsIcESaIcEE4findEcm
FN:1437,_ZNKSt7__cxx1112basic_stringIcSt11char_traitsIcESaIcEE7compareEPKc
FNDA:0,_ZNKSt7__cxx1112basic_stringIcSt11char_traitsIcESaIcEE7compareEPKc
DA:132,0
DA:137,0
DA:138,0
DA:143,0
DA:145,0
DA:147,0
DA:148,0
DA:153,0
DA:206,0
DA:211,0
DA:212,0
DA:215,0
DA:217,0
DA:219,0
DA:220,0
DA:225,0
DA:232,0
DA:233,0
DA:206,0
DA:211,0
DA:212,0
DA:215,0
DA:217,0
DA:219,0
DA:220,0
DA:225,0
DA:232,0
DA:233,0
DA:254,0
DA:257,0
DA:259,0
DA:260,0
DA:262,0
DA:264,0
DA:265,0
DA:266,0
DA:267,0
DA:268,0
DA:271,0
DA:272,0
DA:274,0
DA:276,0
DA:1243,0
DA:1246,0
DA:1247,0
DA:1248,0
DA:1250,0
DA:1251,0
DA:1252,0
DA:1253,0
DA:1254,0
DA:1256,0
DA:1437,0
DA:1441,0
DA:1442,0
DA:1443,0
DA:1444,0
DA:1445,0
DA:1446,0
DA:1447,0
end_of_record
SF:/usr/include/c++/11/bits/char_traits.h
DA:356,0
DA:357,0
DA:372,0
DA:374,0
DA:377,0
DA:389,0
DA:393,0
DA:396,0
DA:399,0
DA:403,0
DA:405,0
DA:408,0
DA:413,0
DA:429,0
DA:431,0
DA:434,0
DA:437,0
DA:966,0
DA:972,0
end_of_record
SF:/usr/include/c++/11/bits/move.h
DA:49,0
DA:77,0
DA:104,0
DA:196,0
DA:204,0
DA:206,0
end_of_record
SF:/usr/include/c++/11/bits/hashtable_policy.h
FN:696,_ZNSt8__detail9_Map_baseINSt7__cxx1112basic_stringIcSt11char_traitsIcESaIcEEESt4pairIKS6_St10shared_ptrIN7hare_mq7channelEEESaISD_ENS_10_Select1stESt8equal_toIS6_ESt4hashIS6_ENS_18_Mod_range_hashingENS_20_Default_ranged_hashENS_20_Prime_rehash_policyENS_17_Hashtable_traitsILb1ELb0ELb1EEELb1EEixERS8_
FNDA:0,_ZNSt8__detail9_Map_baseINSt7__cxx1112basic_stringIcSt11char_traitsIcESaIcEEESt4pairIKS6_St10shared_ptrIN7hare_mq7channelEEESaISD_ENS_10_Select1stESt8equal_toIS6_ESt4hashIS6_ENS_18_Mod_range_hashingENS_20_Default_ranged_hashENS_20_Prime_rehash_policyENS_17_Hashtable_traitsILb1ELb0ELb1EEELb1EEixERS8_
FN:1870,_ZNSt8__detail16_Hashtable_allocISaINS_10_Hash_nodeISt4pairIKNSt7__cxx1112basic_stringIcSt11char_traitsIcESaIcEEES8_ELb1EEEEE16_M_allocate_nodeIJRKN6google8protobuf7MapPairIS8_S8_EEEEEPSB_DpOT_
FNDA:0,_ZNSt8__detail16_Hashtable_allocISaINS_10_Hash_nodeISt4pairIKNSt7__cxx1112basic_stringIcSt11char_traitsIcESaIcEEES8_ELb1EEEEE16_M_allocate_nodeIJRKN6google8protobuf7MapPairIS8_S8_EEEEEPSB_DpOT_
FN:1870,_ZNSt8__detail16_Hashtable_allocISaINS_10_Hash_nodeISt4pairIKNSt7__cxx1112basic_stringIcSt11char_traitsIcESaIcEEESt10shared_ptrIN7hare_mq7channelEEELb1EEEEE16_M_allocate_nodeIJRKSt21piecewise_construct_tSt5tupleIJRS9_EESM_IJEEEEEPSF_DpOT_
FNDA:0,_ZNSt8__detail16_Hashtable_allocISaINS_10_Hash_nodeISt4pairIKNSt7__cxx1112basic_stringIcSt11char_traitsIcESaIcEEESt10shared_ptrIN7hare_mq7channelEEELb1EEEEE16_M_allocate_nodeIJRKSt21piecewise_construct_tSt5tupleIJRS9_EESM_IJEEEEEPSF_DpOT_
FN:1892,_ZNSt8__detail16_Hashtable_allocISaINS_10_Hash_nodeISt4pairIKNSt7__cxx1112basic_stringIcSt11char_traitsIcESaIcEEESt10shared_ptrIN7hare_mq7channelEEELb1EEEEE18_M_deallocate_nodeEPSF_
FNDA:0,_ZNSt8__detail16_Hashtable_allocISaINS_10_Hash_nodeISt4pairIKNSt7__cxx1112basic_stringIcSt11char_traitsIcESaIcEEESt10shared_ptrIN7hare_mq7channelEEELb1EEEEE18_M_deallocate_nodeEPSF_
FN:1892,_ZNSt8__detail16_Hashtable_allocISaINS_10_Hash_nodeISt4pairIKNSt7__cxx1112basic_stringIcSt11char_traitsIcESaIcEEESt10shared_ptrIN7hare_mq7bindingEEELb1EEEEE18_M_deallocate_nodeEPSF_
FNDA:0,_ZNSt8__detail16_Hashtable_allocISaINS_10_Hash_nodeISt4pairIKNSt7__cxx1112basic_stringIcSt11char_traitsIcESaIcEEESt10shared_ptrIN7hare_mq7bindingEEELb1EEEEE18_M_deallocate_nodeEPSF_
FN:1892,_ZNSt8__detail16_Hashtable_allocISaINS_10_Hash_nodeISt4pairIKNSt7__cxx1112basic_stringIcSt11char_traitsIcESaIcEEES8_ELb1EEEEE18_M_deallocate_nodeEPSB_
FNDA:0,_ZNSt8__detail16_Hashtable_allocISaINS_10_Hash_nodeISt4pairIKNSt7__cxx1112basic_stringIcSt11char_traitsIcESaIcEEES8_ELb1EEEEE18_M_deallocate_nodeEPSB_
FN:1922,_ZNSt8__detail16_Hashtable_allocISaINS_10_Hash_nodeISt4pairIKNSt7__cxx1112basic_stringIcSt11char_traitsIcESaIcEEESt10shared_ptrIN7hare_mq7channelEEELb1EEEEE19_M_allocate_bucketsEm
FNDA:0,_ZNSt8__detail16_Hashtable_allocISaINS_10_Hash_nodeISt4pairIKNSt7__cxx1112basic_stringIcSt11char_traitsIcESaIcEEESt10shared_ptrIN7hare_mq7channelEEELb1EEEEE19_M_allocate_bucketsEm
FN:1922,_ZNSt8__detail16_Hashtable_allocISaINS_10_Hash_nodeISt4pairIKNSt7__cxx1112basic_stringIcSt11char_traitsIcESaIcEEES8_ELb1EEEEE19_M_allocate_bucketsEm
FNDA:0,_ZNSt8__detail16_Hashtable_allocISaINS_10_Hash_nodeISt4pairIKNSt7__cxx1112basic_stringIcSt11char_traitsIcESaIcEEES8_ELb1EEEEE19_M_allocate_bucketsEm
DA:93,0
DA:95,0
DA:219,0
DA:237,0
DA:238,0
DA:242,0
DA:246,0
DA:277,0
DA:282,0
DA:283,0
DA:295,0
DA:296,0
DA:299,0
DA:300,0
DA:338,0
DA:339,0
DA:343,0
DA:346,0
DA:347,0
DA:350,0
DA:352,0
DA:353,0
DA:385,0
DA:386,0
DA:428,0
DA:430,0
DA:446,0
DA:447,0
DA:473,0
DA:474,0
DA:481,0
DA:482,0
DA:696,0
DA:701,0
DA:702,0
DA:703,0
DA:704,0
DA:705,0
DA:707,0
DA:710,0
DA:711,0
DA:714,0
DA:715,0
DA:716,0
DA:717,0
DA:1033,0
DA:1035,0
DA:1036,0
DA:1124,0
DA:1130,0
DA:1131,0
DA:1212,0
DA:1215,0
DA:1219,0
DA:1232,0
DA:1233,0
DA:1247,0
DA:1251,0
DA:1263,0
DA:1264,0
DA:1595,0
DA:1596,0
DA:1606,0
DA:1607,0
DA:1611,0
DA:1617,0
DA:1802,0
DA:1828,0
DA:1829,0
DA:1870,0
DA:1873,0
DA:1874,0
DA:1877,0
DA:1878,0
DA:1881,0
DA:1883,0
DA:1885,0
DA:1886,0
DA:1870,0
DA:1873,0
DA:1874,0
DA:1877,0
DA:1878,0
DA:1881,0
DA:1883,0
DA:1885,0
DA:1886,0
DA:1892,0
DA:1894,0
DA:1895,0
DA:1896,0
DA:1892,0
DA:1894,0
DA:1895,0
DA:1896,0
DA:1892,0
DA:1894,0
DA:1895,0
DA:1896,0
DA:1900,0
DA:1903,0
DA:1904,0
DA:1905,0
DA:1910,0
DA:1912,0
DA:1914,0
DA:1915,0
DA:1916,0
DA:1922,0
DA:1925,0
DA:1927,0
DA:1928,0
DA:1929,0
DA:1930,0
DA:1922,0
DA:1925,0
DA:1927,0
DA:1928,0
DA:1929,0
DA:1930,0
DA:1935,0
DA:1940,0
DA:1941,0
DA:1942,0
DA:1943,0
end_of_record
SF:/usr/include/string.h
DA:266,0
DA:268,0
end_of_record
SF:/usr/include/c++/11/bits/std_mutex.h
FN:98,_ZNSt5mutex4lockEv
FNDA:0,_ZNSt5mutex4lockEv
DA:98,0
DA:100,0
DA:103,0
DA:104,0
DA:105,0
DA:115,0
DA:118,0
end_of_record
SF:/usr/include/c++/11/bits/std_function.h
FN:158,_ZNSt14_Function_base13_Base_managerISt5_BindIFMN7hare_mq7channelEFvRKNSt7__cxx1112basic_stringIcSt11char_traitsIcESaIcEEEPKNS2_15BasicPropertiesESB_EPS3_St12_PlaceholderILi1EESI_ILi2EESI_ILi3EEEEE9_M_createIRKSN_EEvRSt9_Any_dataOT_St17integral_constantIbLb0EE
FNDA:0,_ZNSt14_Function_base13_Base_managerISt5_BindIFMN7hare_mq7channelEFvRKNSt7__cxx1112basic_stringIcSt11char_traitsIcESaIcEEEPKNS2_15BasicPropertiesESB_EPS3_St12_PlaceholderILi1EESI_ILi2EESI_ILi3EEEEE9_M_createIRKSN_EEvRSt9_Any_dataOT_St17integral_constantIbLb0EE
FN:158,_ZNSt14_Function_base13_Base_managerISt5_BindIFMN7hare_mq7channelEFvRKNSt7__cxx1112basic_stringIcSt11char_traitsIcESaIcEEEEPS3_S9_EEE9_M_createIRKSG_EEvRSt9_Any_dataOT_St17integral_constantIbLb0EE
FNDA:0,_ZNSt14_Function_base13_Base_managerISt5_BindIFMN7hare_mq7channelEFvRKNSt7__cxx1112basic_stringIcSt11char_traitsIcESaIcEEEEPS3_S9_EEE9_M_createIRKSG_EEvRSt9_Any_dataOT_St17integral_constantIbLb0EE
FN:158,_ZNSt14_Function_base13_Base_managerISt5_BindIFMN7hare_mq7channelEFvRKNSt7__cxx1112basic_stringIcSt11char_traitsIcESaIcEEEPKNS2_15BasicPropertiesESB_EPS3_St12_PlaceholderILi1EESI_ILi2EESI_ILi3EEEEE9_M_createIRSN_EEvRSt9_Any_dataOT_St17integral_constantIbLb0EE
FNDA:0,_ZNSt14_Function_base13_Base_managerISt5_BindIFMN7hare_mq7channelEFvRKNSt7__cxx1112basic_stringIcSt11char_traitsIcESaIcEEEPKNS2_15BasicPropertiesESB_EPS3_St12_PlaceholderILi1EESI_ILi2EESI_ILi3EEEEE9_M_createIRSN_EEvRSt9_Any_dataOT_St17integral_constantIbLb0EE
FN:158,_ZNSt14_Function_base13_Base_managerISt5_BindIFMN7hare_mq7channelEFvRKNSt7__cxx1112basic_stringIcSt11char_traitsIcESaIcEEEEPS3_S9_EEE9_M_createIRSG_EEvRSt9_Any_dataOT_St17integral_constantIbLb0EE
FNDA:0,_ZNSt14_Function_base13_Base_managerISt5_BindIFMN7hare_mq7channelEFvRKNSt7__cxx1112basic_stringIcSt11char_traitsIcESaIcEEEEPS3_S9_EEE9_M_createIRSG_EEvRSt9_Any_dataOT_St17integral_constantIbLb0EE
FN:173,_ZNSt14_Function_base13_Base_managerISt5_BindIFMN7hare_mq7channelEFvRKNSt7__cxx1112basic_stringIcSt11char_traitsIcESaIcEEEEPS3_S9_EEE10_M_destroyERSt9_Any_dataSt17integral_constantIbLb0EE
FNDA:0,_ZNSt14_Function_base13_Base_managerISt5_BindIFMN7hare_mq7channelEFvRKNSt7__cxx1112basic_stringIcSt11char_traitsIcESaIcEEEEPS3_S9_EEE10_M_destroyERSt9_Any_dataSt17integral_constantIbLb0EE
FN:180,_ZNSt14_Function_base13_Base_managerISt5_BindIFMN7hare_mq7channelEFvRKNSt7__cxx1112basic_stringIcSt11char_traitsIcESaIcEEEPKNS2_15BasicPropertiesESB_EPS3_St12_PlaceholderILi1EESI_ILi2EESI_ILi3EEEEE10_M_managerERSt9_Any_dataRKSP_St18_Manager_operation
FNDA:0,_ZNSt14_Function_base13_Base_managerISt5_BindIFMN7hare_mq7channelEFvRKNSt7__cxx1112basic_stringIcSt11char_traitsIcESaIcEEEPKNS2_15BasicPropertiesESB_EPS3_St12_PlaceholderILi1EESI_ILi2EESI_ILi3EEEEE10_M_managerERSt9_Any_dataRKSP_St18_Manager_operation
FN:180,_ZNSt14_Function_base13_Base_managerISt5_BindIFMN7hare_mq7channelEFvRKNSt7__cxx1112basic_stringIcSt11char_traitsIcESaIcEEEEPS3_S9_EEE10_M_managerERSt9_Any_dataRKSI_St18_Manager_operation
FNDA:0,_ZNSt14_Function_base13_Base_managerISt5_BindIFMN7hare_mq7channelEFvRKNSt7__cxx1112basic_stringIcSt11char_traitsIcESaIcEEEEPS3_S9_EEE10_M_managerERSt9_Any_dataRKSI_St18_Manager_operation
FN:241,_ZNSt14_Function_baseD2Ev
FNDA:0,_ZNSt14_Function_baseD2Ev
FN:267,_ZNSt17_Function_handlerIFvRKNSt7__cxx1112basic_stringIcSt11char_traitsIcESaIcEEEPKN7hare_mq15BasicPropertiesES7_ESt5_BindIFMNS8_7channelEFvS7_SB_S7_EPSE_St12_PlaceholderILi1EESI_ILi2EESI_ILi3EEEEE10_M_managerERSt9_Any_dataRKSP_St18_Manager_operation
FNDA:0,_ZNSt17_Function_handlerIFvRKNSt7__cxx1112basic_stringIcSt11char_traitsIcESaIcEEEPKN7hare_mq15BasicPropertiesES7_ESt5_BindIFMNS8_7channelEFvS7_SB_S7_EPSE_St12_PlaceholderILi1EESI_ILi2EESI_ILi3EEEEE10_M_managerERSt9_Any_dataRKSP_St18_Manager_operation
FN:267,_ZNSt17_Function_handlerIFvvESt5_BindIFMN7hare_mq7channelEFvRKNSt7__cxx1112basic_stringIcSt11char_traitsIcESaIcEEEEPS3_S9_EEE10_M_managerERSt9_Any_dataRKSI_St18_Manager_operation
FNDA:0,_ZNSt17_Function_handlerIFvvESt5_BindIFMN7hare_mq7channelEFvRKNSt7__cxx1112basic_stringIcSt11char_traitsIcESaIcEEEEPS3_S9_EEE10_M_managerERSt9_Any_dataRKSI_St18_Manager_operation
FN:288,_ZNSt17_Function_handlerIFvRKNSt7__cxx1112basic_stringIcSt11char_traitsIcESaIcEEEPKN7hare_mq15BasicPropertiesES7_ESt5_BindIFMNS8_7channelEFvS7_SB_S7_EPSE_St12_PlaceholderILi1EESI_ILi2EESI_ILi3EEEEE9_M_invokeERKSt9_Any_dataS7_OSB_S7_
FNDA:0,_ZNSt17_Function_handlerIFvRKNSt7__cxx1112basic_stringIcSt11char_traitsIcESaIcEEEPKN7hare_mq15BasicPropertiesES7_ESt5_BindIFMNS8_7channelEFvS7_SB_S7_EPSE_St12_PlaceholderILi1EESI_ILi2EESI_ILi3EEEEE9_M_invokeERKSt9_Any_dataS7_OSB_S7_
FN:288,_ZNSt17_Function_handlerIFvvESt5_BindIFMN7hare_mq7channelEFvRKNSt7__cxx1112basic_stringIcSt11char_traitsIcESaIcEEEEPS3_S9_EEE9_M_invokeERKSt9_Any_data
FNDA:0,_ZNSt17_Function_handlerIFvvESt5_BindIFMN7hare_mq7channelEFvRKNSt7__cxx1112basic_stringIcSt11char_traitsIcESaIcEEEEPS3_S9_EEE9_M_invokeERKSt9_Any_data
FN:435,_ZNSt8functionIFvRKNSt7__cxx1112basic_stringIcSt11char_traitsIcESaIcEEEPKN7hare_mq15BasicPropertiesES7_EEC2IRSt5_BindIFMNS8_7channelEFvS7_SB_S7_EPSG_St12_PlaceholderILi1EESK_ILi2EESK_ILi3EEEEvEEOT_
FNDA:0,_ZNSt8functionIFvRKNSt7__cxx1112basic_stringIcSt11char_traitsIcESaIcEEEPKN7hare_mq15BasicPropertiesES7_EEC2IRSt5_BindIFMNS8_7channelEFvS7_SB_S7_EPSG_St12_PlaceholderILi1EESK_ILi2EESK_ILi3EEEEvEEOT_
FN:435,_ZNSt8functionIFvvEEC2IRSt5_BindIFMN7hare_mq7channelEFvRKNSt7__cxx1112basic_stringIcSt11char_traitsIcESaIcEEEEPS5_SB_EEvEEOT_
FNDA:0,_ZNSt8functionIFvvEEC2IRSt5_BindIFMN7hare_mq7channelEFvRKNSt7__cxx1112basic_stringIcSt11char_traitsIcESaIcEEEEPS5_SB_EEvEEOT_
FN:586,_ZNKSt8functionIFvRKNSt7__cxx1112basic_stringIcSt11char_traitsIcESaIcEEEPKN7hare_mq15BasicPropertiesES7_EEclES7_SB_S7_
FNDA:0,_ZNKSt8functionIFvRKNSt7__cxx1112basic_stringIcSt11char_traitsIcESaIcEEEPKN7hare_mq15BasicPropertiesES7_EEclES7_SB_S7_
DA:91,0
DA:134,0
DA:142,0
DA:158,0
DA:160,0
DA:161,0
DA:162,0
DA:158,0
DA:160,0
DA:161,0
DA:162,0
DA:158,0
DA:160,0
DA:161,0
DA:162,0
DA:158,0
DA:160,0
DA:161,0
DA:162,0
DA:173,0
DA:175,0
DA:176,0
DA:180,0
DA:183,0
DA:185,0
DA:187,0
DA:191,0
DA:193,0
DA:194,0
DA:195,0
DA:197,0
DA:198,0
DA:199,0
DA:202,0
DA:203,0
DA:204,0
DA:206,0
DA:180,0
DA:183,0
DA:185,0
DA:187,0
DA:191,0
DA:193,0
DA:194,0
DA:195,0
DA:197,0
DA:198,0
DA:199,0
DA:202,0
DA:203,0
DA:204,0
DA:206,0
DA:211,0
DA:215,0
DA:216,0
DA:235,0
DA:239,0
DA:241,0
DA:243,0
DA:244,0
DA:245,0
DA:247,0
DA:267,0
DA:270,0
DA:273,0
DA:274,0
DA:275,0
DA:277,0
DA:278,0
DA:279,0
DA:281,0
DA:282,0
DA:284,0
DA:267,0
DA:270,0
DA:273,0
DA:274,0
DA:275,0
DA:277,0
DA:278,0
DA:279,0
DA:281,0
DA:282,0
DA:284,0
DA:288,0
DA:290,0
DA:291,0
DA:288,0
DA:290,0
DA:291,0
DA:334,0
DA:435,0
DA:437,0
DA:447,0
DA:449,0
DA:451,0
DA:452,0
DA:454,0
DA:435,0
DA:437,0
DA:447,0
DA:449,0
DA:451,0
DA:452,0
DA:454,0
DA:586,0
DA:588,0
DA:589,0
DA:590,0
end_of_record
SF:/usr/include/c++/11/bits/shared_ptr.h
FN:408,_ZNSt10shared_ptrIN7hare_mq7channelEEC2ISaIS1_EJRKNSt7__cxx1112basic_stringIcSt11char_traitsIcESaIcEEERKS_INS0_12virtual_hostEERKS_INS0_16consumer_managerEERKS_I13ProtobufCodecERKS_IN5muduo3net13TcpConnectionEERKS_INS0_11thread_poolEEEEESt20_Sp_alloc_shared_tagIT_EDpOT0_
FNDA:0,_ZNSt10shared_ptrIN7hare_mq7channelEEC2ISaIS1_EJRKNSt7__cxx1112basic_stringIcSt11char_traitsIcESaIcEEERKS_INS0_12virtual_hostEERKS_INS0_16consumer_managerEERKS_I13ProtobufCodecERKS_IN5muduo3net13TcpConnectionEERKS_INS0_11thread_poolEEEEESt20_Sp_alloc_shared_tagIT_EDpOT0_
DA:122,0
DA:148,0
DA:150,0
DA:357,0
DA:383,0
DA:385,0
DA:408,0
DA:409,0
DA:410,0
DA:858,0
DA:863,0
DA:875,0
DA:878,0
DA:879,0
end_of_record
SF:/usr/include/c++/11/compare
DA:59,0
DA:264,0
DA:265,0
end_of_record
SF:/usr/include/c++/11/ext/atomicity.h
DA:47,0
DA:52,0
DA:65,0
DA:66,0
DA:70,0
DA:71,0
DA:82,0
DA:84,0
DA:85,0
DA:86,0
DA:91,0
DA:92,0
DA:96,0
DA:98,0
DA:99,0
DA:101,0
DA:106,0
DA:108,0
DA:109,0
DA:111,0
end_of_record
SF:/usr/include/c++/11/bits/allocator.h
DA:156,0
DA:159,0
DA:160,0
DA:169,0
DA:174,0
DA:179,0
DA:185,0
DA:190,0
DA:199,0
end_of_record
SF:/usr/include/c++/11/bits/stl_function.h
DA:369,0
DA:370,0
DA:1174,0
DA:1175,0
end_of_record
SF:/usr/include/c++/11/bits/enable_special_members.h
DA:67,0
end_of_record
TN:
SF:/usr/local/include/google/protobuf/map_entry.h
FN:101,_ZN6google8protobuf8internal8MapEntryIN7hare_mq38declareQueueRequest_ArgsEntry_DoNotUseENSt7__cxx1112basic_stringIcSt11char_traitsIcESaIcEEESA_LNS1_14WireFormatLite9FieldTypeE9ELSC_9EED0Ev
FNDA:0,_ZN6google8protobuf8internal8MapEntryIN7hare_mq38declareQueueRequest_ArgsEntry_DoNotUseENSt7__cxx1112basic_stringIcSt11char_traitsIcESaIcEEESA_LNS1_14WireFormatLite9FieldTypeE9ELSC_9EED0Ev
FN:101,_ZN6google8protobuf8internal8MapEntryIN7hare_mq38declareQueueRequest_ArgsEntry_DoNotUseENSt7__cxx1112basic_stringIcSt11char_traitsIcESaIcEEESA_LNS1_14WireFormatLite9FieldTypeE9ELSC_9EED2Ev
FNDA:0,_ZN6google8protobuf8internal8MapEntryIN7hare_mq38declareQueueRequest_ArgsEntry_DoNotUseENSt7__cxx1112basic_stringIcSt11char_traitsIcESaIcEEESA_LNS1_14WireFormatLite9FieldTypeE9ELSC_9EED2Ev
FN:101,_ZN6google8protobuf8internal8MapEntryIN7hare_mq41declareExchangeRequest_ArgsEntry_DoNotUseENSt7__cxx1112basic_stringIcSt11char_traitsIcESaIcEEESA_LNS1_14WireFormatLite9FieldTypeE9ELSC_9EED0Ev
FNDA:0,_ZN6google8protobuf8internal8MapEntryIN7hare_mq41declareExchangeRequest_ArgsEntry_DoNotUseENSt7__cxx1112basic_stringIcSt11char_traitsIcESaIcEEESA_LNS1_14WireFormatLite9FieldTypeE9ELSC_9EED0Ev
FN:101,_ZN6google8protobuf8internal8MapEntryIN7hare_mq41declareExchangeRequest_ArgsEntry_DoNotUseENSt7__cxx1112basic_stringIcSt11char_traitsIcESaIcEEESA_LNS1_14WireFormatLite9FieldTypeE9ELSC_9EED2Ev
FNDA:0,_ZN6google8protobuf8internal8MapEntryIN7hare_mq41declareExchangeRequest_ArgsEntry_DoNotUseENSt7__cxx1112basic_stringIcSt11char_traitsIcESaIcEEESA_LNS1_14WireFormatLite9FieldTypeE9ELSC_9EED2Ev
FN:112,_ZNK6google8protobuf8internal8MapEntryIN7hare_mq41declareExchangeRequest_ArgsEntry_DoNotUseENSt7__cxx1112basic_stringIcSt11char_traitsIcESaIcEEESA_LNS1_14WireFormatLite9FieldTypeE9ELSC_9EE13SpaceUsedLongEv
FNDA:0,_ZNK6google8protobuf8internal8MapEntryIN7hare_mq41declareExchangeRequest_ArgsEntry_DoNotUseENSt7__cxx1112basic_stringIcSt11char_traitsIcESaIcEEESA_LNS1_14WireFormatLite9FieldTypeE9ELSC_9EE13SpaceUsedLongEv
FN:112,_ZNK6google8protobuf8internal8MapEntryIN7hare_mq38declareQueueRequest_ArgsEntry_DoNotUseENSt7__cxx1112basic_stringIcSt11char_traitsIcESaIcEEESA_LNS1_14WireFormatLite9FieldTypeE9ELSC_9EE13SpaceUsedLongEv
FNDA:0,_ZNK6google8protobuf8internal8MapEntryIN7hare_mq38declareQueueRequest_ArgsEntry_DoNotUseENSt7__cxx1112basic_stringIcSt11char_traitsIcESaIcEEESA_LNS1_14WireFormatLite9FieldTypeE9ELSC_9EE13SpaceUsedLongEv
DA:97,0
DA:98,0
DA:100,0
DA:101,0
DA:103,0
DA:101,0
DA:102,0
DA:103,0
DA:101,0
DA:103,0
DA:101,0
DA:102,0
DA:103,0
DA:112,0
DA:115,0
DA:116,0
DA:112,0
DA:115,0
DA:116,0
end_of_record
SF:/usr/local/include/google/protobuf/unknown_field_set.h
FN:302,_ZN6google8protobuf15UnknownFieldSetD2Ev
FNDA:0,_ZN6google8protobuf15UnknownFieldSetD2Ev
DA:300,0
DA:302,0
DA:306,0
DA:307,0
DA:308,0
end_of_record
SF:/usr/include/x86_64-linux-gnu/bits/string_fortified.h
DA:26,0
DA:29,0
DA:57,0
DA:59,0
end_of_record
SF:/usr/local/include/google/protobuf/map_field.h
FN:97,_ZNK6google8protobuf6MapKey4typeEv
FNDA:0,_ZNK6google8protobuf6MapKey4typeEv
FN:126,_ZN6google8protobuf6MapKey14SetStringValueENSt7__cxx1112basic_stringIcSt11char_traitsIcESaIcEEE
FNDA:0,_ZN6google8protobuf6MapKey14SetStringValueENSt7__cxx1112basic_stringIcSt11char_traitsIcESaIcEEE
FN:151,_ZNK6google8protobuf6MapKey14GetStringValueB5cxx11Ev
FNDA:0,_ZNK6google8protobuf6MapKey14GetStringValueB5cxx11Ev
FN:260,_ZN6google8protobuf6MapKey7SetTypeENS0_15FieldDescriptor7CppTypeE
FNDA:0,_ZN6google8protobuf6MapKey7SetTypeENS0_15FieldDescriptor7CppTypeE
FN:351,_ZN6google8protobuf8internal12MapFieldBaseD2Ev
FNDA:0,_ZN6google8protobuf8internal12MapFieldBaseD2Ev
FN:409,_ZNK6google8protobuf8internal12MapFieldBase30SyncMapWithRepeatedFieldNoLockEv
FNDA:0,_ZNK6google8protobuf8internal12MapFieldBase30SyncMapWithRepeatedFieldNoLockEv
FN:565,_ZN6google8protobuf8internal8MapFieldIN7hare_mq38declareQueueRequest_ArgsEntry_DoNotUseENSt7__cxx1112basic_stringIcSt11char_traitsIcESaIcEEESA_LNS1_14WireFormatLite9FieldTypeE9ELSC_9EED0Ev
FNDA:0,_ZN6google8protobuf8internal8MapFieldIN7hare_mq38declareQueueRequest_ArgsEntry_DoNotUseENSt7__cxx1112basic_stringIcSt11char_traitsIcESaIcEEESA_LNS1_14WireFormatLite9FieldTypeE9ELSC_9EED0Ev
FN:565,_ZN6google8protobuf8internal8MapFieldIN7hare_mq38declareQueueRequest_ArgsEntry_DoNotUseENSt7__cxx1112basic_stringIcSt11char_traitsIcESaIcEEESA_LNS1_14WireFormatLite9FieldTypeE9ELSC_9EED2Ev
FNDA:0,_ZN6google8protobuf8internal8MapFieldIN7hare_mq38declareQueueRequest_ArgsEntry_DoNotUseENSt7__cxx1112basic_stringIcSt11char_traitsIcESaIcEEESA_LNS1_14WireFormatLite9FieldTypeE9ELSC_9EED2Ev
FN:565,_ZN6google8protobuf8internal8MapFieldIN7hare_mq41declareExchangeRequest_ArgsEntry_DoNotUseENSt7__cxx1112basic_stringIcSt11char_traitsIcESaIcEEESA_LNS1_14WireFormatLite9FieldTypeE9ELSC_9EED0Ev
FNDA:0,_ZN6google8protobuf8internal8MapFieldIN7hare_mq41declareExchangeRequest_ArgsEntry_DoNotUseENSt7__cxx1112basic_stringIcSt11char_traitsIcESaIcEEESA_LNS1_14WireFormatLite9FieldTypeE9ELSC_9EED0Ev
FN:565,_ZN6google8protobuf8internal8MapFieldIN7hare_mq41declareExchangeRequest_ArgsEntry_DoNotUseENSt7__cxx1112basic_stringIcSt11char_traitsIcESaIcEEESA_LNS1_14WireFormatLite9FieldTypeE9ELSC_9EED2Ev
FNDA:0,_ZN6google8protobuf8internal8MapFieldIN7hare_mq41declareExchangeRequest_ArgsEntry_DoNotUseENSt7__cxx1112basic_stringIcSt11char_traitsIcESaIcEEESA_LNS1_14WireFormatLite9FieldTypeE9ELSC_9EED2Ev
FN:589,_ZNK6google8protobuf8internal8MapFieldIN7hare_mq38declareQueueRequest_ArgsEntry_DoNotUseENSt7__cxx1112basic_stringIcSt11char_traitsIcESaIcEEESA_LNS1_14WireFormatLite9FieldTypeE9ELSC_9EE6GetMapEv
FNDA:0,_ZNK6google8protobuf8internal8MapFieldIN7hare_mq38declareQueueRequest_ArgsEntry_DoNotUseENSt7__cxx1112basic_stringIcSt11char_traitsIcESaIcEEESA_LNS1_14WireFormatLite9FieldTypeE9ELSC_9EE6GetMapEv
FN:589,_ZNK6google8protobuf8internal8MapFieldIN7hare_mq41declareExchangeRequest_ArgsEntry_DoNotUseENSt7__cxx1112basic_stringIcSt11char_traitsIcESaIcEEESA_LNS1_14WireFormatLite9FieldTypeE9ELSC_9EE6GetMapEv
FNDA:0,_ZNK6google8protobuf8internal8MapFieldIN7hare_mq41declareExchangeRequest_ArgsEntry_DoNotUseENSt7__cxx1112basic_stringIcSt11char_traitsIcESaIcEEESA_LNS1_14WireFormatLite9FieldTypeE9ELSC_9EE6GetMapEv
FN:594,_ZN6google8protobuf8internal8MapFieldIN7hare_mq38declareQueueRequest_ArgsEntry_DoNotUseENSt7__cxx1112basic_stringIcSt11char_traitsIcESaIcEEESA_LNS1_14WireFormatLite9FieldTypeE9ELSC_9EE10MutableMapEv
FNDA:0,_ZN6google8protobuf8internal8MapFieldIN7hare_mq38declareQueueRequest_ArgsEntry_DoNotUseENSt7__cxx1112basic_stringIcSt11char_traitsIcESaIcEEESA_LNS1_14WireFormatLite9FieldTypeE9ELSC_9EE10MutableMapEv
FN:594,_ZN6google8protobuf8internal8MapFieldIN7hare_mq41declareExchangeRequest_ArgsEntry_DoNotUseENSt7__cxx1112basic_stringIcSt11char_traitsIcESaIcEEESA_LNS1_14WireFormatLite9FieldTypeE9ELSC_9EE10MutableMapEv
FNDA:0,_ZN6google8protobuf8internal8MapFieldIN7hare_mq41declareExchangeRequest_ArgsEntry_DoNotUseENSt7__cxx1112basic_stringIcSt11char_traitsIcESaIcEEESA_LNS1_14WireFormatLite9FieldTypeE9ELSC_9EE10MutableMapEv
DA:97,0
DA:98,0
DA:99,0
DA:100,0
DA:103,0
DA:126,0
DA:127,0
DA:128,0
DA:129,0
DA:151,0
DA:152,0
DA:153,0
DA:260,0
DA:261,0
DA:262,0
DA:263,0
DA:265,0
DA:266,0
DA:267,0
DA:334,0
DA:335,0
DA:347,0
DA:348,0
DA:351,0
DA:352,0
DA:353,0
DA:409,0
DA:496,0
DA:504,0
DA:509,0
DA:564,0
DA:565,0
DA:565,0
DA:565,0
DA:565,0
DA:566,0
DA:567,0
DA:568,0
DA:577,0
DA:578,0
DA:589,0
DA:590,0
DA:591,0
DA:589,0
DA:590,0
DA:591,0
DA:589,0
DA:590,0
DA:591,0
DA:594,0
DA:595,0
DA:596,0
DA:597,0
DA:598,0
DA:594,0
DA:595,0
DA:596,0
DA:597,0
DA:598,0
DA:612,0
DA:613,0
DA:786,0
DA:787,0
end_of_record
SF:/usr/local/include/google/protobuf/stubs/stringpiece.h
FN:216,_ZN6google8protobuf20stringpiece_internal11StringPieceC2ISaIcEEERKNSt7__cxx1112basic_stringIcSt11char_traitsIcET_EE
FNDA:0,_ZN6google8protobuf20stringpiece_internal11StringPieceC2ISaIcEEERKNSt7__cxx1112basic_stringIcSt11char_traitsIcET_EE
DA:185,0
DA:187,0
DA:190,0
DA:193,0
DA:216,0
DA:218,0
DA:219,0
DA:220,0
end_of_record
SF:/usr/include/c++/11/ext/alloc_traits.h
DA:97,0
DA:98,0
end_of_record
SF:/usr/include/c++/11/bits/refwrap.h
DA:304,0
DA:321,0
DA:323,0
DA:332,0
DA:333,0
DA:337,0
DA:338,0
DA:391,0
DA:392,0
end_of_record
SF:/usr/local/include/google/protobuf/map_entry_lite.h
FN:156,_ZN6google8protobuf8internal12MapEntryImplIN7hare_mq41declareExchangeRequest_ArgsEntry_DoNotUseENS0_7MessageENSt7__cxx1112basic_stringIcSt11char_traitsIcESaIcEEESB_LNS1_14WireFormatLite9FieldTypeE9ELSD_9EEC2EPNS0_5ArenaE
FNDA:0,_ZN6google8protobuf8internal12MapEntryImplIN7hare_mq41declareExchangeRequest_ArgsEntry_DoNotUseENS0_7MessageENSt7__cxx1112basic_stringIcSt11char_traitsIcESaIcEEESB_LNS1_14WireFormatLite9FieldTypeE9ELSD_9EEC2EPNS0_5ArenaE
FN:156,_ZN6google8protobuf8internal12MapEntryImplIN7hare_mq38declareQueueRequest_ArgsEntry_DoNotUseENS0_7MessageENSt7__cxx1112basic_stringIcSt11char_traitsIcESaIcEEESB_LNS1_14WireFormatLite9FieldTypeE9ELSD_9EEC2EPNS0_5ArenaE
FNDA:0,_ZN6google8protobuf8internal12MapEntryImplIN7hare_mq38declareQueueRequest_ArgsEntry_DoNotUseENS0_7MessageENSt7__cxx1112basic_stringIcSt11char_traitsIcESaIcEEESB_LNS1_14WireFormatLite9FieldTypeE9ELSD_9EEC2EPNS0_5ArenaE
FN:162,_ZN6google8protobuf8internal12MapEntryImplIN7hare_mq41declareExchangeRequest_ArgsEntry_DoNotUseENS0_7MessageENSt7__cxx1112basic_stringIcSt11char_traitsIcESaIcEEESB_LNS1_14WireFormatLite9FieldTypeE9ELSD_9EED2Ev
FNDA:0,_ZN6google8protobuf8internal12MapEntryImplIN7hare_mq41declareExchangeRequest_ArgsEntry_DoNotUseENS0_7MessageENSt7__cxx1112basic_stringIcSt11char_traitsIcESaIcEEESB_LNS1_14WireFormatLite9FieldTypeE9ELSD_9EED2Ev
FN:162,_ZN6google8protobuf8internal12MapEntryImplIN7hare_mq41declareExchangeRequest_ArgsEntry_DoNotUseENS0_7MessageENSt7__cxx1112basic_stringIcSt11char_traitsIcESaIcEEESB_LNS1_14WireFormatLite9FieldTypeE9ELSD_9EED0Ev
FNDA:0,_ZN6google8protobuf8internal12MapEntryImplIN7hare_mq41declareExchangeRequest_ArgsEntry_DoNotUseENS0_7MessageENSt7__cxx1112basic_stringIcSt11char_traitsIcESaIcEEESB_LNS1_14WireFormatLite9FieldTypeE9ELSD_9EED0Ev
FN:162,_ZN6google8protobuf8internal12MapEntryImplIN7hare_mq38declareQueueRequest_ArgsEntry_DoNotUseENS0_7MessageENSt7__cxx1112basic_stringIcSt11char_traitsIcESaIcEEESB_LNS1_14WireFormatLite9FieldTypeE9ELSD_9EED2Ev
FNDA:0,_ZN6google8protobuf8internal12MapEntryImplIN7hare_mq38declareQueueRequest_ArgsEntry_DoNotUseENS0_7MessageENSt7__cxx1112basic_stringIcSt11char_traitsIcESaIcEEESB_LNS1_14WireFormatLite9FieldTypeE9ELSD_9EED2Ev
FN:162,_ZN6google8protobuf8internal12MapEntryImplIN7hare_mq38declareQueueRequest_ArgsEntry_DoNotUseENS0_7MessageENSt7__cxx1112basic_stringIcSt11char_traitsIcESaIcEEESB_LNS1_14WireFormatLite9FieldTypeE9ELSD_9EED0Ev
FNDA:0,_ZN6google8protobuf8internal12MapEntryImplIN7hare_mq38declareQueueRequest_ArgsEntry_DoNotUseENS0_7MessageENSt7__cxx1112basic_stringIcSt11char_traitsIcESaIcEEESB_LNS1_14WireFormatLite9FieldTypeE9ELSD_9EED0Ev
FN:170,_ZNK6google8protobuf8internal12MapEntryImplIN7hare_mq41declareExchangeRequest_ArgsEntry_DoNotUseENS0_7MessageENSt7__cxx1112basic_stringIcSt11char_traitsIcESaIcEEESB_LNS1_14WireFormatLite9FieldTypeE9ELSD_9EE3keyEv
FNDA:0,_ZNK6google8protobuf8internal12MapEntryImplIN7hare_mq41declareExchangeRequest_ArgsEntry_DoNotUseENS0_7MessageENSt7__cxx1112basic_stringIcSt11char_traitsIcESaIcEEESB_LNS1_14WireFormatLite9FieldTypeE9ELSD_9EE3keyEv
FN:170,_ZNK6google8protobuf8internal12MapEntryImplIN7hare_mq38declareQueueRequest_ArgsEntry_DoNotUseENS0_7MessageENSt7__cxx1112basic_stringIcSt11char_traitsIcESaIcEEESB_LNS1_14WireFormatLite9FieldTypeE9ELSD_9EE3keyEv
FNDA:0,_ZNK6google8protobuf8internal12MapEntryImplIN7hare_mq38declareQueueRequest_ArgsEntry_DoNotUseENS0_7MessageENSt7__cxx1112basic_stringIcSt11char_traitsIcESaIcEEESB_LNS1_14WireFormatLite9FieldTypeE9ELSD_9EE3keyEv
FN:173,_ZNK6google8protobuf8internal12MapEntryImplIN7hare_mq41declareExchangeRequest_ArgsEntry_DoNotUseENS0_7MessageENSt7__cxx1112basic_stringIcSt11char_traitsIcESaIcEEESB_LNS1_14WireFormatLite9FieldTypeE9ELSD_9EE5valueEv
FNDA:0,_ZNK6google8protobuf8internal12MapEntryImplIN7hare_mq41declareExchangeRequest_ArgsEntry_DoNotUseENS0_7MessageENSt7__cxx1112basic_stringIcSt11char_traitsIcESaIcEEESB_LNS1_14WireFormatLite9FieldTypeE9ELSD_9EE5valueEv
FN:173,_ZNK6google8protobuf8internal12MapEntryImplIN7hare_mq38declareQueueRequest_ArgsEntry_DoNotUseENS0_7MessageENSt7__cxx1112basic_stringIcSt11char_traitsIcESaIcEEESB_LNS1_14WireFormatLite9FieldTypeE9ELSD_9EE5valueEv
FNDA:0,_ZNK6google8protobuf8internal12MapEntryImplIN7hare_mq38declareQueueRequest_ArgsEntry_DoNotUseENS0_7MessageENSt7__cxx1112basic_stringIcSt11char_traitsIcESaIcEEESB_LNS1_14WireFormatLite9FieldTypeE9ELSD_9EE5valueEv
FN:176,_ZN6google8protobuf8internal12MapEntryImplIN7hare_mq41declareExchangeRequest_ArgsEntry_DoNotUseENS0_7MessageENSt7__cxx1112basic_stringIcSt11char_traitsIcESaIcEEESB_LNS1_14WireFormatLite9FieldTypeE9ELSD_9EE11mutable_keyEv
FNDA:0,_ZN6google8protobuf8internal12MapEntryImplIN7hare_mq41declareExchangeRequest_ArgsEntry_DoNotUseENS0_7MessageENSt7__cxx1112basic_stringIcSt11char_traitsIcESaIcEEESB_LNS1_14WireFormatLite9FieldTypeE9ELSD_9EE11mutable_keyEv
FN:176,_ZN6google8protobuf8internal12MapEntryImplIN7hare_mq38declareQueueRequest_ArgsEntry_DoNotUseENS0_7MessageENSt7__cxx1112basic_stringIcSt11char_traitsIcESaIcEEESB_LNS1_14WireFormatLite9FieldTypeE9ELSD_9EE11mutable_keyEv
FNDA:0,_ZN6google8protobuf8internal12MapEntryImplIN7hare_mq38declareQueueRequest_ArgsEntry_DoNotUseENS0_7MessageENSt7__cxx1112basic_stringIcSt11char_traitsIcESaIcEEESB_LNS1_14WireFormatLite9FieldTypeE9ELSD_9EE11mutable_keyEv
FN:180,_ZN6google8protobuf8internal12MapEntryImplIN7hare_mq38declareQueueRequest_ArgsEntry_DoNotUseENS0_7MessageENSt7__cxx1112basic_stringIcSt11char_traitsIcESaIcEEESB_LNS1_14WireFormatLite9FieldTypeE9ELSD_9EE13mutable_valueEv
FNDA:0,_ZN6google8protobuf8internal12MapEntryImplIN7hare_mq38declareQueueRequest_ArgsEntry_DoNotUseENS0_7MessageENSt7__cxx1112basic_stringIcSt11char_traitsIcESaIcEEESB_LNS1_14WireFormatLite9FieldTypeE9ELSD_9EE13mutable_valueEv
FN:180,_ZN6google8protobuf8internal12MapEntryImplIN7hare_mq41declareExchangeRequest_ArgsEntry_DoNotUseENS0_7MessageENSt7__cxx1112basic_stringIcSt11char_traitsIcESaIcEEESB_LNS1_14WireFormatLite9FieldTypeE9ELSD_9EE13mutable_valueEv
FNDA:0,_ZN6google8protobuf8internal12MapEntryImplIN7hare_mq41declareExchangeRequest_ArgsEntry_DoNotUseENS0_7MessageENSt7__cxx1112basic_stringIcSt11char_traitsIcESaIcEEESB_LNS1_14WireFormatLite9FieldTypeE9ELSD_9EE13mutable_valueEv
FN:190,_ZNK6google8protobuf8internal12MapEntryImplIN7hare_mq38declareQueueRequest_ArgsEntry_DoNotUseENS0_7MessageENSt7__cxx1112basic_stringIcSt11char_traitsIcESaIcEEESB_LNS1_14WireFormatLite9FieldTypeE9ELSD_9EE11GetTypeNameEv
FNDA:0,_ZNK6google8protobuf8internal12MapEntryImplIN7hare_mq38declareQueueRequest_ArgsEntry_DoNotUseENS0_7MessageENSt7__cxx1112basic_stringIcSt11char_traitsIcESaIcEEESB_LNS1_14WireFormatLite9FieldTypeE9ELSD_9EE11GetTypeNameEv
FN:190,_ZNK6google8protobuf8internal12MapEntryImplIN7hare_mq41declareExchangeRequest_ArgsEntry_DoNotUseENS0_7MessageENSt7__cxx1112basic_stringIcSt11char_traitsIcESaIcEEESB_LNS1_14WireFormatLite9FieldTypeE9ELSD_9EE11GetTypeNameEv
FNDA:0,_ZNK6google8protobuf8internal12MapEntryImplIN7hare_mq41declareExchangeRequest_ArgsEntry_DoNotUseENS0_7MessageENSt7__cxx1112basic_stringIcSt11char_traitsIcESaIcEEESB_LNS1_14WireFormatLite9FieldTypeE9ELSD_9EE11GetTypeNameEv
FN:192,_ZN6google8protobuf8internal12MapEntryImplIN7hare_mq41declareExchangeRequest_ArgsEntry_DoNotUseENS0_7MessageENSt7__cxx1112basic_stringIcSt11char_traitsIcESaIcEEESB_LNS1_14WireFormatLite9FieldTypeE9ELSD_9EE21CheckTypeAndMergeFromERKNS0_11MessageLiteE
FNDA:0,_ZN6google8protobuf8internal12MapEntryImplIN7hare_mq41declareExchangeRequest_ArgsEntry_DoNotUseENS0_7MessageENSt7__cxx1112basic_stringIcSt11char_traitsIcESaIcEEESB_LNS1_14WireFormatLite9FieldTypeE9ELSD_9EE21CheckTypeAndMergeFromERKNS0_11MessageLiteE
FN:192,_ZN6google8protobuf8internal12MapEntryImplIN7hare_mq38declareQueueRequest_ArgsEntry_DoNotUseENS0_7MessageENSt7__cxx1112basic_stringIcSt11char_traitsIcESaIcEEESB_LNS1_14WireFormatLite9FieldTypeE9ELSD_9EE21CheckTypeAndMergeFromERKNS0_11MessageLiteE
FNDA:0,_ZN6google8protobuf8internal12MapEntryImplIN7hare_mq38declareQueueRequest_ArgsEntry_DoNotUseENS0_7MessageENSt7__cxx1112basic_stringIcSt11char_traitsIcESaIcEEESB_LNS1_14WireFormatLite9FieldTypeE9ELSD_9EE21CheckTypeAndMergeFromERKNS0_11MessageLiteE
FN:196,_ZN6google8protobuf8internal12MapEntryImplIN7hare_mq38declareQueueRequest_ArgsEntry_DoNotUseENS0_7MessageENSt7__cxx1112basic_stringIcSt11char_traitsIcESaIcEEESB_LNS1_14WireFormatLite9FieldTypeE9ELSD_9EE14_InternalParseEPKcPNS1_12ParseContextE
FNDA:0,_ZN6google8protobuf8internal12MapEntryImplIN7hare_mq38declareQueueRequest_ArgsEntry_DoNotUseENS0_7MessageENSt7__cxx1112basic_stringIcSt11char_traitsIcESaIcEEESB_LNS1_14WireFormatLite9FieldTypeE9ELSD_9EE14_InternalParseEPKcPNS1_12ParseContextE
FN:196,_ZN6google8protobuf8internal12MapEntryImplIN7hare_mq41declareExchangeRequest_ArgsEntry_DoNotUseENS0_7MessageENSt7__cxx1112basic_stringIcSt11char_traitsIcESaIcEEESB_LNS1_14WireFormatLite9FieldTypeE9ELSD_9EE14_InternalParseEPKcPNS1_12ParseContextE
FNDA:0,_ZN6google8protobuf8internal12MapEntryImplIN7hare_mq41declareExchangeRequest_ArgsEntry_DoNotUseENS0_7MessageENSt7__cxx1112basic_stringIcSt11char_traitsIcESaIcEEESB_LNS1_14WireFormatLite9FieldTypeE9ELSD_9EE14_InternalParseEPKcPNS1_12ParseContextE
FN:225,_ZNK6google8protobuf8internal12MapEntryImplIN7hare_mq41declareExchangeRequest_ArgsEntry_DoNotUseENS0_7MessageENSt7__cxx1112basic_stringIcSt11char_traitsIcESaIcEEESB_LNS1_14WireFormatLite9FieldTypeE9ELSD_9EE12ByteSizeLongEv
FNDA:0,_ZNK6google8protobuf8internal12MapEntryImplIN7hare_mq41declareExchangeRequest_ArgsEntry_DoNotUseENS0_7MessageENSt7__cxx1112basic_stringIcSt11char_traitsIcESaIcEEESB_LNS1_14WireFormatLite9FieldTypeE9ELSD_9EE12ByteSizeLongEv
FN:225,_ZNK6google8protobuf8internal12MapEntryImplIN7hare_mq38declareQueueRequest_ArgsEntry_DoNotUseENS0_7MessageENSt7__cxx1112basic_stringIcSt11char_traitsIcESaIcEEESB_LNS1_14WireFormatLite9FieldTypeE9ELSD_9EE12ByteSizeLongEv
FNDA:0,_ZNK6google8protobuf8internal12MapEntryImplIN7hare_mq38declareQueueRequest_ArgsEntry_DoNotUseENS0_7MessageENSt7__cxx1112basic_stringIcSt11char_traitsIcESaIcEEESB_LNS1_14WireFormatLite9FieldTypeE9ELSD_9EE12ByteSizeLongEv
FN:232,_ZNK6google8protobuf8internal12MapEntryImplIN7hare_mq41declareExchangeRequest_ArgsEntry_DoNotUseENS0_7MessageENSt7__cxx1112basic_stringIcSt11char_traitsIcESaIcEEESB_LNS1_14WireFormatLite9FieldTypeE9ELSD_9EE18_InternalSerializeEPhPNS0_2io19EpsCopyOutputStreamE
FNDA:0,_ZNK6google8protobuf8internal12MapEntryImplIN7hare_mq41declareExchangeRequest_ArgsEntry_DoNotUseENS0_7MessageENSt7__cxx1112basic_stringIcSt11char_traitsIcESaIcEEESB_LNS1_14WireFormatLite9FieldTypeE9ELSD_9EE18_InternalSerializeEPhPNS0_2io19EpsCopyOutputStreamE
FN:232,_ZNK6google8protobuf8internal12MapEntryImplIN7hare_mq38declareQueueRequest_ArgsEntry_DoNotUseENS0_7MessageENSt7__cxx1112basic_stringIcSt11char_traitsIcESaIcEEESB_LNS1_14WireFormatLite9FieldTypeE9ELSD_9EE18_InternalSerializeEPhPNS0_2io19EpsCopyOutputStreamE
FNDA:0,_ZNK6google8protobuf8internal12MapEntryImplIN7hare_mq38declareQueueRequest_ArgsEntry_DoNotUseENS0_7MessageENSt7__cxx1112basic_stringIcSt11char_traitsIcESaIcEEESB_LNS1_14WireFormatLite9FieldTypeE9ELSD_9EE18_InternalSerializeEPhPNS0_2io19EpsCopyOutputStreamE
FN:240,_ZNK6google8protobuf8internal12MapEntryImplIN7hare_mq41declareExchangeRequest_ArgsEntry_DoNotUseENS0_7MessageENSt7__cxx1112basic_stringIcSt11char_traitsIcESaIcEEESB_LNS1_14WireFormatLite9FieldTypeE9ELSD_9EE13GetCachedSizeEv
FNDA:0,_ZNK6google8protobuf8internal12MapEntryImplIN7hare_mq41declareExchangeRequest_ArgsEntry_DoNotUseENS0_7MessageENSt7__cxx1112basic_stringIcSt11char_traitsIcESaIcEEESB_LNS1_14WireFormatLite9FieldTypeE9ELSD_9EE13GetCachedSizeEv
FN:240,_ZNK6google8protobuf8internal12MapEntryImplIN7hare_mq38declareQueueRequest_ArgsEntry_DoNotUseENS0_7MessageENSt7__cxx1112basic_stringIcSt11char_traitsIcESaIcEEESB_LNS1_14WireFormatLite9FieldTypeE9ELSD_9EE13GetCachedSizeEv
FNDA:0,_ZNK6google8protobuf8internal12MapEntryImplIN7hare_mq38declareQueueRequest_ArgsEntry_DoNotUseENS0_7MessageENSt7__cxx1112basic_stringIcSt11char_traitsIcESaIcEEESB_LNS1_14WireFormatLite9FieldTypeE9ELSD_9EE13GetCachedSizeEv
FN:251,_ZNK6google8protobuf8internal12MapEntryImplIN7hare_mq41declareExchangeRequest_ArgsEntry_DoNotUseENS0_7MessageENSt7__cxx1112basic_stringIcSt11char_traitsIcESaIcEEESB_LNS1_14WireFormatLite9FieldTypeE9ELSD_9EE13IsInitializedEv
FNDA:0,_ZNK6google8protobuf8internal12MapEntryImplIN7hare_mq41declareExchangeRequest_ArgsEntry_DoNotUseENS0_7MessageENSt7__cxx1112basic_stringIcSt11char_traitsIcESaIcEEESB_LNS1_14WireFormatLite9FieldTypeE9ELSD_9EE13IsInitializedEv
FN:251,_ZNK6google8protobuf8internal12MapEntryImplIN7hare_mq38declareQueueRequest_ArgsEntry_DoNotUseENS0_7MessageENSt7__cxx1112basic_stringIcSt11char_traitsIcESaIcEEESB_LNS1_14WireFormatLite9FieldTypeE9ELSD_9EE13IsInitializedEv
FNDA:0,_ZNK6google8protobuf8internal12MapEntryImplIN7hare_mq38declareQueueRequest_ArgsEntry_DoNotUseENS0_7MessageENSt7__cxx1112basic_stringIcSt11char_traitsIcESaIcEEESB_LNS1_14WireFormatLite9FieldTypeE9ELSD_9EE13IsInitializedEv
FN:255,_ZNK6google8protobuf8internal12MapEntryImplIN7hare_mq41declareExchangeRequest_ArgsEntry_DoNotUseENS0_7MessageENSt7__cxx1112basic_stringIcSt11char_traitsIcESaIcEEESB_LNS1_14WireFormatLite9FieldTypeE9ELSD_9EE3NewEPNS0_5ArenaE
FNDA:0,_ZNK6google8protobuf8internal12MapEntryImplIN7hare_mq41declareExchangeRequest_ArgsEntry_DoNotUseENS0_7MessageENSt7__cxx1112basic_stringIcSt11char_traitsIcESaIcEEESB_LNS1_14WireFormatLite9FieldTypeE9ELSD_9EE3NewEPNS0_5ArenaE
FN:255,_ZNK6google8protobuf8internal12MapEntryImplIN7hare_mq38declareQueueRequest_ArgsEntry_DoNotUseENS0_7MessageENSt7__cxx1112basic_stringIcSt11char_traitsIcESaIcEEESB_LNS1_14WireFormatLite9FieldTypeE9ELSD_9EE3NewEPNS0_5ArenaE
FNDA:0,_ZNK6google8protobuf8internal12MapEntryImplIN7hare_mq38declareQueueRequest_ArgsEntry_DoNotUseENS0_7MessageENSt7__cxx1112basic_stringIcSt11char_traitsIcESaIcEEESB_LNS1_14WireFormatLite9FieldTypeE9ELSD_9EE3NewEPNS0_5ArenaE
FN:263,_ZN6google8protobuf8internal12MapEntryImplIN7hare_mq38declareQueueRequest_ArgsEntry_DoNotUseENS0_7MessageENSt7__cxx1112basic_stringIcSt11char_traitsIcESaIcEEESB_LNS1_14WireFormatLite9FieldTypeE9ELSD_9EE17MergeFromInternalERKSE_
FNDA:0,_ZN6google8protobuf8internal12MapEntryImplIN7hare_mq38declareQueueRequest_ArgsEntry_DoNotUseENS0_7MessageENSt7__cxx1112basic_stringIcSt11char_traitsIcESaIcEEESB_LNS1_14WireFormatLite9FieldTypeE9ELSD_9EE17MergeFromInternalERKSE_
FN:263,_ZN6google8protobuf8internal12MapEntryImplIN7hare_mq41declareExchangeRequest_ArgsEntry_DoNotUseENS0_7MessageENSt7__cxx1112basic_stringIcSt11char_traitsIcESaIcEEESB_LNS1_14WireFormatLite9FieldTypeE9ELSD_9EE17MergeFromInternalERKSE_
FNDA:0,_ZN6google8protobuf8internal12MapEntryImplIN7hare_mq41declareExchangeRequest_ArgsEntry_DoNotUseENS0_7MessageENSt7__cxx1112basic_stringIcSt11char_traitsIcESaIcEEESB_LNS1_14WireFormatLite9FieldTypeE9ELSD_9EE17MergeFromInternalERKSE_
FN:280,_ZN6google8protobuf8internal12MapEntryImplIN7hare_mq41declareExchangeRequest_ArgsEntry_DoNotUseENS0_7MessageENSt7__cxx1112basic_stringIcSt11char_traitsIcESaIcEEESB_LNS1_14WireFormatLite9FieldTypeE9ELSD_9EE5ClearEv
FNDA:0,_ZN6google8protobuf8internal12MapEntryImplIN7hare_mq41declareExchangeRequest_ArgsEntry_DoNotUseENS0_7MessageENSt7__cxx1112basic_stringIcSt11char_traitsIcESaIcEEESB_LNS1_14WireFormatLite9FieldTypeE9ELSD_9EE5ClearEv
FN:280,_ZN6google8protobuf8internal12MapEntryImplIN7hare_mq38declareQueueRequest_ArgsEntry_DoNotUseENS0_7MessageENSt7__cxx1112basic_stringIcSt11char_traitsIcESaIcEEESB_LNS1_14WireFormatLite9FieldTypeE9ELSD_9EE5ClearEv
FNDA:0,_ZN6google8protobuf8internal12MapEntryImplIN7hare_mq38declareQueueRequest_ArgsEntry_DoNotUseENS0_7MessageENSt7__cxx1112basic_stringIcSt11char_traitsIcESaIcEEESB_LNS1_14WireFormatLite9FieldTypeE9ELSD_9EE5ClearEv
FN:293,_ZN6google8protobuf8internal12MapEntryImplIN7hare_mq41declareExchangeRequest_ArgsEntry_DoNotUseENS0_7MessageENSt7__cxx1112basic_stringIcSt11char_traitsIcESaIcEEESB_LNS1_14WireFormatLite9FieldTypeE9ELSD_9EE6ParserINS1_12MapFieldLiteIS4_SB_SB_LSD_9ELSD_9EEENS0_3MapISB_SB_EEED2Ev
FNDA:0,_ZN6google8protobuf8internal12MapEntryImplIN7hare_mq41declareExchangeRequest_ArgsEntry_DoNotUseENS0_7MessageENSt7__cxx1112basic_stringIcSt11char_traitsIcESaIcEEESB_LNS1_14WireFormatLite9FieldTypeE9ELSD_9EE6ParserINS1_12MapFieldLiteIS4_SB_SB_LSD_9ELSD_9EEENS0_3MapISB_SB_EEED2Ev
FN:293,_ZN6google8protobuf8internal12MapEntryImplIN7hare_mq38declareQueueRequest_ArgsEntry_DoNotUseENS0_7MessageENSt7__cxx1112basic_stringIcSt11char_traitsIcESaIcEEESB_LNS1_14WireFormatLite9FieldTypeE9ELSD_9EE6ParserINS1_12MapFieldLiteIS4_SB_SB_LSD_9ELSD_9EEENS0_3MapISB_SB_EEED2Ev
FNDA:0,_ZN6google8protobuf8internal12MapEntryImplIN7hare_mq38declareQueueRequest_ArgsEntry_DoNotUseENS0_7MessageENSt7__cxx1112basic_stringIcSt11char_traitsIcESaIcEEESB_LNS1_14WireFormatLite9FieldTypeE9ELSD_9EE6ParserINS1_12MapFieldLiteIS4_SB_SB_LSD_9ELSD_9EEENS0_3MapISB_SB_EEED2Ev
FN:298,_ZN6google8protobuf8internal12MapEntryImplIN7hare_mq41declareExchangeRequest_ArgsEntry_DoNotUseENS0_7MessageENSt7__cxx1112basic_stringIcSt11char_traitsIcESaIcEEESB_LNS1_14WireFormatLite9FieldTypeE9ELSD_9EE6ParserINS1_12MapFieldLiteIS4_SB_SB_LSD_9ELSD_9EEENS0_3MapISB_SB_EEE14_InternalParseEPKcPNS1_12ParseContextE
FNDA:0,_ZN6google8protobuf8internal12MapEntryImplIN7hare_mq41declareExchangeRequest_ArgsEntry_DoNotUseENS0_7MessageENSt7__cxx1112basic_stringIcSt11char_traitsIcESaIcEEESB_LNS1_14WireFormatLite9FieldTypeE9ELSD_9EE6ParserINS1_12MapFieldLiteIS4_SB_SB_LSD_9ELSD_9EEENS0_3MapISB_SB_EEE14_InternalParseEPKcPNS1_12ParseContextE
FN:298,_ZN6google8protobuf8internal12MapEntryImplIN7hare_mq38declareQueueRequest_ArgsEntry_DoNotUseENS0_7MessageENSt7__cxx1112basic_stringIcSt11char_traitsIcESaIcEEESB_LNS1_14WireFormatLite9FieldTypeE9ELSD_9EE6ParserINS1_12MapFieldLiteIS4_SB_SB_LSD_9ELSD_9EEENS0_3MapISB_SB_EEE14_InternalParseEPKcPNS1_12ParseContextE
FNDA:0,_ZN6google8protobuf8internal12MapEntryImplIN7hare_mq38declareQueueRequest_ArgsEntry_DoNotUseENS0_7MessageENSt7__cxx1112basic_stringIcSt11char_traitsIcESaIcEEESB_LNS1_14WireFormatLite9FieldTypeE9ELSD_9EE6ParserINS1_12MapFieldLiteIS4_SB_SB_LSD_9ELSD_9EEENS0_3MapISB_SB_EEE14_InternalParseEPKcPNS1_12ParseContextE
FN:365,_ZN6google8protobuf8internal12MapEntryImplIN7hare_mq41declareExchangeRequest_ArgsEntry_DoNotUseENS0_7MessageENSt7__cxx1112basic_stringIcSt11char_traitsIcESaIcEEESB_LNS1_14WireFormatLite9FieldTypeE9ELSD_9EE6ParserINS1_12MapFieldLiteIS4_SB_SB_LSD_9ELSD_9EEENS0_3MapISB_SB_EEE23UseKeyAndValueFromEntryEv
FNDA:0,_ZN6google8protobuf8internal12MapEntryImplIN7hare_mq41declareExchangeRequest_ArgsEntry_DoNotUseENS0_7MessageENSt7__cxx1112basic_stringIcSt11char_traitsIcESaIcEEESB_LNS1_14WireFormatLite9FieldTypeE9ELSD_9EE6ParserINS1_12MapFieldLiteIS4_SB_SB_LSD_9ELSD_9EEENS0_3MapISB_SB_EEE23UseKeyAndValueFromEntryEv
FN:365,_ZN6google8protobuf8internal12MapEntryImplIN7hare_mq38declareQueueRequest_ArgsEntry_DoNotUseENS0_7MessageENSt7__cxx1112basic_stringIcSt11char_traitsIcESaIcEEESB_LNS1_14WireFormatLite9FieldTypeE9ELSD_9EE6ParserINS1_12MapFieldLiteIS4_SB_SB_LSD_9ELSD_9EEENS0_3MapISB_SB_EEE23UseKeyAndValueFromEntryEv
FNDA:0,_ZN6google8protobuf8internal12MapEntryImplIN7hare_mq38declareQueueRequest_ArgsEntry_DoNotUseENS0_7MessageENSt7__cxx1112basic_stringIcSt11char_traitsIcESaIcEEESB_LNS1_14WireFormatLite9FieldTypeE9ELSD_9EE6ParserINS1_12MapFieldLiteIS4_SB_SB_LSD_9ELSD_9EEENS0_3MapISB_SB_EEE23UseKeyAndValueFromEntryEv
FN:536,_ZN6google8protobuf8internal12MapSorterPtrINS0_3MapINSt7__cxx1112basic_stringIcSt11char_traitsIcESaIcEEES9_EEEC2ERKSA_
FNDA:0,_ZN6google8protobuf8internal12MapSorterPtrINS0_3MapINSt7__cxx1112basic_stringIcSt11char_traitsIcESaIcEEES9_EEEC2ERKSA_
DA:99,0
DA:100,0
DA:101,0
DA:151,0
DA:152,0
DA:153,0
DA:154,0
DA:156,0
DA:158,0
DA:159,0
DA:160,0
DA:156,0
DA:158,0
DA:159,0
DA:160,0
DA:162,0
DA:166,0
DA:162,0
DA:163,0
DA:164,0
DA:165,0
DA:166,0
DA:162,0
DA:166,0
DA:162,0
DA:163,0
DA:164,0
DA:165,0
DA:166,0
DA:170,0
DA:171,0
DA:170,0
DA:171,0
DA:173,0
DA:174,0
DA:173,0
DA:174,0
DA:176,0
DA:177,0
DA:178,0
DA:176,0
DA:177,0
DA:178,0
DA:180,0
DA:181,0
DA:182,0
DA:183,0
DA:180,0
DA:181,0
DA:182,0
DA:183,0
DA:190,0
DA:190,0
DA:192,0
DA:193,0
DA:194,0
DA:192,0
DA:193,0
DA:194,0
DA:196,0
DA:197,0
DA:199,0
DA:200,0
DA:201,0
DA:202,0
DA:203,0
DA:204,0
DA:205,0
DA:206,0
DA:207,0
DA:208,0
DA:209,0
DA:210,0
DA:212,0
DA:214,0
DA:215,0
DA:217,0
DA:220,0
DA:222,0
DA:196,0
DA:197,0
DA:199,0
DA:200,0
DA:201,0
DA:202,0
DA:203,0
DA:204,0
DA:205,0
DA:206,0
DA:207,0
DA:208,0
DA:209,0
DA:210,0
DA:212,0
DA:214,0
DA:215,0
DA:217,0
DA:220,0
DA:222,0
DA:225,0
DA:226,0
DA:227,0
DA:228,0
DA:229,0
DA:225,0
DA:226,0
DA:227,0
DA:228,0
DA:229,0
DA:232,0
DA:234,0
DA:235,0
DA:232,0
DA:234,0
DA:235,0
DA:240,0
DA:241,0
DA:242,0
DA:243,0
DA:245,0
DA:246,0
DA:248,0
DA:240,0
DA:241,0
DA:242,0
DA:243,0
DA:245,0
DA:246,0
DA:248,0
DA:251,0
DA:252,0
DA:251,0
DA:252,0
DA:255,0
DA:256,0
DA:257,0
DA:255,0
DA:256,0
DA:257,0
DA:263,0
DA:264,0
DA:265,0
DA:266,0
DA:267,0
DA:268,0
DA:270,0
DA:271,0
DA:272,0
DA:274,0
DA:277,0
DA:263,0
DA:264,0
DA:265,0
DA:266,0
DA:267,0
DA:268,0
DA:270,0
DA:271,0
DA:272,0
DA:274,0
DA:277,0
DA:280,0
DA:281,0
DA:282,0
DA:283,0
DA:284,0
DA:285,0
DA:280,0
DA:281,0
DA:282,0
DA:283,0
DA:284,0
DA:285,0
DA:292,0
DA:293,0
DA:294,0
DA:295,0
DA:296,0
DA:293,0
DA:294,0
DA:295,0
DA:296,0
DA:298,0
DA:299,0
DA:300,0
DA:301,0
DA:302,0
DA:304,0
DA:305,0
DA:306,0
DA:307,0
DA:310,0
DA:312,0
DA:314,0
DA:315,0
DA:317,0
DA:318,0
DA:319,0
DA:320,0
DA:321,0
DA:322,0
DA:325,0
DA:327,0
DA:328,0
DA:329,0
DA:331,0
DA:332,0
DA:334,0
DA:335,0
DA:298,0
DA:299,0
DA:300,0
DA:301,0
DA:302,0
DA:304,0
DA:305,0
DA:306,0
DA:307,0
DA:310,0
DA:312,0
DA:314,0
DA:315,0
DA:317,0
DA:318,0
DA:319,0
DA:320,0
DA:321,0
DA:322,0
DA:325,0
DA:327,0
DA:328,0
DA:329,0
DA:331,0
DA:332,0
DA:334,0
DA:335,0
DA:356,0
DA:365,0
DA:370,0
DA:371,0
DA:372,0
DA:373,0
DA:365,0
DA:370,0
DA:371,0
DA:372,0
DA:373,0
DA:407,0
DA:408,0
DA:409,0
DA:410,0
DA:411,0
DA:412,0
DA:462,0
DA:464,0
DA:465,0
DA:517,0
DA:530,0
DA:532,0
DA:533,0
DA:536,0
DA:537,0
DA:538,0
DA:539,0
DA:540,0
DA:541,0
DA:543,0
DA:544,0
DA:545,0
DA:547,0
DA:549,0
DA:550,0
end_of_record
SF:/usr/local/include/google/protobuf/metadata_lite.h
FN:66,_ZN6google8protobuf8internal16InternalMetadataC2EPNS0_5ArenaEb
FNDA:0,_ZN6google8protobuf8internal16InternalMetadataC2EPNS0_5ArenaEb
FN:99,_ZN6google8protobuf8internal16InternalMetadata17DeleteReturnArenaINS0_15UnknownFieldSetEEEPNS0_5ArenaEv
FNDA:0,_ZN6google8protobuf8internal16InternalMetadata17DeleteReturnArenaINS0_15UnknownFieldSetEEEPNS0_5ArenaEv
FN:107,_ZNK6google8protobuf8internal16InternalMetadata12owning_arenaEv
FNDA:0,_ZNK6google8protobuf8internal16InternalMetadata12owning_arenaEv
FN:143,_ZN6google8protobuf8internal16InternalMetadata22mutable_unknown_fieldsINS0_15UnknownFieldSetEEEPT_v
FNDA:0,_ZN6google8protobuf8internal16InternalMetadata22mutable_unknown_fieldsINS0_15UnknownFieldSetEEEPT_v
FN:169,_ZN6google8protobuf8internal16InternalMetadata9MergeFromINS0_15UnknownFieldSetEEEvRKS2_
FNDA:0,_ZN6google8protobuf8internal16InternalMetadata9MergeFromINS0_15UnknownFieldSetEEEvRKS2_
FN:216,_ZN6google8protobuf8internal16InternalMetadata21DeleteOutOfLineHelperINS0_15UnknownFieldSetEEEPNS0_5ArenaEv
FNDA:0,_ZN6google8protobuf8internal16InternalMetadata21DeleteOutOfLineHelperINS0_15UnknownFieldSetEEEPNS0_5ArenaEv
FN:232,_ZN6google8protobuf8internal16InternalMetadata27mutable_unknown_fields_slowINS0_15UnknownFieldSetEEEPT_v
FNDA:0,_ZN6google8protobuf8internal16InternalMetadata27mutable_unknown_fields_slowINS0_15UnknownFieldSetEEEPT_v
FN:247,_ZN6google8protobuf8internal16InternalMetadata7DoClearINS0_15UnknownFieldSetEEEvv
FNDA:0,_ZN6google8protobuf8internal16InternalMetadata7DoClearINS0_15UnknownFieldSetEEEvv
FN:252,_ZN6google8protobuf8internal16InternalMetadata11DoMergeFromINS0_15UnknownFieldSetEEEvRKT_
FNDA:0,_ZN6google8protobuf8internal16InternalMetadata11DoMergeFromINS0_15UnknownFieldSetEEEvRKT_
DA:65,0
DA:66,0
DA:67,0
DA:68,0
DA:70,0
DA:71,0
DA:84,0
DA:86,0
DA:87,0
DA:99,0
DA:100,0
DA:101,0
DA:103,0
DA:107,0
DA:108,0
DA:116,0
DA:117,0
DA:118,0
DA:120,0
DA:124,0
DA:125,0
DA:133,0
DA:135,0
DA:136,0
DA:138,0
DA:143,0
DA:144,0
DA:145,0
DA:147,0
DA:164,0
DA:165,0
DA:169,0
DA:170,0
DA:171,0
DA:173,0
DA:176,0
DA:177,0
DA:178,0
DA:193,0
DA:194,0
DA:196,0
DA:197,0
DA:201,0
DA:202,0
DA:211,0
DA:216,0
DA:217,0
DA:221,0
DA:222,0
DA:223,0
DA:225,0
DA:226,0
DA:227,0
DA:232,0
DA:233,0
DA:234,0
DA:235,0
DA:238,0
DA:239,0
DA:240,0
DA:241,0
DA:247,0
DA:248,0
DA:249,0
DA:252,0
DA:253,0
DA:254,0
end_of_record
SF:/usr/include/c++/11/bits/stl_map.h
FN:194,_ZNSt3mapISt17reference_wrapperIKNSt7__cxx1112basic_stringIcSt11char_traitsIcESaIcEEEEPvN6google8protobuf8internal18TransparentSupportIS6_E4lessENSC_12MapAllocatorISt4pairIKS8_S9_EEEEC2ERKSF_RKSK_
FNDA:0,_ZNSt3mapISt17reference_wrapperIKNSt7__cxx1112basic_stringIcSt11char_traitsIcESaIcEEEEPvN6google8protobuf8internal18TransparentSupportIS6_E4lessENSC_12MapAllocatorISt4pairIKS8_S9_EEEEC2ERKSF_RKSK_
DA:194,0
DA:196,0
DA:302,0
DA:356,0
DA:357,0
DA:374,0
DA:375,0
DA:465,0
DA:466,0
DA:470,0
DA:471,0
DA:810,0
DA:811,0
DA:1037,0
DA:1038,0
DA:1175,0
DA:1176,0
end_of_record
SF:/usr/local/include/google/protobuf/wire_format_lite.h
FN:1603,_ZN6google8protobuf8internal14WireFormatLite16WriteBoolToArrayEibPh
FNDA:0,_ZN6google8protobuf8internal14WireFormatLite16WriteBoolToArrayEibPh
FN:1608,_ZN6google8protobuf8internal14WireFormatLite16WriteEnumToArrayEiiPh
FNDA:0,_ZN6google8protobuf8internal14WireFormatLite16WriteEnumToArrayEiiPh
FN:1794,_ZN6google8protobuf8internal14WireFormatLite11MessageSizeIN7hare_mq15BasicPropertiesEEEmRKT_
FNDA:0,_ZN6google8protobuf8internal14WireFormatLite11MessageSizeIN7hare_mq15BasicPropertiesEEEmRKT_
DA:794,0
DA:796,0
DA:799,0
DA:800,0
DA:1370,0
DA:1372,0
DA:1431,0
DA:1433,0
DA:1435,0
DA:1437,0
DA:1603,0
DA:1605,0
DA:1606,0
DA:1608,0
DA:1610,0
DA:1611,0
DA:1755,0
DA:1756,0
DA:1781,0
DA:1782,0
DA:1794,0
DA:1795,0
DA:1812,0
DA:1817,0
DA:1818,0
end_of_record
SF:/usr/include/c++/11/bits/basic_string.h
FN:237,_ZNSt7__cxx1112basic_stringIcSt11char_traitsIcESaIcEE10_M_disposeEv
FNDA:0,_ZNSt7__cxx1112basic_stringIcSt11char_traitsIcESaIcEE10_M_disposeEv
FN:354,_ZNSt7__cxx1112basic_stringIcSt11char_traitsIcESaIcEE7_S_copyEPcPKcm
FNDA:0,_ZNSt7__cxx1112basic_stringIcSt11char_traitsIcESaIcEE7_S_copyEPcPKcm
FN:363,_ZNSt7__cxx1112basic_stringIcSt11char_traitsIcESaIcEE7_S_moveEPcPKcm
FNDA:0,_ZNSt7__cxx1112basic_stringIcSt11char_traitsIcESaIcEE7_S_moveEPcPKcm
FN:456,_ZNSt7__cxx1112basic_stringIcSt11char_traitsIcESaIcEEC2ERKS4_
FNDA:0,_ZNSt7__cxx1112basic_stringIcSt11char_traitsIcESaIcEEC2ERKS4_
FN:533,_ZNSt7__cxx1112basic_stringIcSt11char_traitsIcESaIcEEC2IS3_EEPKcRKS3_
FNDA:0,_ZNSt7__cxx1112basic_stringIcSt11char_traitsIcESaIcEEC2IS3_EEPKcRKS3_
FN:717,_ZNSt7__cxx1112basic_stringIcSt11char_traitsIcESaIcEEaSEOS4_
FNDA:0,_ZNSt7__cxx1112basic_stringIcSt11char_traitsIcESaIcEEaSEOS4_
FN:1440,_ZNSt7__cxx1112basic_stringIcSt11char_traitsIcESaIcEE6assignEPKcm
FNDA:0,_ZNSt7__cxx1112basic_stringIcSt11char_traitsIcESaIcEE6assignEPKcm
FN:2873,_ZNKSt7__cxx1112basic_stringIcSt11char_traitsIcESaIcEE7compareERKS4_
FNDA:0,_ZNKSt7__cxx1112basic_stringIcSt11char_traitsIcESaIcEE7compareERKS4_
FN:6262,_ZStssIcSt11char_traitsIcESaIcEEDTcl21__char_traits_cmp_catIT0_ELi0EEERKNSt7__cxx1112basic_stringIT_S3_T1_EESB_
FNDA:0,_ZStssIcSt11char_traitsIcESaIcEEDTcl21__char_traits_cmp_catIT0_ELi0EEERKNSt7__cxx1112basic_stringIT_S3_T1_EESB_
DA:158,0
DA:164,0
DA:165,0
DA:167,0
DA:168,0
DA:186,0
DA:187,0
DA:190,0
DA:191,0
DA:194,0
DA:195,0
DA:198,0
DA:201,0
DA:208,0
DA:211,0
DA:218,0
DA:219,0
DA:222,0
DA:224,0
DA:225,0
DA:226,0
DA:229,0
DA:230,0
DA:237,0
DA:239,0
DA:240,0
DA:241,0
DA:244,0
DA:245,0
DA:251,0
DA:255,0
DA:271,0
DA:274,0
DA:294,0
DA:295,0
DA:298,0
DA:299,0
DA:328,0
DA:330,0
DA:331,0
DA:345,0
DA:347,0
DA:348,0
DA:354,0
DA:356,0
DA:357,0
DA:359,0
DA:360,0
DA:363,0
DA:365,0
DA:366,0
DA:368,0
DA:369,0
DA:400,0
DA:401,0
DA:404,0
DA:406,0
DA:409,0
DA:411,0
DA:413,0
DA:415,0
DA:418,0
DA:439,0
DA:441,0
DA:442,0
DA:456,0
DA:457,0
DA:458,0
DA:459,0
DA:533,0
DA:534,0
DA:536,0
DA:539,0
DA:540,0
DA:671,0
DA:672,0
DA:679,0
DA:681,0
DA:717,0
DA:720,0
DA:730,0
DA:732,0
DA:737,0
DA:739,0
DA:740,0
DA:741,0
DA:749,0
DA:751,0
DA:756,0
DA:757,0
DA:763,0
DA:764,0
DA:765,0
DA:766,0
DA:768,0
DA:769,0
DA:772,0
DA:776,0
DA:777,0
DA:806,0
DA:807,0
DA:920,0
DA:921,0
DA:926,0
DA:927,0
DA:976,0
DA:978,0
DA:1015,0
DA:1016,0
DA:1023,0
DA:1024,0
DA:1356,0
DA:1387,0
DA:1440,0
DA:1443,0
DA:2332,0
DA:2333,0
DA:2343,0
DA:2344,0
DA:2873,0
DA:2875,0
DA:2876,0
DA:2877,0
DA:2879,0
DA:2880,0
DA:2881,0
DA:2882,0
DA:6262,0
DA:6265,0
end_of_record
SF:/usr/local/include/google/protobuf/stubs/casts.h
FN:84,_ZN6google8protobuf8internal9down_castIPKN7hare_mq41declareExchangeRequest_ArgsEntry_DoNotUseEKNS0_11MessageLiteEEET_PT0_
FNDA:0,_ZN6google8protobuf8internal9down_castIPKN7hare_mq41declareExchangeRequest_ArgsEntry_DoNotUseEKNS0_11MessageLiteEEET_PT0_
FN:84,_ZN6google8protobuf8internal9down_castIPKN7hare_mq38declareQueueRequest_ArgsEntry_DoNotUseEKNS0_11MessageLiteEEET_PT0_
FNDA:0,_ZN6google8protobuf8internal9down_castIPKN7hare_mq38declareQueueRequest_ArgsEntry_DoNotUseEKNS0_11MessageLiteEEET_PT0_
FN:84,_ZN6google8protobuf8internal9down_castIPN7hare_mq41declareExchangeRequest_ArgsEntry_DoNotUseENS0_7MessageEEET_PT0_
FNDA:0,_ZN6google8protobuf8internal9down_castIPN7hare_mq41declareExchangeRequest_ArgsEntry_DoNotUseENS0_7MessageEEET_PT0_
FN:84,_ZN6google8protobuf8internal9down_castIPNS1_8MapFieldIN7hare_mq41declareExchangeRequest_ArgsEntry_DoNotUseENSt7__cxx1112basic_stringIcSt11char_traitsIcESaIcEEESB_LNS1_14WireFormatLite9FieldTypeE9ELSD_9EEENS1_12MapFieldBaseEEET_PT0_
FNDA:0,_ZN6google8protobuf8internal9down_castIPNS1_8MapFieldIN7hare_mq41declareExchangeRequest_ArgsEntry_DoNotUseENSt7__cxx1112basic_stringIcSt11char_traitsIcESaIcEEESB_LNS1_14WireFormatLite9FieldTypeE9ELSD_9EEENS1_12MapFieldBaseEEET_PT0_
FN:84,_ZN6google8protobuf8internal9down_castIPN7hare_mq38declareQueueRequest_ArgsEntry_DoNotUseENS0_7MessageEEET_PT0_
FNDA:0,_ZN6google8protobuf8internal9down_castIPN7hare_mq38declareQueueRequest_ArgsEntry_DoNotUseENS0_7MessageEEET_PT0_
FN:84,_ZN6google8protobuf8internal9down_castIPNS1_8MapFieldIN7hare_mq38declareQueueRequest_ArgsEntry_DoNotUseENSt7__cxx1112basic_stringIcSt11char_traitsIcESaIcEEESB_LNS1_14WireFormatLite9FieldTypeE9ELSD_9EEENS1_12MapFieldBaseEEET_PT0_
FNDA:0,_ZN6google8protobuf8internal9down_castIPNS1_8MapFieldIN7hare_mq38declareQueueRequest_ArgsEntry_DoNotUseENSt7__cxx1112basic_stringIcSt11char_traitsIcESaIcEEESB_LNS1_14WireFormatLite9FieldTypeE9ELSD_9EEENS1_12MapFieldBaseEEET_PT0_
DA:84,0
DA:94,0
DA:96,0
DA:84,0
DA:94,0
DA:96,0
DA:84,0
DA:94,0
DA:96,0
DA:84,0
DA:94,0
DA:96,0
DA:84,0
DA:94,0
DA:96,0
DA:84,0
DA:94,0
DA:96,0
end_of_record
SF:/usr/local/include/google/protobuf/port_undef.inc
end_of_record
SF:/usr/local/include/google/protobuf/repeated_ptr_field.h
FN:282,_ZN6google8protobuf8internal20RepeatedPtrFieldBase5ClearINS0_16RepeatedPtrFieldIN7hare_mq38declareQueueRequest_ArgsEntry_DoNotUseEE11TypeHandlerEEEvv
FNDA:0,_ZN6google8protobuf8internal20RepeatedPtrFieldBase5ClearINS0_16RepeatedPtrFieldIN7hare_mq38declareQueueRequest_ArgsEntry_DoNotUseEE11TypeHandlerEEEvv
FN:282,_ZN6google8protobuf8internal20RepeatedPtrFieldBase5ClearINS0_16RepeatedPtrFieldIN7hare_mq41declareExchangeRequest_ArgsEntry_DoNotUseEE11TypeHandlerEEEvv
FNDA:0,_ZN6google8protobuf8internal20RepeatedPtrFieldBase5ClearINS0_16RepeatedPtrFieldIN7hare_mq41declareExchangeRequest_ArgsEntry_DoNotUseEE11TypeHandlerEEEvv
FN:387,_ZNK6google8protobuf8internal20RepeatedPtrFieldBase26SpaceUsedExcludingSelfLongINS0_16RepeatedPtrFieldINS0_7MessageEE11TypeHandlerEEEmv
FNDA:0,_ZNK6google8protobuf8internal20RepeatedPtrFieldBase26SpaceUsedExcludingSelfLongINS0_16RepeatedPtrFieldINS0_7MessageEE11TypeHandlerEEEmv
FN:418,_ZN6google8protobuf8internal20RepeatedPtrFieldBase23UnsafeArenaAddAllocatedINS0_16RepeatedPtrFieldIN7hare_mq41declareExchangeRequest_ArgsEntry_DoNotUseEE11TypeHandlerEEEvPNT_4TypeE
FNDA:0,_ZN6google8protobuf8internal20RepeatedPtrFieldBase23UnsafeArenaAddAllocatedINS0_16RepeatedPtrFieldIN7hare_mq41declareExchangeRequest_ArgsEntry_DoNotUseEE11TypeHandlerEEEvPNT_4TypeE
FN:418,_ZN6google8protobuf8internal20RepeatedPtrFieldBase23UnsafeArenaAddAllocatedINS0_16RepeatedPtrFieldIN7hare_mq38declareQueueRequest_ArgsEntry_DoNotUseEE11TypeHandlerEEEvPNT_4TypeE
FNDA:0,_ZN6google8protobuf8internal20RepeatedPtrFieldBase23UnsafeArenaAddAllocatedINS0_16RepeatedPtrFieldIN7hare_mq38declareQueueRequest_ArgsEntry_DoNotUseEE11TypeHandlerEEEvPNT_4TypeE
FN:495,_ZN6google8protobuf8internal20RepeatedPtrFieldBase20AddAllocatedInternalINS0_16RepeatedPtrFieldIN7hare_mq41declareExchangeRequest_ArgsEntry_DoNotUseEE11TypeHandlerEEEvPNT_4TypeESt17integral_constantIbLb1EE
FNDA:0,_ZN6google8protobuf8internal20RepeatedPtrFieldBase20AddAllocatedInternalINS0_16RepeatedPtrFieldIN7hare_mq41declareExchangeRequest_ArgsEntry_DoNotUseEE11TypeHandlerEEEvPNT_4TypeESt17integral_constantIbLb1EE
FN:495,_ZN6google8protobuf8internal20RepeatedPtrFieldBase20AddAllocatedInternalINS0_16RepeatedPtrFieldIN7hare_mq38declareQueueRequest_ArgsEntry_DoNotUseEE11TypeHandlerEEEvPNT_4TypeESt17integral_constantIbLb1EE
FNDA:0,_ZN6google8protobuf8internal20RepeatedPtrFieldBase20AddAllocatedInternalINS0_16RepeatedPtrFieldIN7hare_mq38declareQueueRequest_ArgsEntry_DoNotUseEE11TypeHandlerEEEvPNT_4TypeESt17integral_constantIbLb1EE
FN:543,_ZN6google8protobuf8internal20RepeatedPtrFieldBase24AddAllocatedSlowWithCopyINS0_16RepeatedPtrFieldIN7hare_mq41declareExchangeRequest_ArgsEntry_DoNotUseEE11TypeHandlerEEEvPNT_4TypeEPNS0_5ArenaESD_
FNDA:0,_ZN6google8protobuf8internal20RepeatedPtrFieldBase24AddAllocatedSlowWithCopyINS0_16RepeatedPtrFieldIN7hare_mq41declareExchangeRequest_ArgsEntry_DoNotUseEE11TypeHandlerEEEvPNT_4TypeEPNS0_5ArenaESD_
FN:543,_ZN6google8protobuf8internal20RepeatedPtrFieldBase24AddAllocatedSlowWithCopyINS0_16RepeatedPtrFieldIN7hare_mq38declareQueueRequest_ArgsEntry_DoNotUseEE11TypeHandlerEEEvPNT_4TypeEPNS0_5ArenaESD_
FNDA:0,_ZN6google8protobuf8internal20RepeatedPtrFieldBase24AddAllocatedSlowWithCopyINS0_16RepeatedPtrFieldIN7hare_mq38declareQueueRequest_ArgsEntry_DoNotUseEE11TypeHandlerEEEvPNT_4TypeEPNS0_5ArenaESD_
FN:756,_ZN6google8protobuf8internal18GenericTypeHandlerIN7hare_mq41declareExchangeRequest_ArgsEntry_DoNotUseEE6DeleteEPS4_PNS0_5ArenaE
FNDA:0,_ZN6google8protobuf8internal18GenericTypeHandlerIN7hare_mq41declareExchangeRequest_ArgsEntry_DoNotUseEE6DeleteEPS4_PNS0_5ArenaE
FN:756,_ZN6google8protobuf8internal18GenericTypeHandlerIN7hare_mq38declareQueueRequest_ArgsEntry_DoNotUseEE6DeleteEPS4_PNS0_5ArenaE
FNDA:0,_ZN6google8protobuf8internal18GenericTypeHandlerIN7hare_mq38declareQueueRequest_ArgsEntry_DoNotUseEE6DeleteEPS4_PNS0_5ArenaE
FN:789,_ZN6google8protobuf8internal18GenericTypeHandlerIN7hare_mq41declareExchangeRequest_ArgsEntry_DoNotUseEE5MergeERKS4_PS4_
FNDA:0,_ZN6google8protobuf8internal18GenericTypeHandlerIN7hare_mq41declareExchangeRequest_ArgsEntry_DoNotUseEE5MergeERKS4_PS4_
FN:789,_ZN6google8protobuf8internal18GenericTypeHandlerIN7hare_mq38declareQueueRequest_ArgsEntry_DoNotUseEE5MergeERKS4_PS4_
FNDA:0,_ZN6google8protobuf8internal18GenericTypeHandlerIN7hare_mq38declareQueueRequest_ArgsEntry_DoNotUseEE5MergeERKS4_PS4_
FN:1159,_ZN6google8protobuf16RepeatedPtrFieldINS0_7MessageEED2Ev
FNDA:0,_ZN6google8protobuf16RepeatedPtrFieldINS0_7MessageEED2Ev
DA:170,0
DA:171,0
DA:176,0
DA:180,0
DA:185,0
DA:260,0
DA:282,0
DA:283,0
DA:284,0
DA:285,0
DA:286,0
DA:287,0
DA:289,0
DA:290,0
DA:291,0
DA:293,0
DA:282,0
DA:283,0
DA:284,0
DA:285,0
DA:286,0
DA:287,0
DA:289,0
DA:290,0
DA:291,0
DA:293,0
DA:347,0
DA:387,0
DA:388,0
DA:389,0
DA:390,0
DA:391,0
DA:392,0
DA:394,0
DA:396,0
DA:412,0
DA:414,0
DA:418,0
DA:420,0
DA:422,0
DA:423,0
DA:424,0
DA:429,0
DA:431,0
DA:434,0
DA:435,0
DA:438,0
DA:441,0
DA:442,0
DA:418,0
DA:420,0
DA:422,0
DA:423,0
DA:424,0
DA:429,0
DA:431,0
DA:434,0
DA:435,0
DA:438,0
DA:441,0
DA:442,0
DA:495,0
DA:498,0
DA:499,0
DA:500,0
DA:504,0
DA:505,0
DA:508,0
DA:510,0
DA:511,0
DA:512,0
DA:513,0
DA:514,0
DA:516,0
DA:495,0
DA:498,0
DA:499,0
DA:500,0
DA:504,0
DA:505,0
DA:508,0
DA:510,0
DA:511,0
DA:512,0
DA:513,0
DA:514,0
DA:516,0
DA:543,0
DA:550,0
DA:551,0
DA:552,0
DA:554,0
DA:555,0
DA:556,0
DA:557,0
DA:560,0
DA:561,0
DA:543,0
DA:550,0
DA:551,0
DA:552,0
DA:554,0
DA:555,0
DA:556,0
DA:557,0
DA:560,0
DA:561,0
DA:613,0
DA:746,0
DA:747,0
DA:752,0
DA:754,0
DA:756,0
DA:757,0
DA:758,0
DA:760,0
DA:756,0
DA:757,0
DA:758,0
DA:760,0
DA:761,0
DA:762,0
DA:765,0
DA:767,0
DA:768,0
DA:789,0
DA:791,0
DA:792,0
DA:789,0
DA:791,0
DA:792,0
DA:1142,0
DA:1143,0
DA:1159,0
DA:1165,0
DA:1169,0
DA:1221,0
DA:1222,0
DA:1376,0
DA:1377,0
DA:1378,0
DA:1448,0
DA:1449,0
DA:1453,0
DA:1454,0
DA:1525,0
DA:1536,0
DA:1537,0
DA:1540,0
DA:1541,0
DA:1542,0
DA:1722,0
DA:1723,0
DA:1737,0
DA:1738,0
end_of_record
SF:/usr/local/include/google/protobuf/descriptor.h
DA:2410,0
DA:2411,0
end_of_record
SF:/usr/local/include/google/protobuf/map_type_handler.h
FN:340,_ZN6google8protobuf8internal14MapTypeHandlerILNS1_14WireFormatLite9FieldTypeE9ENSt7__cxx1112basic_stringIcSt11char_traitsIcESaIcEEEE5WriteEiRKSA_PhPNS0_2io19EpsCopyOutputStreamE
FNDA:0,_ZN6google8protobuf8internal14MapTypeHandlerILNS1_14WireFormatLite9FieldTypeE9ENSt7__cxx1112basic_stringIcSt11char_traitsIcESaIcEEEE5WriteEiRKSA_PhPNS0_2io19EpsCopyOutputStreamE
FN:396,_ZN6google8protobuf8internal14MapTypeHandlerILNS1_14WireFormatLite9FieldTypeE9ENSt7__cxx1112basic_stringIcSt11char_traitsIcESaIcEEEE4ReadEPKcPNS1_12ParseContextEPSA_
FNDA:0,_ZN6google8protobuf8internal14MapTypeHandlerILNS1_14WireFormatLite9FieldTypeE9ENSt7__cxx1112basic_stringIcSt11char_traitsIcESaIcEEEE4ReadEPKcPNS1_12ParseContextEPSA_
FN:704,_ZN6google8protobuf8internal13MapEntryFuncsINSt7__cxx1112basic_stringIcSt11char_traitsIcESaIcEEES8_LNS1_14WireFormatLite9FieldTypeE9ELSA_9EE17InternalSerializeEiRKS8_SD_PhPNS0_2io19EpsCopyOutputStreamE
FNDA:0,_ZN6google8protobuf8internal13MapEntryFuncsINSt7__cxx1112basic_stringIcSt11char_traitsIcESaIcEEES8_LNS1_14WireFormatLite9FieldTypeE9ELSA_9EE17InternalSerializeEiRKS8_SD_PhPNS0_2io19EpsCopyOutputStreamE
FN:717,_ZN6google8protobuf8internal13MapEntryFuncsINSt7__cxx1112basic_stringIcSt11char_traitsIcESaIcEEES8_LNS1_14WireFormatLite9FieldTypeE9ELSA_9EE12ByteSizeLongERKS8_SD_
FNDA:0,_ZN6google8protobuf8internal13MapEntryFuncsINSt7__cxx1112basic_stringIcSt11char_traitsIcESaIcEEES8_LNS1_14WireFormatLite9FieldTypeE9ELSA_9EE12ByteSizeLongERKS8_SD_
FN:725,_ZN6google8protobuf8internal13MapEntryFuncsINSt7__cxx1112basic_stringIcSt11char_traitsIcESaIcEEES8_LNS1_14WireFormatLite9FieldTypeE9ELSA_9EE13GetCachedSizeERKS8_SD_
FNDA:0,_ZN6google8protobuf8internal13MapEntryFuncsINSt7__cxx1112basic_stringIcSt11char_traitsIcESaIcEEES8_LNS1_14WireFormatLite9FieldTypeE9ELSA_9EE13GetCachedSizeERKS8_SD_
DA:247,0
DA:291,0
DA:340,0
DA:396,0
DA:398,0
DA:399,0
DA:400,0
DA:617,0
DA:704,0
DA:707,0
DA:708,0
DA:710,0
DA:713,0
DA:714,0
DA:717,0
DA:719,0
DA:720,0
DA:721,0
DA:722,0
DA:725,0
DA:727,0
DA:728,0
end_of_record
SF:/usr/include/c++/11/bits/stl_algobase.h
FN:731,_ZNSt20__copy_move_backwardILb1ELb1ESt26random_access_iterator_tagE13__copy_move_bIPKN6google8protobuf7MapPairINSt7__cxx1112basic_stringIcSt11char_traitsIcESaIcEEESB_EEEEPT_PKSF_SI_SG_
FNDA:0,_ZNSt20__copy_move_backwardILb1ELb1ESt26random_access_iterator_tagE13__copy_move_bIPKN6google8protobuf7MapPairINSt7__cxx1112basic_stringIcSt11char_traitsIcESaIcEEESB_EEEEPT_PKSF_SI_SG_
DA:152,0
DA:182,0
DA:184,0
DA:230,0
DA:235,0
DA:236,0
DA:254,0
DA:259,0
DA:260,0
DA:731,0
DA:740,0
DA:741,0
DA:742,0
DA:743,0
DA:750,0
DA:760,0
DA:768,0
DA:769,0
DA:796,0
DA:798,0
DA:884,0
DA:894,0
DA:1514,0
DA:1515,0
end_of_record
SF:/usr/local/include/google/protobuf/map_field_inl.h
FN:100,_ZN6google8protobuf8internal9SetMapKeyINSt7__cxx1112basic_stringIcSt11char_traitsIcESaIcEEEEEvPNS0_6MapKeyERKT_
FNDA:0,_ZN6google8protobuf8internal9SetMapKeyINSt7__cxx1112basic_stringIcSt11char_traitsIcESaIcEEEEEvPNS0_6MapKeyERKT_
FN:114,_ZNK6google8protobuf8internal23TypeDefinedMapFieldBaseINSt7__cxx1112basic_stringIcSt11char_traitsIcESaIcEEES8_E8MapBeginEPNS0_11MapIteratorE
FNDA:0,_ZNK6google8protobuf8internal23TypeDefinedMapFieldBaseINSt7__cxx1112basic_stringIcSt11char_traitsIcESaIcEEES8_E8MapBeginEPNS0_11MapIteratorE
FN:120,_ZNK6google8protobuf8internal23TypeDefinedMapFieldBaseINSt7__cxx1112basic_stringIcSt11char_traitsIcESaIcEEES8_E6MapEndEPNS0_11MapIteratorE
FNDA:0,_ZNK6google8protobuf8internal23TypeDefinedMapFieldBaseINSt7__cxx1112basic_stringIcSt11char_traitsIcESaIcEEES8_E6MapEndEPNS0_11MapIteratorE
FN:125,_ZNK6google8protobuf8internal23TypeDefinedMapFieldBaseINSt7__cxx1112basic_stringIcSt11char_traitsIcESaIcEEES8_E13EqualIteratorERKNS0_11MapIteratorESC_
FNDA:0,_ZNK6google8protobuf8internal23TypeDefinedMapFieldBaseINSt7__cxx1112basic_stringIcSt11char_traitsIcESaIcEEES8_E13EqualIteratorERKNS0_11MapIteratorESC_
FN:131,_ZNK6google8protobuf8internal23TypeDefinedMapFieldBaseINSt7__cxx1112basic_stringIcSt11char_traitsIcESaIcEEES8_E16IncreaseIteratorEPNS0_11MapIteratorE
FNDA:0,_ZNK6google8protobuf8internal23TypeDefinedMapFieldBaseINSt7__cxx1112basic_stringIcSt11char_traitsIcESaIcEEES8_E16IncreaseIteratorEPNS0_11MapIteratorE
FN:138,_ZNK6google8protobuf8internal23TypeDefinedMapFieldBaseINSt7__cxx1112basic_stringIcSt11char_traitsIcESaIcEEES8_E18InitializeIteratorEPNS0_11MapIteratorE
FNDA:0,_ZNK6google8protobuf8internal23TypeDefinedMapFieldBaseINSt7__cxx1112basic_stringIcSt11char_traitsIcESaIcEEES8_E18InitializeIteratorEPNS0_11MapIteratorE
FN:145,_ZNK6google8protobuf8internal23TypeDefinedMapFieldBaseINSt7__cxx1112basic_stringIcSt11char_traitsIcESaIcEEES8_E14DeleteIteratorEPNS0_11MapIteratorE
FNDA:0,_ZNK6google8protobuf8internal23TypeDefinedMapFieldBaseINSt7__cxx1112basic_stringIcSt11char_traitsIcESaIcEEES8_E14DeleteIteratorEPNS0_11MapIteratorE
FN:152,_ZNK6google8protobuf8internal23TypeDefinedMapFieldBaseINSt7__cxx1112basic_stringIcSt11char_traitsIcESaIcEEES8_E12CopyIteratorEPNS0_11MapIteratorERKSA_
FNDA:0,_ZNK6google8protobuf8internal23TypeDefinedMapFieldBaseINSt7__cxx1112basic_stringIcSt11char_traitsIcESaIcEEES8_E12CopyIteratorEPNS0_11MapIteratorERKSA_
FN:168,_ZNK6google8protobuf8internal8MapFieldIN7hare_mq41declareExchangeRequest_ArgsEntry_DoNotUseENSt7__cxx1112basic_stringIcSt11char_traitsIcESaIcEEESA_LNS1_14WireFormatLite9FieldTypeE9ELSC_9EE4sizeEv
FNDA:0,_ZNK6google8protobuf8internal8MapFieldIN7hare_mq41declareExchangeRequest_ArgsEntry_DoNotUseENSt7__cxx1112basic_stringIcSt11char_traitsIcESaIcEEESA_LNS1_14WireFormatLite9FieldTypeE9ELSC_9EE4sizeEv
FN:168,_ZNK6google8protobuf8internal8MapFieldIN7hare_mq38declareQueueRequest_ArgsEntry_DoNotUseENSt7__cxx1112basic_stringIcSt11char_traitsIcESaIcEEESA_LNS1_14WireFormatLite9FieldTypeE9ELSC_9EE4sizeEv
FNDA:0,_ZNK6google8protobuf8internal8MapFieldIN7hare_mq38declareQueueRequest_ArgsEntry_DoNotUseENSt7__cxx1112basic_stringIcSt11char_traitsIcESaIcEEESA_LNS1_14WireFormatLite9FieldTypeE9ELSC_9EE4sizeEv
FN:176,_ZN6google8protobuf8internal8MapFieldIN7hare_mq41declareExchangeRequest_ArgsEntry_DoNotUseENSt7__cxx1112basic_stringIcSt11char_traitsIcESaIcEEESA_LNS1_14WireFormatLite9FieldTypeE9ELSC_9EE5ClearEv
FNDA:0,_ZN6google8protobuf8internal8MapFieldIN7hare_mq41declareExchangeRequest_ArgsEntry_DoNotUseENSt7__cxx1112basic_stringIcSt11char_traitsIcESaIcEEESA_LNS1_14WireFormatLite9FieldTypeE9ELSC_9EE5ClearEv
FN:176,_ZN6google8protobuf8internal8MapFieldIN7hare_mq38declareQueueRequest_ArgsEntry_DoNotUseENSt7__cxx1112basic_stringIcSt11char_traitsIcESaIcEEESA_LNS1_14WireFormatLite9FieldTypeE9ELSC_9EE5ClearEv
FNDA:0,_ZN6google8protobuf8internal8MapFieldIN7hare_mq38declareQueueRequest_ArgsEntry_DoNotUseENSt7__cxx1112basic_stringIcSt11char_traitsIcESaIcEEESA_LNS1_14WireFormatLite9FieldTypeE9ELSC_9EE5ClearEv
FN:194,_ZNK6google8protobuf8internal8MapFieldIN7hare_mq38declareQueueRequest_ArgsEntry_DoNotUseENSt7__cxx1112basic_stringIcSt11char_traitsIcESaIcEEESA_LNS1_14WireFormatLite9FieldTypeE9ELSC_9EE19SetMapIteratorValueEPNS0_11MapIteratorE
FNDA:0,_ZNK6google8protobuf8internal8MapFieldIN7hare_mq38declareQueueRequest_ArgsEntry_DoNotUseENSt7__cxx1112basic_stringIcSt11char_traitsIcESaIcEEESA_LNS1_14WireFormatLite9FieldTypeE9ELSC_9EE19SetMapIteratorValueEPNS0_11MapIteratorE
FN:194,_ZNK6google8protobuf8internal8MapFieldIN7hare_mq41declareExchangeRequest_ArgsEntry_DoNotUseENSt7__cxx1112basic_stringIcSt11char_traitsIcESaIcEEESA_LNS1_14WireFormatLite9FieldTypeE9ELSC_9EE19SetMapIteratorValueEPNS0_11MapIteratorE
FNDA:0,_ZNK6google8protobuf8internal8MapFieldIN7hare_mq41declareExchangeRequest_ArgsEntry_DoNotUseENSt7__cxx1112basic_stringIcSt11char_traitsIcESaIcEEESA_LNS1_14WireFormatLite9FieldTypeE9ELSC_9EE19SetMapIteratorValueEPNS0_11MapIteratorE
FN:208,_ZNK6google8protobuf8internal8MapFieldIN7hare_mq38declareQueueRequest_ArgsEntry_DoNotUseENSt7__cxx1112basic_stringIcSt11char_traitsIcESaIcEEESA_LNS1_14WireFormatLite9FieldTypeE9ELSC_9EE14ContainsMapKeyERKNS0_6MapKeyE
FNDA:0,_ZNK6google8protobuf8internal8MapFieldIN7hare_mq38declareQueueRequest_ArgsEntry_DoNotUseENSt7__cxx1112basic_stringIcSt11char_traitsIcESaIcEEESA_LNS1_14WireFormatLite9FieldTypeE9ELSC_9EE14ContainsMapKeyERKNS0_6MapKeyE
FN:208,_ZNK6google8protobuf8internal8MapFieldIN7hare_mq41declareExchangeRequest_ArgsEntry_DoNotUseENSt7__cxx1112basic_stringIcSt11char_traitsIcESaIcEEESA_LNS1_14WireFormatLite9FieldTypeE9ELSC_9EE14ContainsMapKeyERKNS0_6MapKeyE
FNDA:0,_ZNK6google8protobuf8internal8MapFieldIN7hare_mq41declareExchangeRequest_ArgsEntry_DoNotUseENSt7__cxx1112basic_stringIcSt11char_traitsIcESaIcEEESA_LNS1_14WireFormatLite9FieldTypeE9ELSC_9EE14ContainsMapKeyERKNS0_6MapKeyE
FN:219,_ZN6google8protobuf8internal8MapFieldIN7hare_mq41declareExchangeRequest_ArgsEntry_DoNotUseENSt7__cxx1112basic_stringIcSt11char_traitsIcESaIcEEESA_LNS1_14WireFormatLite9FieldTypeE9ELSC_9EE22InsertOrLookupMapValueERKNS0_6MapKeyEPNS0_11MapValueRefE
FNDA:0,_ZN6google8protobuf8internal8MapFieldIN7hare_mq41declareExchangeRequest_ArgsEntry_DoNotUseENSt7__cxx1112basic_stringIcSt11char_traitsIcESaIcEEESA_LNS1_14WireFormatLite9FieldTypeE9ELSC_9EE22InsertOrLookupMapValueERKNS0_6MapKeyEPNS0_11MapValueRefE
FN:219,_ZN6google8protobuf8internal8MapFieldIN7hare_mq38declareQueueRequest_ArgsEntry_DoNotUseENSt7__cxx1112basic_stringIcSt11char_traitsIcESaIcEEESA_LNS1_14WireFormatLite9FieldTypeE9ELSC_9EE22InsertOrLookupMapValueERKNS0_6MapKeyEPNS0_11MapValueRefE
FNDA:0,_ZN6google8protobuf8internal8MapFieldIN7hare_mq38declareQueueRequest_ArgsEntry_DoNotUseENSt7__cxx1112basic_stringIcSt11char_traitsIcESaIcEEESA_LNS1_14WireFormatLite9FieldTypeE9ELSC_9EE22InsertOrLookupMapValueERKNS0_6MapKeyEPNS0_11MapValueRefE
FN:240,_ZNK6google8protobuf8internal8MapFieldIN7hare_mq38declareQueueRequest_ArgsEntry_DoNotUseENSt7__cxx1112basic_stringIcSt11char_traitsIcESaIcEEESA_LNS1_14WireFormatLite9FieldTypeE9ELSC_9EE14LookupMapValueERKNS0_6MapKeyEPNS0_16MapValueConstRefE
FNDA:0,_ZNK6google8protobuf8internal8MapFieldIN7hare_mq38declareQueueRequest_ArgsEntry_DoNotUseENSt7__cxx1112basic_stringIcSt11char_traitsIcESaIcEEESA_LNS1_14WireFormatLite9FieldTypeE9ELSC_9EE14LookupMapValueERKNS0_6MapKeyEPNS0_16MapValueConstRefE
FN:240,_ZNK6google8protobuf8internal8MapFieldIN7hare_mq41declareExchangeRequest_ArgsEntry_DoNotUseENSt7__cxx1112basic_stringIcSt11char_traitsIcESaIcEEESA_LNS1_14WireFormatLite9FieldTypeE9ELSC_9EE14LookupMapValueERKNS0_6MapKeyEPNS0_16MapValueConstRefE
FNDA:0,_ZNK6google8protobuf8internal8MapFieldIN7hare_mq41declareExchangeRequest_ArgsEntry_DoNotUseENSt7__cxx1112basic_stringIcSt11char_traitsIcESaIcEEESA_LNS1_14WireFormatLite9FieldTypeE9ELSC_9EE14LookupMapValueERKNS0_6MapKeyEPNS0_16MapValueConstRefE
FN:257,_ZN6google8protobuf8internal8MapFieldIN7hare_mq38declareQueueRequest_ArgsEntry_DoNotUseENSt7__cxx1112basic_stringIcSt11char_traitsIcESaIcEEESA_LNS1_14WireFormatLite9FieldTypeE9ELSC_9EE14DeleteMapValueERKNS0_6MapKeyE
FNDA:0,_ZN6google8protobuf8internal8MapFieldIN7hare_mq38declareQueueRequest_ArgsEntry_DoNotUseENSt7__cxx1112basic_stringIcSt11char_traitsIcESaIcEEESA_LNS1_14WireFormatLite9FieldTypeE9ELSC_9EE14DeleteMapValueERKNS0_6MapKeyE
FN:257,_ZN6google8protobuf8internal8MapFieldIN7hare_mq41declareExchangeRequest_ArgsEntry_DoNotUseENSt7__cxx1112basic_stringIcSt11char_traitsIcESaIcEEESA_LNS1_14WireFormatLite9FieldTypeE9ELSC_9EE14DeleteMapValueERKNS0_6MapKeyE
FNDA:0,_ZN6google8protobuf8internal8MapFieldIN7hare_mq41declareExchangeRequest_ArgsEntry_DoNotUseENSt7__cxx1112basic_stringIcSt11char_traitsIcESaIcEEESA_LNS1_14WireFormatLite9FieldTypeE9ELSC_9EE14DeleteMapValueERKNS0_6MapKeyE
FN:266,_ZN6google8protobuf8internal8MapFieldIN7hare_mq38declareQueueRequest_ArgsEntry_DoNotUseENSt7__cxx1112basic_stringIcSt11char_traitsIcESaIcEEESA_LNS1_14WireFormatLite9FieldTypeE9ELSC_9EE9MergeFromERKNS1_12MapFieldBaseE
FNDA:0,_ZN6google8protobuf8internal8MapFieldIN7hare_mq38declareQueueRequest_ArgsEntry_DoNotUseENSt7__cxx1112basic_stringIcSt11char_traitsIcESaIcEEESA_LNS1_14WireFormatLite9FieldTypeE9ELSC_9EE9MergeFromERKNS1_12MapFieldBaseE
FN:266,_ZN6google8protobuf8internal8MapFieldIN7hare_mq41declareExchangeRequest_ArgsEntry_DoNotUseENSt7__cxx1112basic_stringIcSt11char_traitsIcESaIcEEESA_LNS1_14WireFormatLite9FieldTypeE9ELSC_9EE9MergeFromERKNS1_12MapFieldBaseE
FNDA:0,_ZN6google8protobuf8internal8MapFieldIN7hare_mq41declareExchangeRequest_ArgsEntry_DoNotUseENSt7__cxx1112basic_stringIcSt11char_traitsIcESaIcEEESA_LNS1_14WireFormatLite9FieldTypeE9ELSC_9EE9MergeFromERKNS1_12MapFieldBaseE
FN:278,_ZN6google8protobuf8internal8MapFieldIN7hare_mq38declareQueueRequest_ArgsEntry_DoNotUseENSt7__cxx1112basic_stringIcSt11char_traitsIcESaIcEEESA_LNS1_14WireFormatLite9FieldTypeE9ELSC_9EE4SwapEPNS1_12MapFieldBaseE
FNDA:0,_ZN6google8protobuf8internal8MapFieldIN7hare_mq38declareQueueRequest_ArgsEntry_DoNotUseENSt7__cxx1112basic_stringIcSt11char_traitsIcESaIcEEESA_LNS1_14WireFormatLite9FieldTypeE9ELSC_9EE4SwapEPNS1_12MapFieldBaseE
FN:278,_ZN6google8protobuf8internal8MapFieldIN7hare_mq41declareExchangeRequest_ArgsEntry_DoNotUseENSt7__cxx1112basic_stringIcSt11char_traitsIcESaIcEEESA_LNS1_14WireFormatLite9FieldTypeE9ELSC_9EE4SwapEPNS1_12MapFieldBaseE
FNDA:0,_ZN6google8protobuf8internal8MapFieldIN7hare_mq41declareExchangeRequest_ArgsEntry_DoNotUseENSt7__cxx1112basic_stringIcSt11char_traitsIcESaIcEEESA_LNS1_14WireFormatLite9FieldTypeE9ELSC_9EE4SwapEPNS1_12MapFieldBaseE
FN:288,_ZN6google8protobuf8internal8MapFieldIN7hare_mq38declareQueueRequest_ArgsEntry_DoNotUseENSt7__cxx1112basic_stringIcSt11char_traitsIcESaIcEEESA_LNS1_14WireFormatLite9FieldTypeE9ELSC_9EE17UnsafeShallowSwapEPNS1_12MapFieldBaseE
FNDA:0,_ZN6google8protobuf8internal8MapFieldIN7hare_mq38declareQueueRequest_ArgsEntry_DoNotUseENSt7__cxx1112basic_stringIcSt11char_traitsIcESaIcEEESA_LNS1_14WireFormatLite9FieldTypeE9ELSC_9EE17UnsafeShallowSwapEPNS1_12MapFieldBaseE
FN:288,_ZN6google8protobuf8internal8MapFieldIN7hare_mq41declareExchangeRequest_ArgsEntry_DoNotUseENSt7__cxx1112basic_stringIcSt11char_traitsIcESaIcEEESA_LNS1_14WireFormatLite9FieldTypeE9ELSC_9EE17UnsafeShallowSwapEPNS1_12MapFieldBaseE
FNDA:0,_ZN6google8protobuf8internal8MapFieldIN7hare_mq41declareExchangeRequest_ArgsEntry_DoNotUseENSt7__cxx1112basic_stringIcSt11char_traitsIcESaIcEEESA_LNS1_14WireFormatLite9FieldTypeE9ELSC_9EE17UnsafeShallowSwapEPNS1_12MapFieldBaseE
FN:296,_ZN6google8protobuf8internal8MapFieldIN7hare_mq38declareQueueRequest_ArgsEntry_DoNotUseENSt7__cxx1112basic_stringIcSt11char_traitsIcESaIcEEESA_LNS1_14WireFormatLite9FieldTypeE9ELSC_9EE12InternalSwapEPSD_
FNDA:0,_ZN6google8protobuf8internal8MapFieldIN7hare_mq38declareQueueRequest_ArgsEntry_DoNotUseENSt7__cxx1112basic_stringIcSt11char_traitsIcESaIcEEESA_LNS1_14WireFormatLite9FieldTypeE9ELSC_9EE12InternalSwapEPSD_
FN:296,_ZN6google8protobuf8internal8MapFieldIN7hare_mq41declareExchangeRequest_ArgsEntry_DoNotUseENSt7__cxx1112basic_stringIcSt11char_traitsIcESaIcEEESA_LNS1_14WireFormatLite9FieldTypeE9ELSC_9EE12InternalSwapEPSD_
FNDA:0,_ZN6google8protobuf8internal8MapFieldIN7hare_mq41declareExchangeRequest_ArgsEntry_DoNotUseENSt7__cxx1112basic_stringIcSt11char_traitsIcESaIcEEESA_LNS1_14WireFormatLite9FieldTypeE9ELSC_9EE12InternalSwapEPSD_
FN:305,_ZNK6google8protobuf8internal8MapFieldIN7hare_mq38declareQueueRequest_ArgsEntry_DoNotUseENSt7__cxx1112basic_stringIcSt11char_traitsIcESaIcEEESA_LNS1_14WireFormatLite9FieldTypeE9ELSC_9EE30SyncRepeatedFieldWithMapNoLockEv
FNDA:0,_ZNK6google8protobuf8internal8MapFieldIN7hare_mq38declareQueueRequest_ArgsEntry_DoNotUseENSt7__cxx1112basic_stringIcSt11char_traitsIcESaIcEEESA_LNS1_14WireFormatLite9FieldTypeE9ELSC_9EE30SyncRepeatedFieldWithMapNoLockEv
FN:305,_ZNK6google8protobuf8internal8MapFieldIN7hare_mq41declareExchangeRequest_ArgsEntry_DoNotUseENSt7__cxx1112basic_stringIcSt11char_traitsIcESaIcEEESA_LNS1_14WireFormatLite9FieldTypeE9ELSC_9EE30SyncRepeatedFieldWithMapNoLockEv
FNDA:0,_ZNK6google8protobuf8internal8MapFieldIN7hare_mq41declareExchangeRequest_ArgsEntry_DoNotUseENSt7__cxx1112basic_stringIcSt11char_traitsIcESaIcEEESA_LNS1_14WireFormatLite9FieldTypeE9ELSC_9EE30SyncRepeatedFieldWithMapNoLockEv
FN:338,_ZNK6google8protobuf8internal8MapFieldIN7hare_mq38declareQueueRequest_ArgsEntry_DoNotUseENSt7__cxx1112basic_stringIcSt11char_traitsIcESaIcEEESA_LNS1_14WireFormatLite9FieldTypeE9ELSC_9EE30SyncMapWithRepeatedFieldNoLockEv
FNDA:0,_ZNK6google8protobuf8internal8MapFieldIN7hare_mq38declareQueueRequest_ArgsEntry_DoNotUseENSt7__cxx1112basic_stringIcSt11char_traitsIcESaIcEEESA_LNS1_14WireFormatLite9FieldTypeE9ELSC_9EE30SyncMapWithRepeatedFieldNoLockEv
FN:338,_ZNK6google8protobuf8internal8MapFieldIN7hare_mq41declareExchangeRequest_ArgsEntry_DoNotUseENSt7__cxx1112basic_stringIcSt11char_traitsIcESaIcEEESA_LNS1_14WireFormatLite9FieldTypeE9ELSC_9EE30SyncMapWithRepeatedFieldNoLockEv
FNDA:0,_ZNK6google8protobuf8internal8MapFieldIN7hare_mq41declareExchangeRequest_ArgsEntry_DoNotUseENSt7__cxx1112basic_stringIcSt11char_traitsIcESaIcEEESA_LNS1_14WireFormatLite9FieldTypeE9ELSC_9EE30SyncMapWithRepeatedFieldNoLockEv
FN:361,_ZNK6google8protobuf8internal8MapFieldIN7hare_mq38declareQueueRequest_ArgsEntry_DoNotUseENSt7__cxx1112basic_stringIcSt11char_traitsIcESaIcEEESA_LNS1_14WireFormatLite9FieldTypeE9ELSC_9EE28SpaceUsedExcludingSelfNoLockEv
FNDA:0,_ZNK6google8protobuf8internal8MapFieldIN7hare_mq38declareQueueRequest_ArgsEntry_DoNotUseENSt7__cxx1112basic_stringIcSt11char_traitsIcESaIcEEESA_LNS1_14WireFormatLite9FieldTypeE9ELSC_9EE28SpaceUsedExcludingSelfNoLockEv
FN:361,_ZNK6google8protobuf8internal8MapFieldIN7hare_mq41declareExchangeRequest_ArgsEntry_DoNotUseENSt7__cxx1112basic_stringIcSt11char_traitsIcESaIcEEESA_LNS1_14WireFormatLite9FieldTypeE9ELSC_9EE28SpaceUsedExcludingSelfNoLockEv
FNDA:0,_ZNK6google8protobuf8internal8MapFieldIN7hare_mq41declareExchangeRequest_ArgsEntry_DoNotUseENSt7__cxx1112basic_stringIcSt11char_traitsIcESaIcEEESA_LNS1_14WireFormatLite9FieldTypeE9ELSC_9EE28SpaceUsedExcludingSelfNoLockEv
DA:72,0
DA:73,0
DA:100,0
DA:101,0
DA:102,0
DA:107,0
DA:110,0
DA:114,0
DA:115,0
DA:116,0
DA:117,0
DA:120,0
DA:121,0
DA:122,0
DA:125,0
DA:127,0
DA:131,0
DA:133,0
DA:134,0
DA:135,0
DA:138,0
DA:140,0
DA:142,0
DA:145,0
DA:147,0
DA:148,0
DA:149,0
DA:152,0
DA:154,0
DA:155,0
DA:158,0
DA:159,0
DA:160,0
DA:161,0
DA:168,0
DA:169,0
DA:170,0
DA:168,0
DA:169,0
DA:170,0
DA:168,0
DA:169,0
DA:170,0
DA:176,0
DA:177,0
DA:178,0
DA:181,0
DA:184,0
DA:188,0
DA:189,0
DA:176,0
DA:177,0
DA:178,0
DA:181,0
DA:184,0
DA:188,0
DA:189,0
DA:194,0
DA:197,0
DA:198,0
DA:199,0
DA:200,0
DA:201,0
DA:202,0
DA:194,0
DA:197,0
DA:198,0
DA:199,0
DA:200,0
DA:201,0
DA:202,0
DA:208,0
DA:210,0
DA:211,0
DA:212,0
DA:213,0
DA:214,0
DA:208,0
DA:210,0
DA:211,0
DA:212,0
DA:213,0
DA:214,0
DA:219,0
DA:224,0
DA:225,0
DA:226,0
DA:227,0
DA:228,0
DA:229,0
DA:233,0
DA:234,0
DA:235,0
DA:219,0
DA:224,0
DA:225,0
DA:226,0
DA:227,0
DA:228,0
DA:229,0
DA:233,0
DA:234,0
DA:235,0
DA:240,0
DA:242,0
DA:243,0
DA:244,0
DA:245,0
DA:250,0
DA:251,0
DA:252,0
DA:240,0
DA:242,0
DA:243,0
DA:244,0
DA:245,0
DA:250,0
DA:251,0
DA:252,0
DA:257,0
DA:259,0
DA:260,0
DA:261,0
DA:257,0
DA:259,0
DA:260,0
DA:261,0
DA:266,0
DA:268,0
DA:269,0
DA:270,0
DA:271,0
DA:272,0
DA:273,0
DA:266,0
DA:268,0
DA:269,0
DA:270,0
DA:271,0
DA:272,0
DA:273,0
DA:278,0
DA:280,0
DA:281,0
DA:282,0
DA:283,0
DA:278,0
DA:280,0
DA:281,0
DA:282,0
DA:283,0
DA:288,0
DA:290,0
DA:291,0
DA:288,0
DA:290,0
DA:291,0
DA:296,0
DA:298,0
DA:299,0
DA:300,0
DA:296,0
DA:298,0
DA:299,0
DA:300,0
DA:305,0
DA:307,0
DA:308,0
DA:309,0
DA:310,0
DA:312,0
DA:313,0
DA:317,0
DA:324,0
DA:325,0
DA:326,0
DA:328,0
DA:329,0
DA:330,0
DA:331,0
DA:333,0
DA:305,0
DA:307,0
DA:308,0
DA:309,0
DA:310,0
DA:312,0
DA:313,0
DA:317,0
DA:324,0
DA:325,0
DA:326,0
DA:328,0
DA:329,0
DA:330,0
DA:331,0
DA:333,0
DA:338,0
DA:340,0
DA:341,0
DA:344,0
DA:345,0
DA:346,0
DA:347,0
DA:348,0
DA:354,0
DA:356,0
DA:338,0
DA:340,0
DA:341,0
DA:344,0
DA:345,0
DA:346,0
DA:347,0
DA:348,0
DA:354,0
DA:356,0
DA:361,0
DA:363,0
DA:364,0
DA:365,0
DA:367,0
DA:369,0
DA:361,0
DA:363,0
DA:364,0
DA:365,0
DA:367,0
DA:369,0
end_of_record
SF:/usr/local/include/google/protobuf/arena_impl.h
DA:58,0
DA:60,0
end_of_record
SF:/usr/include/c++/11/bits/stl_iterator.h
DA:1027,0
DA:1028,0
end_of_record
SF:/usr/local/include/google/protobuf/map_field_lite.h
FN:79,_ZN6google8protobuf8internal12MapFieldLiteIN7hare_mq38declareQueueRequest_ArgsEntry_DoNotUseENSt7__cxx1112basic_stringIcSt11char_traitsIcESaIcEEESA_LNS1_14WireFormatLite9FieldTypeE9ELSC_9EE8DestructEv
FNDA:0,_ZN6google8protobuf8internal12MapFieldLiteIN7hare_mq38declareQueueRequest_ArgsEntry_DoNotUseENSt7__cxx1112basic_stringIcSt11char_traitsIcESaIcEEESA_LNS1_14WireFormatLite9FieldTypeE9ELSC_9EE8DestructEv
FN:79,_ZN6google8protobuf8internal12MapFieldLiteIN7hare_mq41declareExchangeRequest_ArgsEntry_DoNotUseENSt7__cxx1112basic_stringIcSt11char_traitsIcESaIcEEESA_LNS1_14WireFormatLite9FieldTypeE9ELSC_9EE8DestructEv
FNDA:0,_ZN6google8protobuf8internal12MapFieldLiteIN7hare_mq41declareExchangeRequest_ArgsEntry_DoNotUseENSt7__cxx1112basic_stringIcSt11char_traitsIcESaIcEEESA_LNS1_14WireFormatLite9FieldTypeE9ELSC_9EE8DestructEv
FN:88,_ZN6google8protobuf8internal12MapFieldLiteIN7hare_mq38declareQueueRequest_ArgsEntry_DoNotUseENSt7__cxx1112basic_stringIcSt11char_traitsIcESaIcEEESA_LNS1_14WireFormatLite9FieldTypeE9ELSC_9EED2Ev
FNDA:0,_ZN6google8protobuf8internal12MapFieldLiteIN7hare_mq38declareQueueRequest_ArgsEntry_DoNotUseENSt7__cxx1112basic_stringIcSt11char_traitsIcESaIcEEESA_LNS1_14WireFormatLite9FieldTypeE9ELSC_9EED2Ev
FN:88,_ZN6google8protobuf8internal12MapFieldLiteIN7hare_mq41declareExchangeRequest_ArgsEntry_DoNotUseENSt7__cxx1112basic_stringIcSt11char_traitsIcESaIcEEESA_LNS1_14WireFormatLite9FieldTypeE9ELSC_9EED2Ev
FNDA:0,_ZN6google8protobuf8internal12MapFieldLiteIN7hare_mq41declareExchangeRequest_ArgsEntry_DoNotUseENSt7__cxx1112basic_stringIcSt11char_traitsIcESaIcEEESA_LNS1_14WireFormatLite9FieldTypeE9ELSC_9EED2Ev
FN:101,_ZN6google8protobuf8internal12MapFieldLiteIN7hare_mq38declareQueueRequest_ArgsEntry_DoNotUseENSt7__cxx1112basic_stringIcSt11char_traitsIcESaIcEEESA_LNS1_14WireFormatLite9FieldTypeE9ELSC_9EE9MergeFromERKSD_
FNDA:0,_ZN6google8protobuf8internal12MapFieldLiteIN7hare_mq38declareQueueRequest_ArgsEntry_DoNotUseENSt7__cxx1112basic_stringIcSt11char_traitsIcESaIcEEESA_LNS1_14WireFormatLite9FieldTypeE9ELSC_9EE9MergeFromERKSD_
FN:101,_ZN6google8protobuf8internal12MapFieldLiteIN7hare_mq41declareExchangeRequest_ArgsEntry_DoNotUseENSt7__cxx1112basic_stringIcSt11char_traitsIcESaIcEEESA_LNS1_14WireFormatLite9FieldTypeE9ELSC_9EE9MergeFromERKSD_
FNDA:0,_ZN6google8protobuf8internal12MapFieldLiteIN7hare_mq41declareExchangeRequest_ArgsEntry_DoNotUseENSt7__cxx1112basic_stringIcSt11char_traitsIcESaIcEEESA_LNS1_14WireFormatLite9FieldTypeE9ELSC_9EE9MergeFromERKSD_
FN:116,_ZN6google8protobuf8internal12MapFieldLiteIN7hare_mq38declareQueueRequest_ArgsEntry_DoNotUseENSt7__cxx1112basic_stringIcSt11char_traitsIcESaIcEEESA_LNS1_14WireFormatLite9FieldTypeE9ELSC_9EE14_InternalParseEPKcPNS1_12ParseContextE
FNDA:0,_ZN6google8protobuf8internal12MapFieldLiteIN7hare_mq38declareQueueRequest_ArgsEntry_DoNotUseENSt7__cxx1112basic_stringIcSt11char_traitsIcESaIcEEESA_LNS1_14WireFormatLite9FieldTypeE9ELSC_9EE14_InternalParseEPKcPNS1_12ParseContextE
FN:116,_ZN6google8protobuf8internal12MapFieldLiteIN7hare_mq41declareExchangeRequest_ArgsEntry_DoNotUseENSt7__cxx1112basic_stringIcSt11char_traitsIcESaIcEEESA_LNS1_14WireFormatLite9FieldTypeE9ELSC_9EE14_InternalParseEPKcPNS1_12ParseContextE
FNDA:0,_ZN6google8protobuf8internal12MapFieldLiteIN7hare_mq41declareExchangeRequest_ArgsEntry_DoNotUseENSt7__cxx1112basic_stringIcSt11char_traitsIcESaIcEEESA_LNS1_14WireFormatLite9FieldTypeE9ELSC_9EE14_InternalParseEPKcPNS1_12ParseContextE
FN:197,_ZN6google8protobuf8internal25MapFieldLiteNotDestructedEPv
FNDA:0,_ZN6google8protobuf8internal25MapFieldLiteNotDestructedEPv
DA:71,0
DA:72,0
DA:79,0
DA:85,0
DA:86,0
DA:87,0
DA:79,0
DA:85,0
DA:86,0
DA:87,0
DA:88,0
DA:89,0
DA:90,0
DA:92,0
DA:88,0
DA:89,0
DA:90,0
DA:92,0
DA:95,0
DA:96,0
DA:101,0
DA:102,0
DA:103,0
DA:104,0
DA:106,0
DA:101,0
DA:102,0
DA:103,0
DA:104,0
DA:106,0
DA:107,0
DA:108,0
DA:112,0
DA:113,0
DA:116,0
DA:117,0
DA:118,0
DA:119,0
DA:116,0
DA:117,0
DA:118,0
DA:119,0
DA:197,0
DA:198,0
DA:199,0
DA:200,0
end_of_record
SF:/usr/local/include/google/protobuf/repeated_field.h
FN:116,_ZN6google8protobuf8internal9SwapBlockIhEEvPcS3_
FNDA:0,_ZN6google8protobuf8internal9SwapBlockIhEEvPcS3_
FN:116,_ZN6google8protobuf8internal9SwapBlockItEEvPcS3_
FNDA:0,_ZN6google8protobuf8internal9SwapBlockItEEvPcS3_
FN:116,_ZN6google8protobuf8internal9SwapBlockIjEEvPcS3_
FNDA:0,_ZN6google8protobuf8internal9SwapBlockIjEEvPcS3_
FN:140,_ZN6google8protobuf8internal7memswapILi3EEENSt9enable_ifIXaageT_sttltT_Li4EEvE4typeEPcS6_
FNDA:0,_ZN6google8protobuf8internal7memswapILi3EEENSt9enable_ifIXaageT_sttltT_Li4EEvE4typeEPcS6_
FN:141,_ZN6google8protobuf8internal7memswapILi6EEENSt9enable_ifIXaageT_stjltT_Li8EEvE4typeEPcS6_
FNDA:0,_ZN6google8protobuf8internal7memswapILi6EEENSt9enable_ifIXaageT_stjltT_Li8EEvE4typeEPcS6_
DA:116,0
DA:118,0
DA:119,0
DA:120,0
DA:121,0
DA:116,0
DA:118,0
DA:119,0
DA:120,0
DA:121,0
DA:116,0
DA:118,0
DA:119,0
DA:120,0
DA:121,0
DA:139,0
DA:140,0
DA:141,0
end_of_record
SF:/usr/local/include/google/protobuf/arenastring.h
DA:133,0
DA:182,0
DA:183,0
DA:203,0
DA:288,0
DA:290,0
DA:384,0
DA:385,0
DA:426,0
DA:430,0
DA:431,0
DA:432,0
end_of_record
SF:/usr/include/c++/11/bits/basic_string.tcc
FN:132,_ZNSt7__cxx1112basic_stringIcSt11char_traitsIcESaIcEE9_M_createERmm
FNDA:0,_ZNSt7__cxx1112basic_stringIcSt11char_traitsIcESaIcEE9_M_createERmm
FN:206,_ZNSt7__cxx1112basic_stringIcSt11char_traitsIcESaIcEE12_M_constructIPcEEvT_S7_St20forward_iterator_tag
FNDA:0,_ZNSt7__cxx1112basic_stringIcSt11char_traitsIcESaIcEE12_M_constructIPcEEvT_S7_St20forward_iterator_tag
FN:206,_ZNSt7__cxx1112basic_stringIcSt11char_traitsIcESaIcEE12_M_constructIPKcEEvT_S8_St20forward_iterator_tag
FNDA:0,_ZNSt7__cxx1112basic_stringIcSt11char_traitsIcESaIcEE12_M_constructIPKcEEvT_S8_St20forward_iterator_tag
FN:254,_ZNSt7__cxx1112basic_stringIcSt11char_traitsIcESaIcEE9_M_assignERKS4_
FNDA:0,_ZNSt7__cxx1112basic_stringIcSt11char_traitsIcESaIcEE9_M_assignERKS4_
FN:300,_ZNSt7__cxx1112basic_stringIcSt11char_traitsIcESaIcEE9_M_mutateEmmPKcm
FNDA:0,_ZNSt7__cxx1112basic_stringIcSt11char_traitsIcESaIcEE9_M_mutateEmmPKcm
FN:448,_ZNSt7__cxx1112basic_stringIcSt11char_traitsIcESaIcEE10_M_replaceEmmPKcm
FNDA:0,_ZNSt7__cxx1112basic_stringIcSt11char_traitsIcESaIcEE10_M_replaceEmmPKcm
DA:132,0
DA:137,0
DA:138,0
DA:143,0
DA:145,0
DA:147,0
DA:148,0
DA:153,0
DA:206,0
DA:211,0
DA:212,0
DA:215,0
DA:217,0
DA:219,0
DA:220,0
DA:225,0
DA:232,0
DA:233,0
DA:206,0
DA:211,0
DA:212,0
DA:215,0
DA:217,0
DA:219,0
DA:220,0
DA:225,0
DA:232,0
DA:233,0
DA:254,0
DA:257,0
DA:259,0
DA:260,0
DA:262,0
DA:264,0
DA:265,0
DA:266,0
DA:267,0
DA:268,0
DA:271,0
DA:272,0
DA:274,0
DA:276,0
DA:300,0
DA:304,0
DA:306,0
DA:307,0
DA:309,0
DA:310,0
DA:311,0
DA:312,0
DA:313,0
DA:314,0
DA:315,0
DA:317,0
DA:318,0
DA:319,0
DA:320,0
DA:448,0
DA:452,0
DA:454,0
DA:455,0
DA:457,0
DA:459,0
DA:461,0
DA:462,0
DA:464,0
DA:465,0
DA:466,0
DA:467,0
DA:472,0
DA:473,0
DA:474,0
DA:475,0
DA:476,0
DA:478,0
DA:479,0
DA:480,0
DA:484,0
DA:485,0
DA:489,0
DA:490,0
DA:491,0
DA:498,0
DA:500,0
DA:501,0
end_of_record
SF:/usr/include/c++/11/bits/char_traits.h
DA:356,0
DA:357,0
DA:372,0
DA:374,0
DA:377,0
DA:389,0
DA:393,0
DA:396,0
DA:399,0
DA:417,0
DA:419,0
DA:422,0
DA:425,0
DA:429,0
DA:431,0
DA:434,0
DA:437,0
DA:966,0
DA:972,0
end_of_record
SF:/usr/local/include/google/protobuf/message.h
FN:376,_ZNK6google8protobuf7Message12GetClassDataEv
FNDA:0,_ZNK6google8protobuf7Message12GetClassDataEv
DA:237,0
DA:239,0
DA:376,0
DA:384,0
DA:385,0
end_of_record
SF:/usr/include/c++/11/bits/move.h
DA:77,0
DA:104,0
DA:196,0
DA:204,0
DA:205,0
DA:206,0
end_of_record
SF:/usr/include/c++/11/bits/std_mutex.h
DA:65,0
DA:91,0
end_of_record
SF:/usr/include/c++/11/bits/predefined_ops.h
DA:157,0
DA:158,0
DA:195,0
DA:196,0
DA:239,0
DA:240,0
end_of_record
SF:/usr/local/include/google/protobuf/parse_context.h
FN:140,_ZN6google8protobuf8internal18EpsCopyInputStream8PopLimitEi
FNDA:0,_ZN6google8protobuf8internal18EpsCopyInputStream8PopLimitEi
FN:155,_ZN6google8protobuf8internal18EpsCopyInputStream10ReadStringEPKciPNSt7__cxx1112basic_stringIcSt11char_traitsIcESaIcEEE
FNDA:0,_ZN6google8protobuf8internal18EpsCopyInputStream10ReadStringEPKciPNSt7__cxx1112basic_stringIcSt11char_traitsIcESaIcEEE
FN:213,_ZN6google8protobuf8internal18EpsCopyInputStream13DoneWithCheckEPPKci
FNDA:0,_ZN6google8protobuf8internal18EpsCopyInputStream13DoneWithCheckEPPKci
FN:544,_ZN6google8protobuf8internal11VarintParseImEEPKcS4_PT_
FNDA:0,_ZN6google8protobuf8internal11VarintParseImEEPKcS4_PT_
FN:567,_ZN6google8protobuf8internal7ReadTagEPKcPjj
FNDA:0,_ZN6google8protobuf8internal7ReadTagEPKcPjj
FN:635,_ZN6google8protobuf8internal8ReadSizeEPPKc
FNDA:0,_ZN6google8protobuf8internal8ReadSizeEPPKc
FN:678,_ZN6google8protobuf8internal12ParseContext12ParseMessageINS1_8MapFieldIN7hare_mq38declareQueueRequest_ArgsEntry_DoNotUseENSt7__cxx1112basic_stringIcSt11char_traitsIcESaIcEEESC_LNS1_14WireFormatLite9FieldTypeE9ELSE_9EEELb1EEEPKcPT_SH_
FNDA:0,_ZN6google8protobuf8internal12ParseContext12ParseMessageINS1_8MapFieldIN7hare_mq38declareQueueRequest_ArgsEntry_DoNotUseENSt7__cxx1112basic_stringIcSt11char_traitsIcESaIcEEESC_LNS1_14WireFormatLite9FieldTypeE9ELSE_9EEELb1EEEPKcPT_SH_
FN:678,_ZN6google8protobuf8internal12ParseContext12ParseMessageINS1_8MapFieldIN7hare_mq41declareExchangeRequest_ArgsEntry_DoNotUseENSt7__cxx1112basic_stringIcSt11char_traitsIcESaIcEEESC_LNS1_14WireFormatLite9FieldTypeE9ELSE_9EEELb1EEEPKcPT_SH_
FNDA:0,_ZN6google8protobuf8internal12ParseContext12ParseMessageINS1_8MapFieldIN7hare_mq41declareExchangeRequest_ArgsEntry_DoNotUseENSt7__cxx1112basic_stringIcSt11char_traitsIcESaIcEEESC_LNS1_14WireFormatLite9FieldTypeE9ELSE_9EEELb1EEEPKcPT_SH_
FN:802,_ZN6google8protobuf8internal10VerifyUTF8EPKNSt7__cxx1112basic_stringIcSt11char_traitsIcESaIcEEEPKc
FNDA:0,_ZN6google8protobuf8internal10VerifyUTF8EPKNSt7__cxx1112basic_stringIcSt11char_traitsIcESaIcEEEPKc
DA:140,0
DA:141,0
DA:142,0
DA:145,0
DA:146,0
DA:155,0
DA:157,0
DA:158,0
DA:159,0
DA:161,0
DA:193,0
DA:195,0
DA:207,0
DA:213,0
DA:214,0
DA:215,0
DA:216,0
DA:217,0
DA:218,0
DA:219,0
DA:222,0
DA:223,0
DA:225,0
DA:226,0
DA:227,0
DA:398,0
DA:464,0
DA:466,0
DA:537,0
DA:538,0
DA:539,0
DA:540,0
DA:544,0
DA:545,0
DA:546,0
DA:547,0
DA:548,0
DA:549,0
DA:551,0
DA:552,0
DA:553,0
DA:554,0
DA:555,0
DA:557,0
DA:567,0
DA:569,0
DA:570,0
DA:571,0
DA:572,0
DA:574,0
DA:575,0
DA:576,0
DA:577,0
DA:578,0
DA:580,0
DA:581,0
DA:582,0
DA:635,0
DA:636,0
DA:637,0
DA:638,0
DA:639,0
DA:640,0
DA:642,0
DA:643,0
DA:644,0
DA:652,0
DA:653,0
DA:654,0
DA:655,0
DA:678,0
DA:681,0
DA:682,0
DA:683,0
DA:684,0
DA:678,0
DA:681,0
DA:682,0
DA:683,0
DA:684,0
DA:802,0
DA:803,0
end_of_record
SF:/usr/include/c++/11/compare
DA:59,0
DA:264,0
DA:265,0
end_of_record
SF:/usr/include/c++/11/bits/unique_ptr.h
DA:116,0
DA:120,0
DA:121,0
DA:155,0
DA:172,0
DA:173,0
DA:174,0
DA:210,0
DA:547,0
DA:548,0
DA:608,0
DA:610,0
DA:611,0
DA:612,0
DA:614,0
DA:657,0
DA:659,0
DA:660,0
DA:665,0
DA:666,0
DA:670,0
DA:671,0
end_of_record
SF:/usr/include/c++/11/bits/allocator.h
DA:156,0
DA:159,0
DA:160,0
DA:174,0
DA:179,0
DA:185,0
DA:190,0
DA:199,0
end_of_record
SF:/usr/include/c++/11/bits/stl_function.h
DA:447,0
DA:457,0
DA:1170,0
DA:1171,0
DA:1174,0
DA:1175,0
end_of_record
SF:/usr/local/include/google/protobuf/port.h
DA:46,0
DA:48,0
DA:52,0
end_of_record
SF:/usr/include/c++/11/tuple
DA:80,0
DA:124,0
DA:189,0
DA:233,0
DA:268,0
DA:271,0
DA:279,0
DA:280,0
DA:430,0
DA:431,0
DA:1049,0
DA:1051,0
DA:1394,0
DA:1400,0
end_of_record
SF:/usr/local/include/google/protobuf/generated_message_util.h
DA:80,0
DA:81,0
DA:188,0
DA:190,0
DA:191,0
end_of_record
SF:/usr/local/include/google/protobuf/message_lite.h
FN:421,_ZN6google8protobuf11MessageLite25OnDemandRegisterArenaDtorEPNS0_5ArenaE
FNDA:0,_ZN6google8protobuf11MessageLite25OnDemandRegisterArenaDtorEPNS0_5ArenaE
DA:170,0
DA:171,0
DA:421,0
DA:425,0
DA:426,0
DA:429,0
DA:430,0
DA:437,0
DA:441,0
end_of_record
SF:/usr/include/c++/11/string_view
FN:312,_ZNKSt17basic_string_viewIcSt11char_traitsIcEE7compareES2_
FNDA:0,_ZNKSt17basic_string_viewIcSt11char_traitsIcEE7compareES2_
FN:535,_ZSteqIcSt11char_traitsIcEEbSt17basic_string_viewIT_T0_ES5_
FNDA:0,_ZSteqIcSt11char_traitsIcEEbSt17basic_string_viewIT_T0_ES5_
FN:549,_ZStssIcSt11char_traitsIcEEDTcl21__char_traits_cmp_catIT0_ELi0EEESt17basic_string_viewIT_S2_ES6_
FNDA:0,_ZStssIcSt11char_traitsIcEEDTcl21__char_traits_cmp_catIT0_ELi0EEESt17basic_string_viewIT_S2_ES6_
DA:137,0
DA:211,0
DA:212,0
DA:312,0
DA:314,0
DA:315,0
DA:316,0
DA:317,0
DA:318,0
DA:500,0
DA:503,0
DA:504,0
DA:506,0
DA:508,0
DA:535,0
DA:537,0
DA:549,0
DA:552,0
DA:694,0
DA:695,0
end_of_record
SF:/usr/local/include/google/protobuf/arena.h
FN:101,_ZN6google8protobuf8internal21arena_destruct_objectINSt7__cxx1112basic_stringIcSt11char_traitsIcESaIcEEEEEvPv
FNDA:0,_ZN6google8protobuf8internal21arena_destruct_objectINSt7__cxx1112basic_stringIcSt11char_traitsIcESaIcEEEEEvPv
FN:101,_ZN6google8protobuf8internal21arena_destruct_objectINS0_16RepeatedPtrFieldINS0_7MessageEEEEEvPv
FNDA:0,_ZN6google8protobuf8internal21arena_destruct_objectINS0_16RepeatedPtrFieldINS0_7MessageEEEEEvPv
FN:101,_ZN6google8protobuf8internal21arena_destruct_objectINS1_16InternalMetadata9ContainerINS0_15UnknownFieldSetEEEEEvPv
FNDA:0,_ZN6google8protobuf8internal21arena_destruct_objectINS1_16InternalMetadata9ContainerINS0_15UnknownFieldSetEEEEEvPv
FN:101,_ZN6google8protobuf8internal21arena_destruct_objectISt3mapISt17reference_wrapperIKNSt7__cxx1112basic_stringIcSt11char_traitsIcESaIcEEEEPvNS1_18TransparentSupportISA_E4lessENS1_12MapAllocatorISt4pairIKSC_SD_EEEEEEvSD_
FNDA:0,_ZN6google8protobuf8internal21arena_destruct_objectISt3mapISt17reference_wrapperIKNSt7__cxx1112basic_stringIcSt11char_traitsIcESaIcEEEEPvNS1_18TransparentSupportISA_E4lessENS1_12MapAllocatorISt4pairIKSC_SD_EEEEEEvSD_
FN:116,_ZN6google8protobuf8internal19arena_delete_objectINS0_11MessageLiteEEEvPv
FNDA:0,_ZN6google8protobuf8internal19arena_delete_objectINS0_11MessageLiteEEEvPv
FN:313,_ZN6google8protobuf5Arena6CreateINS0_8internal16InternalMetadata9ContainerINS0_15UnknownFieldSetEEEJEEEPT_PS1_DpOT0_
FNDA:0,_ZN6google8protobuf5Arena6CreateINS0_8internal16InternalMetadata9ContainerINS0_15UnknownFieldSetEEEJEEEPT_PS1_DpOT0_
FN:313,_ZN6google8protobuf5Arena6CreateISt3mapISt17reference_wrapperIKNSt7__cxx1112basic_stringIcSt11char_traitsIcESaIcEEEEPvNS0_8internal18TransparentSupportISA_E4lessENSE_12MapAllocatorISt4pairIKSC_SD_EEEEJSH_SM_EEEPT_PS1_DpOT0_
FNDA:0,_ZN6google8protobuf5Arena6CreateISt3mapISt17reference_wrapperIKNSt7__cxx1112basic_stringIcSt11char_traitsIcESaIcEEEEPvNS0_8internal18TransparentSupportISA_E4lessENSE_12MapAllocatorISt4pairIKSC_SD_EEEEJSH_SM_EEEPT_PS1_DpOT0_
FN:339,_ZN6google8protobuf5Arena11CreateArrayIhEEPT_PS1_m
FNDA:0,_ZN6google8protobuf5Arena11CreateArrayIhEEPT_PS1_m
FN:415,_ZN6google8protobuf5Arena14InternalHelperIN7hare_mq41declareExchangeRequest_ArgsEntry_DoNotUseEE14GetOwningArenaEPKS4_
FNDA:0,_ZN6google8protobuf5Arena14InternalHelperIN7hare_mq41declareExchangeRequest_ArgsEntry_DoNotUseEE14GetOwningArenaEPKS4_
FN:415,_ZN6google8protobuf5Arena14InternalHelperIN7hare_mq38declareQueueRequest_ArgsEntry_DoNotUseEE14GetOwningArenaEPKS4_
FNDA:0,_ZN6google8protobuf5Arena14InternalHelperIN7hare_mq38declareQueueRequest_ArgsEntry_DoNotUseEE14GetOwningArenaEPKS4_
FN:485,_ZN6google8protobuf5Arena14InternalHelperIN7hare_mq18basicQueryResponseEE9ConstructIJPS1_EEEPS4_PvDpOT_
FNDA:0,_ZN6google8protobuf5Arena14InternalHelperIN7hare_mq18basicQueryResponseEE9ConstructIJPS1_EEEPS4_PvDpOT_
FN:485,_ZN6google8protobuf5Arena14InternalHelperIN7hare_mq19basicCommonResponseEE9ConstructIJPS1_EEEPS4_PvDpOT_
FNDA:0,_ZN6google8protobuf5Arena14InternalHelperIN7hare_mq19basicCommonResponseEE9ConstructIJPS1_EEEPS4_PvDpOT_
FN:485,_ZN6google8protobuf5Arena14InternalHelperIN7hare_mq18deleteQueueRequestEE9ConstructIJPS1_EEEPS4_PvDpOT_
FNDA:0,_ZN6google8protobuf5Arena14InternalHelperIN7hare_mq18deleteQueueRequestEE9ConstructIJPS1_EEEPS4_PvDpOT_
FN:485,_ZN6google8protobuf5Arena14InternalHelperIN7hare_mq21deleteExchangeRequestEE9ConstructIJPS1_EEEPS4_PvDpOT_
FNDA:0,_ZN6google8protobuf5Arena14InternalHelperIN7hare_mq21deleteExchangeRequestEE9ConstructIJPS1_EEEPS4_PvDpOT_
FN:575,_ZN6google8protobuf5Arena21CreateMessageInternalIN7hare_mq13unbindRequestEEEPT_PS1_
FNDA:0,_ZN6google8protobuf5Arena21CreateMessageInternalIN7hare_mq13unbindRequestEEEPT_PS1_
FN:575,_ZN6google8protobuf5Arena21CreateMessageInternalIN7hare_mq21deleteExchangeRequestEEEPT_PS1_
FNDA:0,_ZN6google8protobuf5Arena21CreateMessageInternalIN7hare_mq21deleteExchangeRequestEEEPT_PS1_
FN:575,_ZN6google8protobuf5Arena21CreateMessageInternalIN7hare_mq19basicPublishRequestEEEPT_PS1_
FNDA:0,_ZN6google8protobuf5Arena21CreateMessageInternalIN7hare_mq19basicPublishRequestEEEPT_PS1_
FN:575,_ZN6google8protobuf5Arena21CreateMessageInternalIN7hare_mq15basicAckRequestEEEPT_PS1_
FNDA:0,_ZN6google8protobuf5Arena21CreateMessageInternalIN7hare_mq15basicAckRequestEEEPT_PS1_
FN:575,_ZN6google8protobuf5Arena21CreateMessageInternalIN7hare_mq19basicConsumeRequestEEEPT_PS1_
FNDA:0,_ZN6google8protobuf5Arena21CreateMessageInternalIN7hare_mq19basicConsumeRequestEEEPT_PS1_
FN:575,_ZN6google8protobuf5Arena21CreateMessageInternalIN7hare_mq18basicCancelRequestEEEPT_PS1_
FNDA:0,_ZN6google8protobuf5Arena21CreateMessageInternalIN7hare_mq18basicCancelRequestEEEPT_PS1_
FN:575,_ZN6google8protobuf5Arena21CreateMessageInternalIN7hare_mq17basicQueryRequestEEEPT_PS1_
FNDA:0,_ZN6google8protobuf5Arena21CreateMessageInternalIN7hare_mq17basicQueryRequestEEEPT_PS1_
FN:575,_ZN6google8protobuf5Arena21CreateMessageInternalIN7hare_mq19basicCommonResponseEEEPT_PS1_
FNDA:0,_ZN6google8protobuf5Arena21CreateMessageInternalIN7hare_mq19basicCommonResponseEEEPT_PS1_
FN:575,_ZN6google8protobuf5Arena21CreateMessageInternalIN7hare_mq20basicConsumeResponseEEEPT_PS1_
FNDA:0,_ZN6google8protobuf5Arena21CreateMessageInternalIN7hare_mq20basicConsumeResponseEEEPT_PS1_
FN:575,_ZN6google8protobuf5Arena21CreateMessageInternalIN7hare_mq18basicQueryResponseEEEPT_PS1_
FNDA:0,_ZN6google8protobuf5Arena21CreateMessageInternalIN7hare_mq18basicQueryResponseEEEPT_PS1_
FN:575,_ZN6google8protobuf5Arena21CreateMessageInternalIN7hare_mq11bindRequestEEEPT_PS1_
FNDA:0,_ZN6google8protobuf5Arena21CreateMessageInternalIN7hare_mq11bindRequestEEEPT_PS1_
FN:575,_ZN6google8protobuf5Arena21CreateMessageInternalIN7hare_mq18deleteQueueRequestEEEPT_PS1_
FNDA:0,_ZN6google8protobuf5Arena21CreateMessageInternalIN7hare_mq18deleteQueueRequestEEEPT_PS1_
FN:575,_ZN6google8protobuf5Arena21CreateMessageInternalIN7hare_mq19declareQueueRequestEEEPT_PS1_
FNDA:0,_ZN6google8protobuf5Arena21CreateMessageInternalIN7hare_mq19declareQueueRequestEEEPT_PS1_
FN:575,_ZN6google8protobuf5Arena21CreateMessageInternalIN7hare_mq38declareQueueRequest_ArgsEntry_DoNotUseEEEPT_PS1_
FNDA:0,_ZN6google8protobuf5Arena21CreateMessageInternalIN7hare_mq38declareQueueRequest_ArgsEntry_DoNotUseEEEPT_PS1_
FN:575,_ZN6google8protobuf5Arena21CreateMessageInternalIN7hare_mq18openChannelRequestEEEPT_PS1_
FNDA:0,_ZN6google8protobuf5Arena21CreateMessageInternalIN7hare_mq18openChannelRequestEEEPT_PS1_
FN:575,_ZN6google8protobuf5Arena21CreateMessageInternalIN7hare_mq22declareExchangeRequestEEEPT_PS1_
FNDA:0,_ZN6google8protobuf5Arena21CreateMessageInternalIN7hare_mq22declareExchangeRequestEEEPT_PS1_
FN:575,_ZN6google8protobuf5Arena21CreateMessageInternalIN7hare_mq41declareExchangeRequest_ArgsEntry_DoNotUseEEEPT_PS1_
FNDA:0,_ZN6google8protobuf5Arena21CreateMessageInternalIN7hare_mq41declareExchangeRequest_ArgsEntry_DoNotUseEEEPT_PS1_
FN:575,_ZN6google8protobuf5Arena21CreateMessageInternalIN7hare_mq19closeChannelRequestEEEPT_PS1_
FNDA:0,_ZN6google8protobuf5Arena21CreateMessageInternalIN7hare_mq19closeChannelRequestEEEPT_PS1_
FN:575,_ZN6google8protobuf5Arena21CreateMessageInternalINS0_16RepeatedPtrFieldINS0_7MessageEEEEEPT_PS1_
FNDA:0,_ZN6google8protobuf5Arena21CreateMessageInternalINS0_16RepeatedPtrFieldINS0_7MessageEEEEEPT_PS1_
FN:590,_ZN6google8protobuf5Arena16AllocateInternalEmmPFvPvEPKSt9type_info
FNDA:0,_ZN6google8protobuf5Arena16AllocateInternalEmmPFvPvEPKSt9type_info
FN:652,_ZN6google8protobuf5Arena15DoCreateMessageIN7hare_mq15basicAckRequestEJEEEPT_DpOT0_
FNDA:0,_ZN6google8protobuf5Arena15DoCreateMessageIN7hare_mq15basicAckRequestEJEEEPT_DpOT0_
FN:652,_ZN6google8protobuf5Arena15DoCreateMessageINS0_16RepeatedPtrFieldINS0_7MessageEEEJEEEPT_DpOT0_
FNDA:0,_ZN6google8protobuf5Arena15DoCreateMessageINS0_16RepeatedPtrFieldINS0_7MessageEEEJEEEPT_DpOT0_
FN:652,_ZN6google8protobuf5Arena15DoCreateMessageIN7hare_mq18basicQueryResponseEJEEEPT_DpOT0_
FNDA:0,_ZN6google8protobuf5Arena15DoCreateMessageIN7hare_mq18basicQueryResponseEJEEEPT_DpOT0_
FN:652,_ZN6google8protobuf5Arena15DoCreateMessageIN7hare_mq20basicConsumeResponseEJEEEPT_DpOT0_
FNDA:0,_ZN6google8protobuf5Arena15DoCreateMessageIN7hare_mq20basicConsumeResponseEJEEEPT_DpOT0_
FN:652,_ZN6google8protobuf5Arena15DoCreateMessageIN7hare_mq19basicCommonResponseEJEEEPT_DpOT0_
FNDA:0,_ZN6google8protobuf5Arena15DoCreateMessageIN7hare_mq19basicCommonResponseEJEEEPT_DpOT0_
FN:652,_ZN6google8protobuf5Arena15DoCreateMessageIN7hare_mq17basicQueryRequestEJEEEPT_DpOT0_
FNDA:0,_ZN6google8protobuf5Arena15DoCreateMessageIN7hare_mq17basicQueryRequestEJEEEPT_DpOT0_
FN:652,_ZN6google8protobuf5Arena15DoCreateMessageIN7hare_mq18basicCancelRequestEJEEEPT_DpOT0_
FNDA:0,_ZN6google8protobuf5Arena15DoCreateMessageIN7hare_mq18basicCancelRequestEJEEEPT_DpOT0_
FN:652,_ZN6google8protobuf5Arena15DoCreateMessageIN7hare_mq19basicConsumeRequestEJEEEPT_DpOT0_
FNDA:0,_ZN6google8protobuf5Arena15DoCreateMessageIN7hare_mq19basicConsumeRequestEJEEEPT_DpOT0_
FN:652,_ZN6google8protobuf5Arena15DoCreateMessageIN7hare_mq41declareExchangeRequest_ArgsEntry_DoNotUseEJEEEPT_DpOT0_
FNDA:0,_ZN6google8protobuf5Arena15DoCreateMessageIN7hare_mq41declareExchangeRequest_ArgsEntry_DoNotUseEJEEEPT_DpOT0_
FN:652,_ZN6google8protobuf5Arena15DoCreateMessageIN7hare_mq19basicPublishRequestEJEEEPT_DpOT0_
FNDA:0,_ZN6google8protobuf5Arena15DoCreateMessageIN7hare_mq19basicPublishRequestEJEEEPT_DpOT0_
FN:652,_ZN6google8protobuf5Arena15DoCreateMessageIN7hare_mq13unbindRequestEJEEEPT_DpOT0_
FNDA:0,_ZN6google8protobuf5Arena15DoCreateMessageIN7hare_mq13unbindRequestEJEEEPT_DpOT0_
FN:652,_ZN6google8protobuf5Arena15DoCreateMessageIN7hare_mq11bindRequestEJEEEPT_DpOT0_
FNDA:0,_ZN6google8protobuf5Arena15DoCreateMessageIN7hare_mq11bindRequestEJEEEPT_DpOT0_
FN:652,_ZN6google8protobuf5Arena15DoCreateMessageIN7hare_mq18deleteQueueRequestEJEEEPT_DpOT0_
FNDA:0,_ZN6google8protobuf5Arena15DoCreateMessageIN7hare_mq18deleteQueueRequestEJEEEPT_DpOT0_
FN:652,_ZN6google8protobuf5Arena15DoCreateMessageIN7hare_mq19declareQueueRequestEJEEEPT_DpOT0_
FNDA:0,_ZN6google8protobuf5Arena15DoCreateMessageIN7hare_mq19declareQueueRequestEJEEEPT_DpOT0_
FN:652,_ZN6google8protobuf5Arena15DoCreateMessageIN7hare_mq38declareQueueRequest_ArgsEntry_DoNotUseEJEEEPT_DpOT0_
FNDA:0,_ZN6google8protobuf5Arena15DoCreateMessageIN7hare_mq38declareQueueRequest_ArgsEntry_DoNotUseEJEEEPT_DpOT0_
FN:652,_ZN6google8protobuf5Arena15DoCreateMessageIN7hare_mq21deleteExchangeRequestEJEEEPT_DpOT0_
FNDA:0,_ZN6google8protobuf5Arena15DoCreateMessageIN7hare_mq21deleteExchangeRequestEJEEEPT_DpOT0_
FN:652,_ZN6google8protobuf5Arena15DoCreateMessageIN7hare_mq22declareExchangeRequestEJEEEPT_DpOT0_
FNDA:0,_ZN6google8protobuf5Arena15DoCreateMessageIN7hare_mq22declareExchangeRequestEJEEEPT_DpOT0_
FN:652,_ZN6google8protobuf5Arena15DoCreateMessageIN7hare_mq18openChannelRequestEJEEEPT_DpOT0_
FNDA:0,_ZN6google8protobuf5Arena15DoCreateMessageIN7hare_mq18openChannelRequestEJEEEPT_DpOT0_
FN:652,_ZN6google8protobuf5Arena15DoCreateMessageIN7hare_mq19closeChannelRequestEJEEEPT_DpOT0_
FNDA:0,_ZN6google8protobuf5Arena15DoCreateMessageIN7hare_mq19closeChannelRequestEJEEEPT_DpOT0_
FN:666,_ZN6google8protobuf5Arena20CreateInArenaStorageINSt7__cxx1112basic_stringIcSt11char_traitsIcESaIcEEEJRKS8_EEEvPT_PS1_DpOT0_
FNDA:0,_ZN6google8protobuf5Arena20CreateInArenaStorageINSt7__cxx1112basic_stringIcSt11char_traitsIcESaIcEEEJRKS8_EEEvPT_PS1_DpOT0_
FN:666,_ZN6google8protobuf5Arena20CreateInArenaStorageINSt7__cxx1112basic_stringIcSt11char_traitsIcESaIcEEEJEEEvPT_PS1_DpOT0_
FNDA:0,_ZN6google8protobuf5Arena20CreateInArenaStorageINSt7__cxx1112basic_stringIcSt11char_traitsIcESaIcEEEJEEEvPT_PS1_DpOT0_
FN:666,_ZN6google8protobuf5Arena20CreateInArenaStorageINSt7__cxx1112basic_stringIcSt11char_traitsIcESaIcEEEJRS8_EEEvPT_PS1_DpOT0_
FNDA:0,_ZN6google8protobuf5Arena20CreateInArenaStorageINSt7__cxx1112basic_stringIcSt11char_traitsIcESaIcEEEJRS8_EEEvPT_PS1_DpOT0_
FN:806,_ZN6google8protobuf5Arena23AllocateAlignedWithHookEmmPKSt9type_info
FNDA:0,_ZN6google8protobuf5Arena23AllocateAlignedWithHookEmmPKSt9type_info
DA:94,0
DA:95,0
DA:96,0
DA:101,0
DA:102,0
DA:103,0
DA:101,0
DA:102,0
DA:103,0
DA:101,0
DA:102,0
DA:103,0
DA:101,0
DA:102,0
DA:103,0
DA:116,0
DA:117,0
DA:118,0
DA:287,0
DA:294,0
DA:313,0
DA:314,0
DA:315,0
DA:313,0
DA:314,0
DA:315,0
DA:339,0
DA:347,0
DA:348,0
DA:350,0
DA:360,0
DA:377,0
DA:378,0
DA:387,0
DA:388,0
DA:389,0
DA:397,0
DA:399,0
DA:400,0
DA:415,0
DA:415,0
DA:485,0
DA:486,0
DA:485,0
DA:486,0
DA:485,0
DA:486,0
DA:485,0
DA:486,0
DA:485,0
DA:486,0
DA:489,0
DA:490,0
DA:575,0
DA:579,0
DA:584,0
DA:575,0
DA:579,0
DA:582,0
DA:584,0
DA:575,0
DA:579,0
DA:582,0
DA:584,0
DA:575,0
DA:579,0
DA:582,0
DA:584,0
DA:575,0
DA:579,0
DA:584,0
DA:575,0
DA:579,0
DA:582,0
DA:584,0
DA:575,0
DA:579,0
DA:582,0
DA:584,0
DA:575,0
DA:579,0
DA:584,0
DA:575,0
DA:579,0
DA:582,0
DA:584,0
DA:575,0
DA:579,0
DA:584,0
DA:575,0
DA:579,0
DA:582,0
DA:584,0
DA:575,0
DA:579,0
DA:584,0
DA:575,0
DA:579,0
DA:584,0
DA:575,0
DA:579,0
DA:584,0
DA:575,0
DA:579,0
DA:584,0
DA:575,0
DA:579,0
DA:582,0
DA:584,0
DA:575,0
DA:579,0
DA:582,0
DA:584,0
DA:575,0
DA:579,0
DA:584,0
DA:575,0
DA:579,0
DA:582,0
DA:584,0
DA:590,0
DA:594,0
DA:595,0
DA:597,0
DA:598,0
DA:599,0
DA:600,0
DA:601,0
DA:603,0
DA:604,0
DA:605,0
DA:606,0
DA:607,0
DA:618,0
DA:621,0
DA:632,0
DA:634,0
DA:641,0
DA:646,0
DA:648,0
DA:652,0
DA:653,0
DA:659,0
DA:652,0
DA:653,0
DA:659,0
DA:652,0
DA:653,0
DA:659,0
DA:652,0
DA:653,0
DA:659,0
DA:652,0
DA:653,0
DA:659,0
DA:652,0
DA:653,0
DA:659,0
DA:652,0
DA:653,0
DA:659,0
DA:652,0
DA:653,0
DA:659,0
DA:652,0
DA:653,0
DA:659,0
DA:652,0
DA:653,0
DA:659,0
DA:652,0
DA:653,0
DA:659,0
DA:652,0
DA:653,0
DA:659,0
DA:652,0
DA:653,0
DA:659,0
DA:652,0
DA:653,0
DA:659,0
DA:652,0
DA:653,0
DA:659,0
DA:652,0
DA:653,0
DA:659,0
DA:652,0
DA:653,0
DA:659,0
DA:652,0
DA:653,0
DA:659,0
DA:652,0
DA:653,0
DA:659,0
DA:666,0
DA:667,0
DA:670,0
DA:671,0
DA:675,0
DA:666,0
DA:667,0
DA:670,0
DA:671,0
DA:675,0
DA:666,0
DA:667,0
DA:670,0
DA:671,0
DA:675,0
DA:683,0
DA:685,0
DA:692,0
DA:694,0
DA:716,0
DA:718,0
DA:719,0
DA:721,0
DA:724,0
DA:726,0
DA:736,0
DA:737,0
DA:738,0
DA:773,0
DA:774,0
DA:775,0
DA:781,0
DA:783,0
DA:791,0
DA:793,0
DA:794,0
DA:806,0
DA:808,0
DA:809,0
DA:816,0
DA:817,0
end_of_record
SF:/usr/local/include/google/protobuf/stubs/port.h
DA:290,0
DA:292,0
DA:302,0
DA:310,0
end_of_record
SF:/usr/include/c++/11/bits/alloc_traits.h
DA:249,0
DA:251,0
DA:317,0
DA:318,0
DA:344,0
DA:345,0
DA:360,0
DA:364,0
DA:463,0
DA:464,0
DA:495,0
DA:496,0
DA:562,0
DA:563,0
DA:845,0
end_of_record
SF:/usr/include/c++/11/iostream
end_of_record
SF:/usr/include/c++/11/ext/aligned_buffer.h
DA:65,0
DA:69,0
DA:73,0
end_of_record
