TN:
SF:/home/eric/2025MQ/MQproject/2025MQWorkSpace/src/server/route.hpp
FN:17,_ZN5hz_mq6router11match_routeENS_12ExchangeTypeERKNSt7__cxx1112basic_stringIcSt11char_traitsIcESaIcEEES9_
FN:32,_ZZN5hz_mq6router11match_routeENS_12ExchangeTypeERKNSt7__cxx1112basic_stringIcSt11char_traitsIcESaIcEEES9_ENKUlS9_S9_E_clES9_S9_
FNDA:26,_ZZN5hz_mq6router11match_routeENS_12ExchangeTypeERKNSt7__cxx1112basic_stringIcSt11char_traitsIcESaIcEEES9_ENKUlS9_S9_E_clES9_S9_
FNDA:25,_ZN5hz_mq6router11match_routeENS_12ExchangeTypeERKNSt7__cxx1112basic_stringIcSt11char_traitsIcESaIcEEES9_
FNF:2
FNH:2
DA:17,46
DA:21,28
DA:22,7
DA:24,7
DA:30,26
DA:32,52
DA:34,26
DA:35,72
DA:36,64
DA:37,64
DA:39,64
DA:41,64
DA:42,64
DA:44,64
DA:46,64
DA:47,53
DA:50,57
DA:52,19
DA:55,46
DA:56,46
DA:57,64
DA:58,8
DA:60,26
DA:63,0
DA:64,0
LF:25
LH:23
end_of_record
TN:
SF:/home/eric/2025MQ/MQproject/2025MQWorkSpace/src/server/virtual_host.cpp
FN:14,_ZN5hz_mq12virtual_host11generate_idB5cxx11Ev
FN:24,_ZN5hz_mq12virtual_hostC2ERKNSt7__cxx1112basic_stringIcSt11char_traitsIcESaIcEEES8_S8_
FN:48,_ZN5hz_mq12virtual_host16declare_exchangeERKNSt7__cxx1112basic_stringIcSt11char_traitsIcESaIcEEENS_12ExchangeTypeEbbRKSt13unordered_mapIS6_S6_St4hashIS6_ESt8equal_toIS6_ESaISt4pairIS7_S6_EEE
FN:55,_ZN5hz_mq12virtual_host15delete_exchangeERKNSt7__cxx1112basic_stringIcSt11char_traitsIcESaIcEEE
FN:61,_ZN5hz_mq12virtual_host15select_exchangeERKNSt7__cxx1112basic_stringIcSt11char_traitsIcESaIcEEE
FN:69,_ZN5hz_mq12virtual_host13declare_queueERKNSt7__cxx1112basic_stringIcSt11char_traitsIcESaIcEEEbbbRKSt13unordered_mapIS6_S6_St4hashIS6_ESt8equal_toIS6_ESaISt4pairIS7_S6_EEE
FN:86,_ZN5hz_mq12virtual_host12delete_queueERKNSt7__cxx1112basic_stringIcSt11char_traitsIcESaIcEEE
FN:96,_ZN5hz_mq12virtual_host12exists_queueERKNSt7__cxx1112basic_stringIcSt11char_traitsIcESaIcEEE
FN:101,_ZN5hz_mq12virtual_host10all_queuesB5cxx11Ev
FN:109,_ZN5hz_mq12virtual_host4bindERKNSt7__cxx1112basic_stringIcSt11char_traitsIcESaIcEEES8_S8_
FN:120,_ZN5hz_mq12virtual_host6unbindERKNSt7__cxx1112basic_stringIcSt11char_traitsIcESaIcEEES8_
FN:126,_ZN5hz_mq12virtual_host17exchange_bindingsERKNSt7__cxx1112basic_stringIcSt11char_traitsIcESaIcEEE
FN:135,_ZN5hz_mq12virtual_host13basic_publishERKNSt7__cxx1112basic_stringIcSt11char_traitsIcESaIcEEEPNS_15BasicPropertiesES8_
FN:166,_ZN5hz_mq12virtual_host10publish_exERKNSt7__cxx1112basic_stringIcSt11char_traitsIcESaIcEEES8_PNS_15BasicPropertiesES8_
FN:201,_ZN5hz_mq12virtual_host13basic_consumeERKNSt7__cxx1112basic_stringIcSt11char_traitsIcESaIcEEE
FN:215,_ZN5hz_mq12virtual_host9basic_ackERKNSt7__cxx1112basic_stringIcSt11char_traitsIcESaIcEEES8_
FN:225,_ZN5hz_mq12virtual_host11basic_queryB5cxx11Ev
FNDA:56,_ZN5hz_mq12virtual_host13declare_queueERKNSt7__cxx1112basic_stringIcSt11char_traitsIcESaIcEEEbbbRKSt13unordered_mapIS6_S6_St4hashIS6_ESt8equal_toIS6_ESaISt4pairIS7_S6_EEE
FNDA:18,_ZN5hz_mq12virtual_host10publish_exERKNSt7__cxx1112basic_stringIcSt11char_traitsIcESaIcEEES8_PNS_15BasicPropertiesES8_
FNDA:0,_ZN5hz_mq12virtual_host15select_exchangeERKNSt7__cxx1112basic_stringIcSt11char_traitsIcESaIcEEE
FNDA:6,_ZN5hz_mq12virtual_host12exists_queueERKNSt7__cxx1112basic_stringIcSt11char_traitsIcESaIcEEE
FNDA:40,_ZN5hz_mq12virtual_host16declare_exchangeERKNSt7__cxx1112basic_stringIcSt11char_traitsIcESaIcEEENS_12ExchangeTypeEbbRKSt13unordered_mapIS6_S6_St4hashIS6_ESt8equal_toIS6_ESaISt4pairIS7_S6_EEE
FNDA:3,_ZN5hz_mq12virtual_host12delete_queueERKNSt7__cxx1112basic_stringIcSt11char_traitsIcESaIcEEE
FNDA:6,_ZN5hz_mq12virtual_host10all_queuesB5cxx11Ev
FNDA:0,_ZN5hz_mq12virtual_host11generate_idB5cxx11Ev
FNDA:49,_ZN5hz_mq12virtual_hostC2ERKNSt7__cxx1112basic_stringIcSt11char_traitsIcESaIcEEES8_S8_
FNDA:2,_ZN5hz_mq12virtual_host6unbindERKNSt7__cxx1112basic_stringIcSt11char_traitsIcESaIcEEES8_
FNDA:9,_ZN5hz_mq12virtual_host9basic_ackERKNSt7__cxx1112basic_stringIcSt11char_traitsIcESaIcEEES8_
FNDA:3027,_ZN5hz_mq12virtual_host13basic_publishERKNSt7__cxx1112basic_stringIcSt11char_traitsIcESaIcEEEPNS_15BasicPropertiesES8_
FNDA:103,_ZN5hz_mq12virtual_host4bindERKNSt7__cxx1112basic_stringIcSt11char_traitsIcESaIcEEES8_S8_
FNDA:0,_ZN5hz_mq12virtual_host15delete_exchangeERKNSt7__cxx1112basic_stringIcSt11char_traitsIcESaIcEEE
FNDA:60,_ZN5hz_mq12virtual_host13basic_consumeERKNSt7__cxx1112basic_stringIcSt11char_traitsIcESaIcEEE
FNDA:6,_ZN5hz_mq12virtual_host11basic_queryB5cxx11Ev
FNDA:18,_ZN5hz_mq12virtual_host17exchange_bindingsERKNSt7__cxx1112basic_stringIcSt11char_traitsIcESaIcEEE
FNF:17
FNH:14
DA:14,0
DA:16,0
DA:17,0
DA:18,0
DA:24,49
DA:26,49
DA:27,49
DA:28,49
DA:29,49
DA:30,49
DA:33,49
DA:34,147
DA:38,49
DA:39,0
DA:40,0
DA:41,0
DA:42,0
DA:43,49
DA:48,40
DA:52,40
DA:55,0
DA:57,0
DA:58,0
DA:59,0
DA:61,0
DA:63,0
DA:69,56
DA:73,56
DA:76,59
DA:77,53
DA:78,53
DA:79,53
DA:80,53
DA:82,56
DA:83,56
DA:86,3
DA:88,3
DA:89,3
DA:91,6
DA:92,3
DA:94,3
DA:96,6
DA:98,6
DA:101,6
DA:103,6
DA:109,103
DA:112,103
DA:113,0
DA:115,103
DA:116,103
DA:117,103
DA:120,2
DA:122,2
DA:123,2
DA:124,2
DA:126,18
DA:128,18
DA:129,18
DA:135,3027
DA:140,3027
DA:141,3027
DA:143,3
DA:144,3
DA:150,3024
DA:151,3024
DA:152,0
DA:153,3024
DA:157,3021
DA:158,3021
DA:159,3021
DA:162,3021
DA:166,18
DA:171,18
DA:172,18
DA:174,0
DA:175,0
DA:179,18
DA:180,18
DA:181,18
DA:183,18
DA:184,43
DA:186,25
DA:187,6
DA:189,19
DA:190,19
DA:191,19
DA:193,19
DA:194,19
DA:195,19
DA:196,0
DA:197,18
DA:198,36
DA:201,60
DA:203,60
DA:204,60
DA:205,0
DA:206,0
DA:209,60
DA:210,60
DA:211,43
DA:212,60
DA:213,60
DA:215,9
DA:217,9
DA:218,9
DA:219,0
DA:220,0
DA:222,9
DA:225,6
DA:227,9
DA:228,6
DA:229,3
DA:230,3
DA:231,3
DA:232,3
DA:234,6
LF:116
LH:93
end_of_record
