TN:
SF:/home/eric/2025MQ/MQproject/2025MQWorkSpace/src/server/channel.cpp
FN:20,_ZN7hare_mq7channelC2ERKNSt7__cxx1112basic_stringIcSt11char_traitsIcESaIcEEERKSt10shared_ptrINS_12virtual_hostEERKS9_INS_16consumer_managerEERKS9_I13ProtobufCodecES9_IN5muduo3net13TcpConnectionEERKS9_INS_11thread_poolEE
FN:31,_ZN7hare_mq7channelD2Ev
FN:41,_ZN7hare_mq7channel14basic_responseEbRKNSt7__cxx1112basic_stringIcSt11char_traitsIcESaIcEEES8_
FN:50,_ZN7hare_mq7channel7consumeERKNSt7__cxx1112basic_stringIcSt11char_traitsIcESaIcEEE
FN:72,_ZN7hare_mq7channel10consume_cbERKNSt7__cxx1112basic_stringIcSt11char_traitsIcESaIcEEEPKNS_15BasicPropertiesES8_
FN:92,_ZN7hare_mq7channel16declare_exchangeERKSt10shared_ptrINS_22declareExchangeRequestEE
FN:100,_ZN7hare_mq7channel15delete_exchangeERKSt10shared_ptrINS_21deleteExchangeRequestEE
FN:109,_ZN7hare_mq7channel13declare_queueERKSt10shared_ptrINS_19declareQueueRequestEE
FN:122,_ZN7hare_mq7channel12delete_queueERKSt10shared_ptrINS_18deleteQueueRequestEE
FN:132,_ZN7hare_mq7channel4bindERKSt10shared_ptrINS_11bindRequestEE
FN:138,_ZN7hare_mq7channel6unbindERKSt10shared_ptrINS_13unbindRequestEE
FN:147,_ZN7hare_mq7channel13basic_publishERKSt10shared_ptrINS_19basicPublishRequestEE
FN:178,_ZN7hare_mq7channel9basic_ackERKSt10shared_ptrINS_15basicAckRequestEE
FN:184,_ZN7hare_mq7channel13basic_consumeERKSt10shared_ptrINS_19basicConsumeRequestEE
FN:198,_ZN7hare_mq7channel12basic_cancelERKSt10shared_ptrINS_18basicCancelRequestEE
FN:204,_ZN7hare_mq7channel11basic_queryERKSt10shared_ptrINS_17basicQueryRequestEE
FN:217,_ZN7hare_mq15channel_manager12open_channelERKNSt7__cxx1112basic_stringIcSt11char_traitsIcESaIcEEERKSt10shared_ptrINS_12virtual_hostEERKS9_INS_16consumer_managerEERKS9_I13ProtobufCodecES9_IN5muduo3net13TcpConnectionEERKS9_INS_11thread_poolEE
FN:231,_ZN7hare_mq15channel_manager13close_channelERKNSt7__cxx1112basic_stringIcSt11char_traitsIcESaIcEEE
FN:237,_ZN7hare_mq15channel_manager14select_channelERKNSt7__cxx1112basic_stringIcSt11char_traitsIcESaIcEEE
FNDA:0,_ZN7hare_mq7channelD2Ev
FNDA:0,_ZN7hare_mq15channel_manager13close_channelERKNSt7__cxx1112basic_stringIcSt11char_traitsIcESaIcEEE
FNDA:0,_ZN7hare_mq7channel9basic_ackERKSt10shared_ptrINS_15basicAckRequestEE
FNDA:0,_ZN7hare_mq7channel13basic_publishERKSt10shared_ptrINS_19basicPublishRequestEE
FNDA:0,_ZN7hare_mq7channel12basic_cancelERKSt10shared_ptrINS_18basicCancelRequestEE
FNDA:0,_ZN7hare_mq15channel_manager12open_channelERKNSt7__cxx1112basic_stringIcSt11char_traitsIcESaIcEEERKSt10shared_ptrINS_12virtual_hostEERKS9_INS_16consumer_managerEERKS9_I13ProtobufCodecES9_IN5muduo3net13TcpConnectionEERKS9_INS_11thread_poolEE
FNDA:0,_ZN7hare_mq7channel15delete_exchangeERKSt10shared_ptrINS_21deleteExchangeRequestEE
FNDA:0,_ZN7hare_mq7channel16declare_exchangeERKSt10shared_ptrINS_22declareExchangeRequestEE
FNDA:0,_ZN7hare_mq7channel7consumeERKNSt7__cxx1112basic_stringIcSt11char_traitsIcESaIcEEE
FNDA:0,_ZN7hare_mq7channel11basic_queryERKSt10shared_ptrINS_17basicQueryRequestEE
FNDA:0,_ZN7hare_mq7channel14basic_responseEbRKNSt7__cxx1112basic_stringIcSt11char_traitsIcESaIcEEES8_
FNDA:0,_ZN7hare_mq7channel10consume_cbERKNSt7__cxx1112basic_stringIcSt11char_traitsIcESaIcEEEPKNS_15BasicPropertiesES8_
FNDA:0,_ZN7hare_mq7channel13declare_queueERKSt10shared_ptrINS_19declareQueueRequestEE
FNDA:0,_ZN7hare_mq7channel13basic_consumeERKSt10shared_ptrINS_19basicConsumeRequestEE
FNDA:0,_ZN7hare_mq7channelC2ERKNSt7__cxx1112basic_stringIcSt11char_traitsIcESaIcEEERKSt10shared_ptrINS_12virtual_hostEERKS9_INS_16consumer_managerEERKS9_I13ProtobufCodecES9_IN5muduo3net13TcpConnectionEERKS9_INS_11thread_poolEE
FNDA:0,_ZN7hare_mq7channel4bindERKSt10shared_ptrINS_11bindRequestEE
FNDA:0,_ZN7hare_mq7channel6unbindERKSt10shared_ptrINS_13unbindRequestEE
FNDA:0,_ZN7hare_mq15channel_manager14select_channelERKNSt7__cxx1112basic_stringIcSt11char_traitsIcESaIcEEE
FNDA:0,_ZN7hare_mq7channel12delete_queueERKSt10shared_ptrINS_18deleteQueueRequestEE
FNF:19
FNH:0
DA:20,0
DA:25,0
DA:26,0
DA:29,0
DA:31,0
DA:33,0
DA:34,0
DA:36,0
DA:41,0
DA:43,0
DA:44,0
DA:45,0
DA:46,0
DA:47,0
DA:48,0
DA:50,0
DA:53,0
DA:54,0
DA:55,0
DA:56,0
DA:59,0
DA:60,0
DA:61,0
DA:62,0
DA:65,0
DA:67,0
DA:68,0
DA:70,0
DA:72,0
DA:76,0
DA:77,0
DA:78,0
DA:79,0
DA:81,0
DA:82,0
DA:83,0
DA:84,0
DA:86,0
DA:87,0
DA:92,0
DA:94,0
DA:95,0
DA:96,0
DA:97,0
DA:98,0
DA:100,0
DA:102,0
DA:103,0
DA:104,0
DA:109,0
DA:111,0
DA:112,0
DA:113,0
DA:114,0
DA:115,0
DA:116,0
DA:118,0
DA:119,0
DA:120,0
DA:122,0
DA:124,0
DA:125,0
DA:126,0
DA:127,0
DA:132,0
DA:134,0
DA:135,0
DA:136,0
DA:138,0
DA:140,0
DA:141,0
DA:142,0
DA:147,0
DA:150,0
DA:151,0
DA:152,0
DA:153,0
DA:157,0
DA:159,0
DA:160,0
DA:161,0
DA:162,0
DA:163,0
DA:166,0
DA:167,0
DA:169,0
DA:171,0
DA:172,0
DA:173,0
DA:175,0
DA:176,0
DA:178,0
DA:180,0
DA:181,0
DA:182,0
DA:184,0
DA:186,0
DA:187,0
DA:188,0
DA:191,0
DA:192,0
DA:193,0
DA:194,0
DA:195,0
DA:198,0
DA:200,0
DA:201,0
DA:202,0
DA:204,0
DA:206,0
DA:207,0
DA:208,0
DA:209,0
DA:210,0
DA:211,0
DA:212,0
DA:217,0
DA:224,0
DA:225,0
DA:227,0
DA:228,0
DA:229,0
DA:231,0
DA:233,0
DA:234,0
DA:235,0
DA:237,0
DA:239,0
DA:240,0
DA:241,0
DA:242,0
LF:131
LH:0
end_of_record
TN:
SF:/home/eric/2025MQ/MQproject/2025MQWorkSpace/src/server/consumer.cpp
FN:8,_ZN7hare_mq8consumerC2ERKNSt7__cxx1112basic_stringIcSt11char_traitsIcESaIcEEES8_bRKSt8functionIFvS8_PKNS_15BasicPropertiesES8_EE
FN:16,_ZN7hare_mq14queue_consumerC2ERKNSt7__cxx1112basic_stringIcSt11char_traitsIcESaIcEEE
FN:19,_ZN7hare_mq14queue_consumer6createERKNSt7__cxx1112basic_stringIcSt11char_traitsIcESaIcEEES8_bRKSt8functionIFvS8_PKNS_15BasicPropertiesES8_EE
FN:36,_ZN7hare_mq14queue_consumer6removeERKNSt7__cxx1112basic_stringIcSt11char_traitsIcESaIcEEE
FN:48,_ZN7hare_mq14queue_consumer9rr_chooseEv
FN:57,_ZN7hare_mq14queue_consumer5emptyEv
FN:63,_ZN7hare_mq14queue_consumer6existsERKNSt7__cxx1112basic_stringIcSt11char_traitsIcESaIcEEE
FN:72,_ZN7hare_mq14queue_consumer5clearEv
FN:80,_ZN7hare_mq16consumer_manager19init_queue_consumerERKNSt7__cxx1112basic_stringIcSt11char_traitsIcESaIcEEE
FN:88,_ZN7hare_mq16consumer_manager22destroy_queue_consumerERKNSt7__cxx1112basic_stringIcSt11char_traitsIcESaIcEEE
FN:94,_ZN7hare_mq16consumer_manager6createERKNSt7__cxx1112basic_stringIcSt11char_traitsIcESaIcEEES8_bRKSt8functionIFvS8_PKNS_15BasicPropertiesES8_EE
FN:112,_ZN7hare_mq16consumer_manager6removeERKNSt7__cxx1112basic_stringIcSt11char_traitsIcESaIcEEES8_
FN:127,_ZN7hare_mq16consumer_manager6chooseERKNSt7__cxx1112basic_stringIcSt11char_traitsIcESaIcEEE
FNDA:0,_ZN7hare_mq16consumer_manager19init_queue_consumerERKNSt7__cxx1112basic_stringIcSt11char_traitsIcESaIcEEE
FNDA:0,_ZN7hare_mq16consumer_manager22destroy_queue_consumerERKNSt7__cxx1112basic_stringIcSt11char_traitsIcESaIcEEE
FNDA:0,_ZN7hare_mq8consumerC2ERKNSt7__cxx1112basic_stringIcSt11char_traitsIcESaIcEEES8_bRKSt8functionIFvS8_PKNS_15BasicPropertiesES8_EE
FNDA:0,_ZN7hare_mq14queue_consumer6existsERKNSt7__cxx1112basic_stringIcSt11char_traitsIcESaIcEEE
FNDA:0,_ZN7hare_mq14queue_consumer5emptyEv
FNDA:0,_ZN7hare_mq14queue_consumerC2ERKNSt7__cxx1112basic_stringIcSt11char_traitsIcESaIcEEE
FNDA:0,_ZN7hare_mq16consumer_manager6createERKNSt7__cxx1112basic_stringIcSt11char_traitsIcESaIcEEES8_bRKSt8functionIFvS8_PKNS_15BasicPropertiesES8_EE
FNDA:0,_ZN7hare_mq14queue_consumer9rr_chooseEv
FNDA:0,_ZN7hare_mq16consumer_manager6removeERKNSt7__cxx1112basic_stringIcSt11char_traitsIcESaIcEEES8_
FNDA:0,_ZN7hare_mq16consumer_manager6chooseERKNSt7__cxx1112basic_stringIcSt11char_traitsIcESaIcEEE
FNDA:0,_ZN7hare_mq14queue_consumer6removeERKNSt7__cxx1112basic_stringIcSt11char_traitsIcESaIcEEE
FNDA:0,_ZN7hare_mq14queue_consumer6createERKNSt7__cxx1112basic_stringIcSt11char_traitsIcESaIcEEES8_bRKSt8functionIFvS8_PKNS_15BasicPropertiesES8_EE
FNDA:0,_ZN7hare_mq14queue_consumer5clearEv
FNF:13
FNH:0
DA:8,0
DA:9,0
DA:10,0
DA:11,0
DA:12,0
DA:13,0
DA:16,0
DA:17,0
DA:19,0
DA:24,0
DA:25,0
DA:26,0
DA:27,0
DA:28,0
DA:31,0
DA:32,0
DA:33,0
DA:34,0
DA:36,0
DA:38,0
DA:39,0
DA:40,0
DA:41,0
DA:42,0
DA:45,0
DA:46,0
DA:48,0
DA:50,0
DA:51,0
DA:52,0
DA:53,0
DA:54,0
DA:55,0
DA:57,0
DA:59,0
DA:60,0
DA:61,0
DA:63,0
DA:65,0
DA:66,0
DA:67,0
DA:70,0
DA:72,0
DA:74,0
DA:75,0
DA:76,0
DA:77,0
DA:80,0
DA:82,0
DA:83,0
DA:84,0
DA:86,0
DA:88,0
DA:90,0
DA:91,0
DA:92,0
DA:94,0
DA:99,0
DA:100,0
DA:101,0
DA:102,0
DA:103,0
DA:104,0
DA:105,0
DA:107,0
DA:108,0
DA:109,0
DA:110,0
DA:112,0
DA:114,0
DA:115,0
DA:116,0
DA:117,0
DA:118,0
DA:119,0
DA:120,0
DA:122,0
DA:123,0
DA:124,0
DA:125,0
DA:127,0
DA:129,0
DA:130,0
DA:131,0
DA:132,0
DA:133,0
DA:135,0
DA:136,0
LF:88
LH:0
end_of_record
TN:
SF:/home/eric/2025MQ/MQproject/2025MQWorkSpace/src/server/virtual_host.cpp
FN:14,_ZN7hare_mq12virtual_host11generate_idB5cxx11Ev
FN:24,_ZN7hare_mq12virtual_hostC2ERKNSt7__cxx1112basic_stringIcSt11char_traitsIcESaIcEEES8_S8_
FN:48,_ZN7hare_mq12virtual_host16declare_exchangeERKNSt7__cxx1112basic_stringIcSt11char_traitsIcESaIcEEENS_12ExchangeTypeEbbRKSt13unordered_mapIS6_S6_St4hashIS6_ESt8equal_toIS6_ESaISt4pairIS7_S6_EEE
FN:55,_ZN7hare_mq12virtual_host15delete_exchangeERKNSt7__cxx1112basic_stringIcSt11char_traitsIcESaIcEEE
FN:61,_ZN7hare_mq12virtual_host15select_exchangeERKNSt7__cxx1112basic_stringIcSt11char_traitsIcESaIcEEE
FN:69,_ZN7hare_mq12virtual_host13declare_queueERKNSt7__cxx1112basic_stringIcSt11char_traitsIcESaIcEEEbbbRKSt13unordered_mapIS6_S6_St4hashIS6_ESt8equal_toIS6_ESaISt4pairIS7_S6_EEE
FN:86,_ZN7hare_mq12virtual_host12delete_queueERKNSt7__cxx1112basic_stringIcSt11char_traitsIcESaIcEEE
FN:96,_ZN7hare_mq12virtual_host12exists_queueERKNSt7__cxx1112basic_stringIcSt11char_traitsIcESaIcEEE
FN:101,_ZN7hare_mq12virtual_host10all_queuesB5cxx11Ev
FN:109,_ZN7hare_mq12virtual_host4bindERKNSt7__cxx1112basic_stringIcSt11char_traitsIcESaIcEEES8_S8_
FN:120,_ZN7hare_mq12virtual_host6unbindERKNSt7__cxx1112basic_stringIcSt11char_traitsIcESaIcEEES8_
FN:126,_ZN7hare_mq12virtual_host17exchange_bindingsERKNSt7__cxx1112basic_stringIcSt11char_traitsIcESaIcEEE
FN:135,_ZN7hare_mq12virtual_host13basic_publishERKNSt7__cxx1112basic_stringIcSt11char_traitsIcESaIcEEEPNS_15BasicPropertiesES8_
FN:166,_ZN7hare_mq12virtual_host10publish_exERKNSt7__cxx1112basic_stringIcSt11char_traitsIcESaIcEEES8_PNS_15BasicPropertiesES8_
FN:201,_ZN7hare_mq12virtual_host13basic_consumeERKNSt7__cxx1112basic_stringIcSt11char_traitsIcESaIcEEE
FN:215,_ZN7hare_mq12virtual_host9basic_ackERKNSt7__cxx1112basic_stringIcSt11char_traitsIcESaIcEEES8_
FN:225,_ZN7hare_mq12virtual_host11basic_queryB5cxx11Ev
FNDA:0,_ZN7hare_mq12virtual_host12delete_queueERKNSt7__cxx1112basic_stringIcSt11char_traitsIcESaIcEEE
FNDA:1,_ZN7hare_mq12virtual_host9basic_ackERKNSt7__cxx1112basic_stringIcSt11char_traitsIcESaIcEEES8_
FNDA:0,_ZN7hare_mq12virtual_host12exists_queueERKNSt7__cxx1112basic_stringIcSt11char_traitsIcESaIcEEE
FNDA:3,_ZN7hare_mq12virtual_host16declare_exchangeERKNSt7__cxx1112basic_stringIcSt11char_traitsIcESaIcEEENS_12ExchangeTypeEbbRKSt13unordered_mapIS6_S6_St4hashIS6_ESt8equal_toIS6_ESaISt4pairIS7_S6_EEE
FNDA:0,_ZN7hare_mq12virtual_host6unbindERKNSt7__cxx1112basic_stringIcSt11char_traitsIcESaIcEEES8_
FNDA:2,_ZN7hare_mq12virtual_host10publish_exERKNSt7__cxx1112basic_stringIcSt11char_traitsIcESaIcEEES8_PNS_15BasicPropertiesES8_
FNDA:0,_ZN7hare_mq12virtual_host15select_exchangeERKNSt7__cxx1112basic_stringIcSt11char_traitsIcESaIcEEE
FNDA:1,_ZN7hare_mq12virtual_host13basic_publishERKNSt7__cxx1112basic_stringIcSt11char_traitsIcESaIcEEEPNS_15BasicPropertiesES8_
FNDA:4,_ZN7hare_mq12virtual_host13basic_consumeERKNSt7__cxx1112basic_stringIcSt11char_traitsIcESaIcEEE
FNDA:0,_ZN7hare_mq12virtual_host11generate_idB5cxx11Ev
FNDA:10,_ZN7hare_mq12virtual_host4bindERKNSt7__cxx1112basic_stringIcSt11char_traitsIcESaIcEEES8_S8_
FNDA:5,_ZN7hare_mq12virtual_hostC2ERKNSt7__cxx1112basic_stringIcSt11char_traitsIcESaIcEEES8_S8_
FNDA:0,_ZN7hare_mq12virtual_host15delete_exchangeERKNSt7__cxx1112basic_stringIcSt11char_traitsIcESaIcEEE
FNDA:1,_ZN7hare_mq12virtual_host10all_queuesB5cxx11Ev
FNDA:6,_ZN7hare_mq12virtual_host13declare_queueERKNSt7__cxx1112basic_stringIcSt11char_traitsIcESaIcEEEbbbRKSt13unordered_mapIS6_S6_St4hashIS6_ESt8equal_toIS6_ESaISt4pairIS7_S6_EEE
FNDA:2,_ZN7hare_mq12virtual_host17exchange_bindingsERKNSt7__cxx1112basic_stringIcSt11char_traitsIcESaIcEEE
FNDA:1,_ZN7hare_mq12virtual_host11basic_queryB5cxx11Ev
FNF:17
FNH:11
DA:14,0
DA:16,0
DA:17,0
DA:18,0
DA:24,5
DA:26,5
DA:27,5
DA:28,5
DA:29,5
DA:30,5
DA:33,5
DA:34,15
DA:38,5
DA:39,0
DA:40,0
DA:41,0
DA:42,0
DA:43,5
DA:48,3
DA:52,3
DA:55,0
DA:57,0
DA:58,0
DA:59,0
DA:61,0
DA:63,0
DA:69,6
DA:73,6
DA:76,7
DA:77,5
DA:78,5
DA:79,5
DA:80,5
DA:82,6
DA:83,6
DA:86,0
DA:88,0
DA:89,0
DA:91,0
DA:92,0
DA:94,0
DA:96,0
DA:98,0
DA:101,1
DA:103,1
DA:109,10
DA:112,10
DA:113,0
DA:115,10
DA:116,10
DA:117,10
DA:120,0
DA:122,0
DA:123,0
DA:124,0
DA:126,2
DA:128,2
DA:129,2
DA:135,1
DA:140,1
DA:141,1
DA:143,0
DA:144,0
DA:150,1
DA:151,1
DA:152,0
DA:153,1
DA:157,1
DA:158,1
DA:159,1
DA:162,1
DA:166,2
DA:171,2
DA:172,2
DA:174,0
DA:175,0
DA:179,2
DA:180,2
DA:181,2
DA:183,2
DA:184,5
DA:186,3
DA:187,0
DA:189,3
DA:190,3
DA:191,3
DA:193,3
DA:194,3
DA:195,3
DA:196,0
DA:197,2
DA:198,4
DA:201,4
DA:203,4
DA:204,4
DA:205,0
DA:206,0
DA:209,4
DA:210,4
DA:211,4
DA:212,4
DA:213,4
DA:215,1
DA:217,1
DA:218,1
DA:219,0
DA:220,0
DA:222,1
DA:225,1
DA:227,2
DA:228,1
DA:229,0
DA:230,0
DA:231,0
DA:232,0
DA:234,1
LF:116
LH:74
end_of_record
